(lp0
V..43..\u000a1.432.\u000a1RR32.>\u000a777...\u000a.0055.\u000a.666..\u000a
p1
aV..43..\u000a1.432.\u000a1RR32.>\u000a777...\u000a00.55.\u000a.666..\u000a
p2
aV..43..\u000a1.432.\u000a1RR32.>\u000a777...\u000a0055..\u000a.666..\u000a
p3
aV..43..\u000a1.432.\u000a1RR32.>\u000a777...\u000a0055..\u000a666...\u000a
p4
aV..43..\u000a1.43..\u000a1RR3..>\u000a777...\u000a00552.\u000a666.2.\u000a
p5
aV..43..\u000a1.43..\u000a1RR3..>\u000a...777\u000a00552.\u000a666.2.\u000a
p6
aV..43..\u000a1.43..\u000a1RR3..>\u000a...777\u000a00552.\u000a.6662.\u000a
p7
aV..43..\u000a..43..\u000a1RR3..>\u000a1..777\u000a00552.\u000a.6662.\u000a
p8
aV..43..\u000a..43..\u000a1RR3..>\u000a1777..\u000a00552.\u000a.6662.\u000a
p9
aV..432.\u000a..432.\u000a1RR3..>\u000a1777..\u000a0055..\u000a.666..\u000a
p10
aV..432.\u000a..432.\u000a1RR3..>\u000a1777..\u000a0055..\u000a...666\u000a
p11
aV..432.\u000a..432.\u000a1RR3..>\u000a1777..\u000a00..55\u000a...666\u000a
p12
aV1.432.\u000a1.432.\u000a.RR3..>\u000a.777..\u000a00..55\u000a...666\u000a
p13
aV1.432.\u000a1.432.\u000a.RR3..>\u000a777...\u000a00..55\u000a...666\u000a
p14
aV1.4.2.\u000a1.4.2.\u000a.RR3..>\u000a7773..\u000a00.355\u000a...666\u000a
p15
aV1.4.2.\u000a1.4.2.\u000a.RR3..>\u000a7773..\u000a00.355\u000a666...\u000a
p16
aV1.4.2.\u000a1.4.2.\u000a.RR...>\u000a7773..\u000a00.355\u000a6663..\u000a
p17
aV1.4.2.\u000a1.4.2.\u000a....RR>\u000a7773..\u000a00.355\u000a6663..\u000a
p18
aV.44.77\u000a..5..3\u000aRR50.3>\u000a1.50.3\u000a1220..\u000a66....\u000a
p19
aV.44.77\u000a..50.3\u000aRR50.3>\u000a1.50.3\u000a122...\u000a66....\u000a
p20
aV.44.77\u000a..50.3\u000aRR50.3>\u000a1.50.3\u000a1...22\u000a66....\u000a
p21
aV.44.77\u000a...0.3\u000aRR.0.3>\u000a1.50.3\u000a1.5.22\u000a665...\u000a
p22
aV.44.77\u000a.....3\u000aRR...3>\u000a1.50.3\u000a1.5022\u000a6650..\u000a
p23
aV44..77\u000a.....3\u000aRR...3>\u000a1.50.3\u000a1.5022\u000a6650..\u000a
p24
aV4477..\u000a.....3\u000aRR...3>\u000a1.50.3\u000a1.5022\u000a6650..\u000a
p25
aV4477.3\u000a.....3\u000aRR...3>\u000a1.50..\u000a1.5022\u000a6650..\u000a
p26
aV4477.3\u000a.....3\u000a...RR3>\u000a1.50..\u000a1.5022\u000a6650..\u000a
p27
aS'4477.3\n1....3\n1..RR3>\n..50..\n..5022\n6650..\n'
p28
aS'4477.3\n1.5..3\n1.5RR3>\n..50..\n...022\n66.0..\n'
p29
aS'4477.3\n1.5..3\n1.5RR3>\n..50..\n...022\n.660..\n'
p30
aS'4477.3\n..5..3\n..5RR3>\n..50..\n1..022\n1660..\n'
p31
aS'4477.3\n.....3\n..5RR3>\n..50..\n1.5022\n1660..\n'
p32
aS'4477..\n.....3\n..5RR3>\n..50.3\n1.5022\n1660..\n'
p33
aS'4477..\n1....3\n1.5RR3>\n..50.3\n..5022\n.660..\n'
p34
aS'4477..\n1....3\n1.5RR3>\n..50.3\n..5022\n66.0..\n'
p35
aS'4477..\n1....3\n1..RR3>\n..50.3\n..5022\n6650..\n'
p36
aS'4477..\n1....3\n1RR..3>\n..50.3\n..5022\n6650..\n'
p37
aS'4477..\n1..0.3\n1RR0.3>\n..50.3\n..5.22\n665...\n'
p38
aS'4477..\n1..0.3\n1RR0.3>\n..50.3\n..522.\n665...\n'
p39
aS'4477..\n1..0..\n1RR0..>\n..50.3\n..5223\n665..3\n'
p40
aS'44..77\n1..0..\n1RR0..>\n..50.3\n..5223\n665..3\n'
p41
aS'44.077\n1..0..\n1RR0..>\n..5..3\n..5223\n665..3\n'
p42
aS'.44077\n1..0..\n1RR0..>\n..5..3\n..5223\n665..3\n'
p43
aS'144077\n1..0..\n.RR0..>\n..5..3\n..5223\n665..3\n'
p44
aS'144077\n1..0..\nRR.0..>\n..5..3\n..5223\n665..3\n'
p45
aS'144077\n1.50..\nRR50..>\n..5..3\n...223\n66...3\n'
p46
aS'144077\n1.50..\nRR50..>\n..5..3\n22...3\n66...3\n'
p47
aS'144.77\n1.5...\nRR5...>\n..50.3\n22.0.3\n66.0.3\n'
p48
aS'144.77\n1.....\nRR....>\n..50.3\n2250.3\n6650.3\n'
p49
aS'144.77\n1.....\n....RR>\n..50.3\n2250.3\n6650.3\n'
p50
aV222...\u000a...4.1\u000a.RR4.1>\u000a.00437\u000a.5..37\u000a.5666.\u000a
p51
aV2224..\u000a...4.1\u000a.RR4.1>\u000a.00.37\u000a.5..37\u000a.5666.\u000a
p52
aV2224..\u000a...4.1\u000a.RR4.1>\u000a..0037\u000a.5..37\u000a.5666.\u000a
p53
aV2224..\u000a...4.1\u000a.RR4.1>\u000a.50037\u000a.5..37\u000a..666.\u000a
p54
aV2224..\u000a...4.1\u000a.RR4.1>\u000a.50037\u000a.5..37\u000a666...\u000a
p55
aV2224..\u000a...4.1\u000a.RR4.1>\u000a.500.7\u000a.5..37\u000a666.3.\u000a
p56
aV2224..\u000a...4.1\u000a.RR4.1>\u000a.500..\u000a.5..37\u000a666.37\u000a
p57
aS'2224.1\n...4.1\n.RR4..>\n.500..\n.5..37\n666.37\n'
p58
aS'2224.1\n...4.1\n.RR4..>\n.5..00\n.5..37\n666.37\n'
p59
aS'222..1\n.....1\n.RR...>\n.5.400\n.5.437\n666437\n'
p60
aS'222..1\n.....1\n....RR>\n.5.400\n.5.437\n666437\n'
p61
aV..5551\u000a0....1\u000a0RR7.1>\u000a..47..\u000a.24766\u000a.2..33\u000a
p62
aV..5551\u000a0....1\u000a0RR7.1>\u000a...7..\u000a.24766\u000a.24.33\u000a
p63
aV..5551\u000a0..7.1\u000a0RR7.1>\u000a...7..\u000a.24.66\u000a.24.33\u000a
p64
aV..5551\u000a0..7.1\u000a0RR7.1>\u000a..47..\u000a.24.66\u000a.2..33\u000a
p65
aV..5551\u000a0..7.1\u000a0RR7.1>\u000a.247..\u000a.24.66\u000a....33\u000a
p66
aV..5551\u000a0..7.1\u000a0RR7.1>\u000a.247..\u000a.2466.\u000a....33\u000a
p67
aV..5551\u000a0..7.1\u000a0RR7.1>\u000a.247..\u000a.2466.\u000a33....\u000a
p68
aV..555.\u000a0..7..\u000a0RR7..>\u000a.247.1\u000a.24661\u000a33...1\u000a
p69
aV555...\u000a0..7..\u000a0RR7..>\u000a.247.1\u000a.24661\u000a33...1\u000a
p70
aV5557..\u000a0..7..\u000a0RR7..>\u000a.24..1\u000a.24661\u000a33...1\u000a
p71
aV5557..\u000a0..7..\u000a0RR7..>\u000a.2...1\u000a.24661\u000a334..1\u000a
p72
aV5557.1\u000a0..7.1\u000a0RR7.1>\u000a.2....\u000a.2466.\u000a334...\u000a
p73
aV5557.1\u000a0..7.1\u000a0RR7.1>\u000a.2....\u000a.24.66\u000a334...\u000a
p74
aV555..1\u000a0....1\u000a0RR..1>\u000a.2.7..\u000a.24766\u000a3347..\u000a
p75
aV555..1\u000a0....1\u000a0..RR1>\u000a.2.7..\u000a.24766\u000a3347..\u000a
p76
aV555..1\u000a02...1\u000a02.RR1>\u000a...7..\u000a..4766\u000a3347..\u000a
p77
aV555..1\u000a024..1\u000a024RR1>\u000a...7..\u000a...766\u000a33.7..\u000a
p78
aV555...\u000a024..1\u000a024RR1>\u000a...7.1\u000a...766\u000a33.7..\u000a
p79
aV555...\u000a02...1\u000a02.RR1>\u000a...7.1\u000a..4766\u000a3347..\u000a
p80
aV555...\u000a0....1\u000a0..RR1>\u000a.2.7.1\u000a.24766\u000a3347..\u000a
p81
aS'555...\n.....1\n...RR1>\n02.7.1\n024766\n3347..\n'
p82
aS'555...\n.....1\nRR...1>\n02.7.1\n024766\n3347..\n'
p83
aS'5557..\n...7.1\nRR.7.1>\n02...1\n024.66\n334...\n'
p84
aS'5557..\n...7.1\nRR.7.1>\n02...1\n02466.\n334...\n'
p85
aS'5557..\n...7..\nRR.7..>\n02...1\n024661\n334..1\n'
p86
aS'5557..\n..47..\nRR47..>\n02...1\n02.661\n33...1\n'
p87
aS'5557..\n..47..\nRR47..>\n02...1\n0266.1\n33...1\n'
p88
aS'555...\n..47..\nRR47..>\n02.7.1\n0266.1\n33...1\n'
p89
aS'5557..\n..47..\nRR47..>\n02...1\n0266.1\n33...1\n'
p90
aS'5557..\n..47..\nRR47..>\n02...1\n02.661\n33...1\n'
p91
aS'5557.1\n..47.1\nRR47.1>\n02....\n02.66.\n33....\n'
p92
aS'5557.1\n..47.1\nRR47.1>\n02....\n02..66\n33....\n'
p93
aS'5557.1\n..47.1\nRR47.1>\n02....\n02..66\n....33\n'
p94
aS'5557.1\n..47.1\nRR47.1>\n0.....\n02..66\n.2..33\n'
p95
aS'5557.1\n..47.1\nRR47.1>\n......\n02..66\n02..33\n'
p96
aS'5557.1\n...7.1\nRR.7.1>\n......\n024.66\n024.33\n'
p97
aS'555..1\n.....1\nRR...1>\n...7..\n024766\n024733\n'
p98
aS'555..1\n.....1\n...RR1>\n...7..\n024766\n024733\n'
p99
aS'555..1\n0....1\n0..RR1>\n...7..\n.24766\n.24733\n'
p100
aS'555..1\n02...1\n02.RR1>\n...7..\n..4766\n..4733\n'
p101
aS'555..1\n024..1\n024RR1>\n...7..\n...766\n...733\n'
p102
aS'555..1\n02...1\n02.RR1>\n...7..\n..4766\n..4733\n'
p103
aS'555..1\n02...1\n02RR.1>\n...7..\n..4766\n..4733\n'
p104
aS'555..1\n02...1\n02.RR1>\n...7..\n..4766\n..4733\n'
p105
aS'555..1\n024..1\n024RR1>\n...7..\n...766\n...733\n'
p106
aS'555..1\n02...1\n02.RR1>\n...7..\n..4766\n..4733\n'
p107
aS'..5551\n02...1\n02.RR1>\n...7..\n..4766\n..4733\n'
p108
aS'0.5551\n02...1\n.2.RR1>\n...7..\n..4766\n..4733\n'
p109
aS'025551\n02...1\n...RR1>\n...7..\n..4766\n..4733\n'
p110
aS'025551\n024..1\n..4RR1>\n...7..\n...766\n...733\n'
p111
aS'025551\n02...1\n...RR1>\n...7..\n..4766\n..4733\n'
p112
aS'025551\n02...1\nRR...1>\n...7..\n..4766\n..4733\n'
p113
aS'025551\n02.7.1\nRR.7.1>\n...7..\n..4.66\n..4.33\n'
p114
aS'025551\n0247.1\nRR47.1>\n...7..\n....66\n....33\n'
p115
aS'025551\n0247.1\nRR47.1>\n...7..\n66....\n....33\n'
p116
aS'025551\n0247.1\nRR47.1>\n...7..\n66....\n33....\n'
p117
aS'025551\n024..1\nRR4..1>\n...7..\n66.7..\n33.7..\n'
p118
aS'025551\n02...1\nRR...1>\n...7..\n6647..\n3347..\n'
p119
aS'02555.\n02....\nRR....>\n...7.1\n6647.1\n3347.1\n'
p120
aS'02555.\n02....\n....RR>\n...7.1\n6647.1\n3347.1\n'
p121
a.