(lp0
V..43..\u000a1.432.\u000a1RR32.>\u000a777...\u000a.0055.\u000a.666..\u000a
p1
aV..43..\u000a1.432.\u000a1RR32.>\u000a777...\u000a00.55.\u000a.666..\u000a
p2
aV..43..\u000a1.432.\u000a1RR32.>\u000a777...\u000a0055..\u000a.666..\u000a
p3
aV..43..\u000a1.432.\u000a1RR32.>\u000a777...\u000a0055..\u000a666...\u000a
p4
aV..43..\u000a1.43..\u000a1RR3..>\u000a777...\u000a00552.\u000a666.2.\u000a
p5
aV..43..\u000a1.43..\u000a1RR3..>\u000a...777\u000a00552.\u000a666.2.\u000a
p6
aV..43..\u000a1.43..\u000a1RR3..>\u000a...777\u000a00552.\u000a.6662.\u000a
p7
aV..43..\u000a..43..\u000a1RR3..>\u000a1..777\u000a00552.\u000a.6662.\u000a
p8
aV..43..\u000a..43..\u000a1RR3..>\u000a1777..\u000a00552.\u000a.6662.\u000a
p9
aV..432.\u000a..432.\u000a1RR3..>\u000a1777..\u000a0055..\u000a.666..\u000a
p10
aV..432.\u000a..432.\u000a1RR3..>\u000a1777..\u000a0055..\u000a...666\u000a
p11
aV..432.\u000a..432.\u000a1RR3..>\u000a1777..\u000a00..55\u000a...666\u000a
p12
aV1.432.\u000a1.432.\u000a.RR3..>\u000a.777..\u000a00..55\u000a...666\u000a
p13
aV1.432.\u000a1.432.\u000a.RR3..>\u000a777...\u000a00..55\u000a...666\u000a
p14
aV1.4.2.\u000a1.4.2.\u000a.RR3..>\u000a7773..\u000a00.355\u000a...666\u000a
p15
aV1.4.2.\u000a1.4.2.\u000a.RR3..>\u000a7773..\u000a00.355\u000a666...\u000a
p16
aV1.4.2.\u000a1.4.2.\u000a.RR...>\u000a7773..\u000a00.355\u000a6663..\u000a
p17
aV1.4.2.\u000a1.4.2.\u000a....RR>\u000a7773..\u000a00.355\u000a6663..\u000a
p18
aV.44.77\u000a..5..3\u000aRR50.3>\u000a1.50.3\u000a1220..\u000a66....\u000a
p19
aV.44.77\u000a..50.3\u000aRR50.3>\u000a1.50.3\u000a122...\u000a66....\u000a
p20
aV.44.77\u000a..50.3\u000aRR50.3>\u000a1.50.3\u000a1...22\u000a66....\u000a
p21
aV.44.77\u000a...0.3\u000aRR.0.3>\u000a1.50.3\u000a1.5.22\u000a665...\u000a
p22
aV.44.77\u000a.....3\u000aRR...3>\u000a1.50.3\u000a1.5022\u000a6650..\u000a
p23
aV44..77\u000a.....3\u000aRR...3>\u000a1.50.3\u000a1.5022\u000a6650..\u000a
p24
aV4477..\u000a.....3\u000aRR...3>\u000a1.50.3\u000a1.5022\u000a6650..\u000a
p25
aV4477.3\u000a.....3\u000aRR...3>\u000a1.50..\u000a1.5022\u000a6650..\u000a
p26
aV4477.3\u000a.....3\u000a...RR3>\u000a1.50..\u000a1.5022\u000a6650..\u000a
p27
aS'4477.3\n1....3\n1..RR3>\n..50..\n..5022\n6650..\n'
p28
aS'4477.3\n1.5..3\n1.5RR3>\n..50..\n...022\n66.0..\n'
p29
aS'4477.3\n1.5..3\n1.5RR3>\n..50..\n...022\n.660..\n'
p30
aS'4477.3\n..5..3\n..5RR3>\n..50..\n1..022\n1660..\n'
p31
aS'4477.3\n.....3\n..5RR3>\n..50..\n1.5022\n1660..\n'
p32
aS'4477..\n.....3\n..5RR3>\n..50.3\n1.5022\n1660..\n'
p33
aS'4477..\n1....3\n1.5RR3>\n..50.3\n..5022\n.660..\n'
p34
aS'4477..\n1....3\n1.5RR3>\n..50.3\n..5022\n66.0..\n'
p35
aS'4477..\n1....3\n1..RR3>\n..50.3\n..5022\n6650..\n'
p36
aS'4477..\n1....3\n1RR..3>\n..50.3\n..5022\n6650..\n'
p37
aS'4477..\n1..0.3\n1RR0.3>\n..50.3\n..5.22\n665...\n'
p38
aS'4477..\n1..0.3\n1RR0.3>\n..50.3\n..522.\n665...\n'
p39
aS'4477..\n1..0..\n1RR0..>\n..50.3\n..5223\n665..3\n'
p40
aS'44..77\n1..0..\n1RR0..>\n..50.3\n..5223\n665..3\n'
p41
aS'44.077\n1..0..\n1RR0..>\n..5..3\n..5223\n665..3\n'
p42
aS'.44077\n1..0..\n1RR0..>\n..5..3\n..5223\n665..3\n'
p43
aS'144077\n1..0..\n.RR0..>\n..5..3\n..5223\n665..3\n'
p44
aS'144077\n1..0..\nRR.0..>\n..5..3\n..5223\n665..3\n'
p45
aS'144077\n1.50..\nRR50..>\n..5..3\n...223\n66...3\n'
p46
aS'144077\n1.50..\nRR50..>\n..5..3\n22...3\n66...3\n'
p47
aS'144.77\n1.5...\nRR5...>\n..50.3\n22.0.3\n66.0.3\n'
p48
aS'144.77\n1.....\nRR....>\n..50.3\n2250.3\n6650.3\n'
p49
aS'144.77\n1.....\n....RR>\n..50.3\n2250.3\n6650.3\n'
p50
aV222...\u000a...4.1\u000a.RR4.1>\u000a.00437\u000a.5..37\u000a.5666.\u000a
p51
aV2224..\u000a...4.1\u000a.RR4.1>\u000a.00.37\u000a.5..37\u000a.5666.\u000a
p52
aV2224..\u000a...4.1\u000a.RR4.1>\u000a..0037\u000a.5..37\u000a.5666.\u000a
p53
aV2224..\u000a...4.1\u000a.RR4.1>\u000a.50037\u000a.5..37\u000a..666.\u000a
p54
aV2224..\u000a...4.1\u000a.RR4.1>\u000a.50037\u000a.5..37\u000a666...\u000a
p55
aV2224..\u000a...4.1\u000a.RR4.1>\u000a.500.7\u000a.5..37\u000a666.3.\u000a
p56
aV2224..\u000a...4.1\u000a.RR4.1>\u000a.500..\u000a.5..37\u000a666.37\u000a
p57
aS'2224.1\n...4.1\n.RR4..>\n.500..\n.5..37\n666.37\n'
p58
aS'2224.1\n...4.1\n.RR4..>\n.5..00\n.5..37\n666.37\n'
p59
aS'222..1\n.....1\n.RR...>\n.5.400\n.5.437\n666437\n'
p60
aS'222..1\n.....1\n....RR>\n.5.400\n.5.437\n666437\n'
p61
a.