(lp0
(lp1
(i__main__
Car
p2
(dp3
S'end'
p4
(lp5
I0
aI2
asS'orientation'
p6
Vvertical
p7
sS'edge_to'
p8
(lp9
sS'puzzle_tag'
p10
Vprb11647
p11
sS'level'
p12
(lp13
sS'start'
p14
(lp15
I0
aI1
asS'length'
p16
I2
sS'tag'
p17
S'1'
p18
sS'visited'
p19
I00
sba(i__main__
Car
p20
(dp21
g4
(lp22
I3
aI2
asg6
Vvertical
p23
sg8
(lp24
sg10
g11
sg12
(lp25
sg14
(lp26
I3
aI0
asg16
I3
sg17
S'3'
p27
sg19
I00
sba(i__main__
Car
p28
(dp29
g4
(lp30
I4
aI2
asg6
Vvertical
p31
sg8
(lp32
sg10
g11
sg12
(lp33
sg14
(lp34
I4
aI1
asg16
I2
sg17
S'2'
p35
sg19
I00
sba(i__main__
Car
p36
(dp37
g4
(lp38
I2
aI1
asg6
Vvertical
p39
sg8
(lp40
sg10
g11
sg12
(lp41
sg14
(lp42
I2
aI0
asg16
I2
sg17
S'4'
p43
sg19
I00
sba(i__main__
Car
p44
(dp45
g4
(lp46
I2
aI4
asg6
Vhorizontal
p47
sg8
(lp48
sg10
g11
sg12
(lp49
sg14
(lp50
I1
aI4
asg16
I2
sg17
S'0'
p51
sg19
I00
sba(i__main__
Car
p52
(dp53
g4
(lp54
I2
aI2
asg6
Vhorizontal
p55
sg8
(lp56
sg10
g11
sg12
(lp57
sg14
(lp58
I1
aI2
asg16
I2
sg17
S'r'
p59
sg19
I00
sba(i__main__
Car
p60
(dp61
g4
(lp62
I4
aI4
asg6
Vhorizontal
p63
sg8
(lp64
sg10
g11
sg12
(lp65
sg14
(lp66
I3
aI4
asg16
I2
sg17
S'5'
p67
sg19
I00
sba(i__main__
Car
p68
(dp69
g4
(lp70
I5
aI3
asg6
Vhorizontal
p71
sg8
(lp72
sg10
g11
sg12
(lp73
sg14
(lp74
I3
aI3
asg16
I3
sg17
S'7'
p75
sg19
I00
sba(i__main__
Car
p76
(dp77
g4
(lp78
I3
aI5
asg6
Vhorizontal
p79
sg8
(lp80
sg10
g11
sg12
(lp81
sg14
(lp82
I1
aI5
asg16
I3
sg17
S'6'
p83
sg19
I00
sbaa(lp84
(i__main__
Car
p85
(dp86
g4
(lp87
I0
aI2
asg6
g7
sg8
(lp88
sg10
g11
sg12
(lp89
sg14
(lp90
I0
aI1
asg16
I2
sg17
g18
sg19
I00
sba(i__main__
Car
p91
(dp92
g4
(lp93
I3
aI2
asg6
g23
sg8
(lp94
sg10
g11
sg12
(lp95
sg14
(lp96
I3
aI0
asg16
I3
sg17
g27
sg19
I00
sba(i__main__
Car
p97
(dp98
g4
(lp99
I4
aI2
asg6
g31
sg8
(lp100
sg10
g11
sg12
(lp101
sg14
(lp102
I4
aI1
asg16
I2
sg17
g35
sg19
I00
sba(i__main__
Car
p103
(dp104
g4
(lp105
I2
aI1
asg6
g39
sg8
(lp106
sg10
g11
sg12
(lp107
sg14
(lp108
I2
aI0
asg16
I2
sg17
g43
sg19
I00
sba(i__main__
Car
p109
(dp110
g4
(lp111
I2
aI4
asg6
g47
sg8
(lp112
sg10
g11
sg12
(lp113
sg14
(lp114
I1
aI4
asg16
I2
sg17
g51
sg19
I00
sba(i__main__
Car
p115
(dp116
g4
(lp117
I2
aI2
asg6
g55
sg8
(lp118
sg10
g11
sg12
(lp119
sg14
(lp120
I1
aI2
asg16
I2
sg17
g59
sg19
I00
sba(i__main__
Car
p121
(dp122
g4
(lp123
I4
aI4
asg6
g63
sg8
(lp124
sg10
g11
sg12
(lp125
sg14
(lp126
I3
aI4
asg16
I2
sg17
g67
sg19
I00
sba(i__main__
Car
p127
(dp128
g4
(lp129
I2
aI3
asg6
g71
sg8
(lp130
sg10
g11
sg12
(lp131
sg14
(lp132
I0
aI3
asg16
I3
sg17
cnumpy.core.multiarray
scalar
p133
(cnumpy
dtype
p134
(S'S1'
p135
I0
I1
tp136
Rp137
(I3
S'|'
p138
NNNI1
I1
I0
tp139
bS'7'
p140
tp141
Rp142
sg19
I00
sba(i__main__
Car
p143
(dp144
g4
(lp145
I3
aI5
asg6
g79
sg8
(lp146
sg10
g11
sg12
(lp147
sg14
(lp148
I1
aI5
asg16
I3
sg17
g83
sg19
I00
sbaa(lp149
(i__main__
Car
p150
(dp151
g4
(lp152
I0
aI2
asg6
g7
sg8
(lp153
sg10
g11
sg12
(lp154
sg14
(lp155
I0
aI1
asg16
I2
sg17
g18
sg19
I00
sba(i__main__
Car
p156
(dp157
g4
(lp158
I3
aI2
asg6
g23
sg8
(lp159
sg10
g11
sg12
(lp160
sg14
(lp161
I3
aI0
asg16
I3
sg17
g27
sg19
I00
sba(i__main__
Car
p162
(dp163
g4
(lp164
I4
aI2
asg6
g31
sg8
(lp165
sg10
g11
sg12
(lp166
sg14
(lp167
I4
aI1
asg16
I2
sg17
g35
sg19
I00
sba(i__main__
Car
p168
(dp169
g4
(lp170
I2
aI1
asg6
g39
sg8
(lp171
sg10
g11
sg12
(lp172
sg14
(lp173
I2
aI0
asg16
I2
sg17
g43
sg19
I00
sba(i__main__
Car
p174
(dp175
g4
(lp176
I1
aI4
asg6
g47
sg8
(lp177
sg10
g11
sg12
(lp178
sg14
(lp179
I0
aI4
asg16
I2
sg17
g133
(g134
(S'S1'
p180
I0
I1
tp181
Rp182
(I3
S'|'
p183
NNNI1
I1
I0
tp184
bS'0'
p185
tp186
Rp187
sg19
I00
sba(i__main__
Car
p188
(dp189
g4
(lp190
I2
aI2
asg6
g55
sg8
(lp191
sg10
g11
sg12
(lp192
sg14
(lp193
I1
aI2
asg16
I2
sg17
g59
sg19
I00
sba(i__main__
Car
p194
(dp195
g4
(lp196
I4
aI4
asg6
g63
sg8
(lp197
sg10
g11
sg12
(lp198
sg14
(lp199
I3
aI4
asg16
I2
sg17
g67
sg19
I00
sba(i__main__
Car
p200
(dp201
g4
(lp202
I2
aI3
asg6
g71
sg8
(lp203
sg10
g11
sg12
(lp204
sg14
(lp205
I0
aI3
asg16
I3
sg17
g142
sg19
I00
sba(i__main__
Car
p206
(dp207
g4
(lp208
I3
aI5
asg6
g79
sg8
(lp209
sg10
g11
sg12
(lp210
sg14
(lp211
I1
aI5
asg16
I3
sg17
g83
sg19
I00
sbaa(lp212
(i__main__
Car
p213
(dp214
g4
(lp215
I0
aI2
asg6
g7
sg8
(lp216
sg10
g11
sg12
(lp217
sg14
(lp218
I0
aI1
asg16
I2
sg17
g18
sg19
I00
sba(i__main__
Car
p219
(dp220
g4
(lp221
I3
aI2
asg6
g23
sg8
(lp222
sg10
g11
sg12
(lp223
sg14
(lp224
I3
aI0
asg16
I3
sg17
g27
sg19
I00
sba(i__main__
Car
p225
(dp226
g4
(lp227
I4
aI2
asg6
g31
sg8
(lp228
sg10
g11
sg12
(lp229
sg14
(lp230
I4
aI1
asg16
I2
sg17
g35
sg19
I00
sba(i__main__
Car
p231
(dp232
g4
(lp233
I2
aI1
asg6
g39
sg8
(lp234
sg10
g11
sg12
(lp235
sg14
(lp236
I2
aI0
asg16
I2
sg17
g43
sg19
I00
sba(i__main__
Car
p237
(dp238
g4
(lp239
I1
aI4
asg6
g47
sg8
(lp240
sg10
g11
sg12
(lp241
sg14
(lp242
I0
aI4
asg16
I2
sg17
g187
sg19
I00
sba(i__main__
Car
p243
(dp244
g4
(lp245
I2
aI2
asg6
g55
sg8
(lp246
sg10
g11
sg12
(lp247
sg14
(lp248
I1
aI2
asg16
I2
sg17
g59
sg19
I00
sba(i__main__
Car
p249
(dp250
g4
(lp251
I3
aI4
asg6
g63
sg8
(lp252
sg10
g11
sg12
(lp253
sg14
(lp254
I2
aI4
asg16
I2
sg17
g133
(g134
(S'S1'
p255
I0
I1
tp256
Rp257
(I3
S'|'
p258
NNNI1
I1
I0
tp259
bS'5'
p260
tp261
Rp262
sg19
I00
sba(i__main__
Car
p263
(dp264
g4
(lp265
I2
aI3
asg6
g71
sg8
(lp266
sg10
g11
sg12
(lp267
sg14
(lp268
I0
aI3
asg16
I3
sg17
g142
sg19
I00
sba(i__main__
Car
p269
(dp270
g4
(lp271
I3
aI5
asg6
g79
sg8
(lp272
sg10
g11
sg12
(lp273
sg14
(lp274
I1
aI5
asg16
I3
sg17
g83
sg19
I00
sbaa(lp275
(i__main__
Car
p276
(dp277
g4
(lp278
I0
aI2
asg6
g7
sg8
(lp279
sg10
g11
sg12
(lp280
sg14
(lp281
I0
aI1
asg16
I2
sg17
g18
sg19
I00
sba(i__main__
Car
p282
(dp283
g4
(lp284
I3
aI2
asg6
g23
sg8
(lp285
sg10
g11
sg12
(lp286
sg14
(lp287
I3
aI0
asg16
I3
sg17
g27
sg19
I00
sba(i__main__
Car
p288
(dp289
g4
(lp290
I4
aI2
asg6
g31
sg8
(lp291
sg10
g11
sg12
(lp292
sg14
(lp293
I4
aI1
asg16
I2
sg17
g35
sg19
I00
sba(i__main__
Car
p294
(dp295
g4
(lp296
I2
aI1
asg6
g39
sg8
(lp297
sg10
g11
sg12
(lp298
sg14
(lp299
I2
aI0
asg16
I2
sg17
g43
sg19
I00
sba(i__main__
Car
p300
(dp301
g4
(lp302
I1
aI4
asg6
g47
sg8
(lp303
sg10
g11
sg12
(lp304
sg14
(lp305
I0
aI4
asg16
I2
sg17
g187
sg19
I00
sba(i__main__
Car
p306
(dp307
g4
(lp308
I2
aI2
asg6
g55
sg8
(lp309
sg10
g11
sg12
(lp310
sg14
(lp311
I1
aI2
asg16
I2
sg17
g59
sg19
I00
sba(i__main__
Car
p312
(dp313
g4
(lp314
I3
aI4
asg6
g63
sg8
(lp315
sg10
g11
sg12
(lp316
sg14
(lp317
I2
aI4
asg16
I2
sg17
g262
sg19
I00
sba(i__main__
Car
p318
(dp319
g4
(lp320
I2
aI3
asg6
g71
sg8
(lp321
sg10
g11
sg12
(lp322
sg14
(lp323
I0
aI3
asg16
I3
sg17
g142
sg19
I00
sba(i__main__
Car
p324
(dp325
g4
(lp326
I2
aI5
asg6
g79
sg8
(lp327
sg10
g11
sg12
(lp328
sg14
(lp329
I0
aI5
asg16
I3
sg17
g133
(g134
(S'S1'
p330
I0
I1
tp331
Rp332
(I3
S'|'
p333
NNNI1
I1
I0
tp334
bS'6'
p335
tp336
Rp337
sg19
I00
sbaa(lp338
(i__main__
Car
p339
(dp340
g4
(lp341
I0
aI2
asg6
g7
sg8
(lp342
sg10
g11
sg12
(lp343
sg14
(lp344
I0
aI1
asg16
I2
sg17
g18
sg19
I00
sba(i__main__
Car
p345
(dp346
g4
(lp347
I3
aI2
asg6
g23
sg8
(lp348
sg10
g11
sg12
(lp349
sg14
(lp350
I3
aI0
asg16
I3
sg17
g27
sg19
I00
sba(i__main__
Car
p351
(dp352
g4
(lp353
I4
aI5
asg6
g31
sg8
(lp354
sg10
g11
sg12
(lp355
sg14
(lp356
I4
aI4
asg16
I2
sg17
g133
(g134
(S'S1'
p357
I0
I1
tp358
Rp359
(I3
S'|'
p360
NNNI1
I1
I0
tp361
bS'2'
p362
tp363
Rp364
sg19
I00
sba(i__main__
Car
p365
(dp366
g4
(lp367
I2
aI1
asg6
g39
sg8
(lp368
sg10
g11
sg12
(lp369
sg14
(lp370
I2
aI0
asg16
I2
sg17
g43
sg19
I00
sba(i__main__
Car
p371
(dp372
g4
(lp373
I1
aI4
asg6
g47
sg8
(lp374
sg10
g11
sg12
(lp375
sg14
(lp376
I0
aI4
asg16
I2
sg17
g187
sg19
I00
sba(i__main__
Car
p377
(dp378
g4
(lp379
I2
aI2
asg6
g55
sg8
(lp380
sg10
g11
sg12
(lp381
sg14
(lp382
I1
aI2
asg16
I2
sg17
g59
sg19
I00
sba(i__main__
Car
p383
(dp384
g4
(lp385
I3
aI4
asg6
g63
sg8
(lp386
sg10
g11
sg12
(lp387
sg14
(lp388
I2
aI4
asg16
I2
sg17
g262
sg19
I00
sba(i__main__
Car
p389
(dp390
g4
(lp391
I2
aI3
asg6
g71
sg8
(lp392
sg10
g11
sg12
(lp393
sg14
(lp394
I0
aI3
asg16
I3
sg17
g142
sg19
I00
sba(i__main__
Car
p395
(dp396
g4
(lp397
I2
aI5
asg6
g79
sg8
(lp398
sg10
g11
sg12
(lp399
sg14
(lp400
I0
aI5
asg16
I3
sg17
g337
sg19
I00
sbaa(lp401
(i__main__
Car
p402
(dp403
g4
(lp404
I0
aI2
asg6
g7
sg8
(lp405
sg10
g11
sg12
(lp406
sg14
(lp407
I0
aI1
asg16
I2
sg17
g18
sg19
I00
sba(i__main__
Car
p408
(dp409
g4
(lp410
I3
aI2
asg6
g23
sg8
(lp411
sg10
g11
sg12
(lp412
sg14
(lp413
I3
aI0
asg16
I3
sg17
g27
sg19
I00
sba(i__main__
Car
p414
(dp415
g4
(lp416
I4
aI5
asg6
g31
sg8
(lp417
sg10
g11
sg12
(lp418
sg14
(lp419
I4
aI4
asg16
I2
sg17
g364
sg19
I00
sba(i__main__
Car
p420
(dp421
g4
(lp422
I2
aI1
asg6
g39
sg8
(lp423
sg10
g11
sg12
(lp424
sg14
(lp425
I2
aI0
asg16
I2
sg17
g43
sg19
I00
sba(i__main__
Car
p426
(dp427
g4
(lp428
I1
aI4
asg6
g47
sg8
(lp429
sg10
g11
sg12
(lp430
sg14
(lp431
I0
aI4
asg16
I2
sg17
g187
sg19
I00
sba(i__main__
Car
p432
(dp433
g4
(lp434
I2
aI2
asg6
g55
sg8
(lp435
sg10
g11
sg12
(lp436
sg14
(lp437
I1
aI2
asg16
I2
sg17
g59
sg19
I00
sba(i__main__
Car
p438
(dp439
g4
(lp440
I3
aI4
asg6
g63
sg8
(lp441
sg10
g11
sg12
(lp442
sg14
(lp443
I2
aI4
asg16
I2
sg17
g262
sg19
I00
sba(i__main__
Car
p444
(dp445
g4
(lp446
I5
aI3
asg6
g71
sg8
(lp447
sg10
g11
sg12
(lp448
sg14
(lp449
I3
aI3
asg16
I3
sg17
g133
(g134
(S'S1'
p450
I0
I1
tp451
Rp452
(I3
S'|'
p453
NNNI1
I1
I0
tp454
bg140
tp455
Rp456
sg19
I00
sba(i__main__
Car
p457
(dp458
g4
(lp459
I2
aI5
asg6
g79
sg8
(lp460
sg10
g11
sg12
(lp461
sg14
(lp462
I0
aI5
asg16
I3
sg17
g337
sg19
I00
sbaa(lp463
(i__main__
Car
p464
(dp465
g4
(lp466
I0
aI2
asg6
g7
sg8
(lp467
sg10
g11
sg12
(lp468
sg14
(lp469
I0
aI1
asg16
I2
sg17
g18
sg19
I00
sba(i__main__
Car
p470
(dp471
g4
(lp472
I3
aI2
asg6
g23
sg8
(lp473
sg10
g11
sg12
(lp474
sg14
(lp475
I3
aI0
asg16
I3
sg17
g27
sg19
I00
sba(i__main__
Car
p476
(dp477
g4
(lp478
I4
aI5
asg6
g31
sg8
(lp479
sg10
g11
sg12
(lp480
sg14
(lp481
I4
aI4
asg16
I2
sg17
g364
sg19
I00
sba(i__main__
Car
p482
(dp483
g4
(lp484
I2
aI1
asg6
g39
sg8
(lp485
sg10
g11
sg12
(lp486
sg14
(lp487
I2
aI0
asg16
I2
sg17
g43
sg19
I00
sba(i__main__
Car
p488
(dp489
g4
(lp490
I1
aI4
asg6
g47
sg8
(lp491
sg10
g11
sg12
(lp492
sg14
(lp493
I0
aI4
asg16
I2
sg17
g187
sg19
I00
sba(i__main__
Car
p494
(dp495
g4
(lp496
I2
aI2
asg6
g55
sg8
(lp497
sg10
g11
sg12
(lp498
sg14
(lp499
I1
aI2
asg16
I2
sg17
g59
sg19
I00
sba(i__main__
Car
p500
(dp501
g4
(lp502
I3
aI4
asg6
g63
sg8
(lp503
sg10
g11
sg12
(lp504
sg14
(lp505
I2
aI4
asg16
I2
sg17
g262
sg19
I00
sba(i__main__
Car
p506
(dp507
g4
(lp508
I5
aI3
asg6
g71
sg8
(lp509
sg10
g11
sg12
(lp510
sg14
(lp511
I3
aI3
asg16
I3
sg17
g456
sg19
I00
sba(i__main__
Car
p512
(dp513
g4
(lp514
I3
aI5
asg6
g79
sg8
(lp515
sg10
g11
sg12
(lp516
sg14
(lp517
I1
aI5
asg16
I3
sg17
g133
(g134
(S'S1'
p518
I0
I1
tp519
Rp520
(I3
S'|'
p521
NNNI1
I1
I0
tp522
bg335
tp523
Rp524
sg19
I00
sbaa(lp525
(i__main__
Car
p526
(dp527
g4
(lp528
I0
aI3
asg6
g7
sg8
(lp529
sg10
g11
sg12
(lp530
sg14
(lp531
I0
aI2
asg16
I2
sg17
g133
(g134
(S'S1'
p532
I0
I1
tp533
Rp534
(I3
S'|'
p535
NNNI1
I1
I0
tp536
bS'1'
p537
tp538
Rp539
sg19
I00
sba(i__main__
Car
p540
(dp541
g4
(lp542
I3
aI2
asg6
g23
sg8
(lp543
sg10
g11
sg12
(lp544
sg14
(lp545
I3
aI0
asg16
I3
sg17
g27
sg19
I00
sba(i__main__
Car
p546
(dp547
g4
(lp548
I4
aI5
asg6
g31
sg8
(lp549
sg10
g11
sg12
(lp550
sg14
(lp551
I4
aI4
asg16
I2
sg17
g364
sg19
I00
sba(i__main__
Car
p552
(dp553
g4
(lp554
I2
aI1
asg6
g39
sg8
(lp555
sg10
g11
sg12
(lp556
sg14
(lp557
I2
aI0
asg16
I2
sg17
g43
sg19
I00
sba(i__main__
Car
p558
(dp559
g4
(lp560
I1
aI4
asg6
g47
sg8
(lp561
sg10
g11
sg12
(lp562
sg14
(lp563
I0
aI4
asg16
I2
sg17
g187
sg19
I00
sba(i__main__
Car
p564
(dp565
g4
(lp566
I2
aI2
asg6
g55
sg8
(lp567
sg10
g11
sg12
(lp568
sg14
(lp569
I1
aI2
asg16
I2
sg17
g59
sg19
I00
sba(i__main__
Car
p570
(dp571
g4
(lp572
I3
aI4
asg6
g63
sg8
(lp573
sg10
g11
sg12
(lp574
sg14
(lp575
I2
aI4
asg16
I2
sg17
g262
sg19
I00
sba(i__main__
Car
p576
(dp577
g4
(lp578
I5
aI3
asg6
g71
sg8
(lp579
sg10
g11
sg12
(lp580
sg14
(lp581
I3
aI3
asg16
I3
sg17
g456
sg19
I00
sba(i__main__
Car
p582
(dp583
g4
(lp584
I3
aI5
asg6
g79
sg8
(lp585
sg10
g11
sg12
(lp586
sg14
(lp587
I1
aI5
asg16
I3
sg17
g524
sg19
I00
sbaa(lp588
(i__main__
Car
p589
(dp590
g4
(lp591
I0
aI3
asg6
g7
sg8
(lp592
sg10
g11
sg12
(lp593
sg14
(lp594
I0
aI2
asg16
I2
sg17
g539
sg19
I00
sba(i__main__
Car
p595
(dp596
g4
(lp597
I3
aI2
asg6
g23
sg8
(lp598
sg10
g11
sg12
(lp599
sg14
(lp600
I3
aI0
asg16
I3
sg17
g27
sg19
I00
sba(i__main__
Car
p601
(dp602
g4
(lp603
I4
aI5
asg6
g31
sg8
(lp604
sg10
g11
sg12
(lp605
sg14
(lp606
I4
aI4
asg16
I2
sg17
g364
sg19
I00
sba(i__main__
Car
p607
(dp608
g4
(lp609
I2
aI1
asg6
g39
sg8
(lp610
sg10
g11
sg12
(lp611
sg14
(lp612
I2
aI0
asg16
I2
sg17
g43
sg19
I00
sba(i__main__
Car
p613
(dp614
g4
(lp615
I1
aI4
asg6
g47
sg8
(lp616
sg10
g11
sg12
(lp617
sg14
(lp618
I0
aI4
asg16
I2
sg17
g187
sg19
I00
sba(i__main__
Car
p619
(dp620
g4
(lp621
I2
aI2
asg6
g55
sg8
(lp622
sg10
g11
sg12
(lp623
sg14
(lp624
I1
aI2
asg16
I2
sg17
g59
sg19
I00
sba(i__main__
Car
p625
(dp626
g4
(lp627
I3
aI4
asg6
g63
sg8
(lp628
sg10
g11
sg12
(lp629
sg14
(lp630
I2
aI4
asg16
I2
sg17
g262
sg19
I00
sba(i__main__
Car
p631
(dp632
g4
(lp633
I3
aI3
asg6
g71
sg8
(lp634
sg10
g11
sg12
(lp635
sg14
(lp636
I1
aI3
asg16
I3
sg17
g133
(g134
(S'S1'
p637
I0
I1
tp638
Rp639
(I3
S'|'
p640
NNNI1
I1
I0
tp641
bg140
tp642
Rp643
sg19
I00
sba(i__main__
Car
p644
(dp645
g4
(lp646
I3
aI5
asg6
g79
sg8
(lp647
sg10
g11
sg12
(lp648
sg14
(lp649
I1
aI5
asg16
I3
sg17
g524
sg19
I00
sbaa(lp650
(i__main__
Car
p651
(dp652
g4
(lp653
I0
aI3
asg6
g7
sg8
(lp654
sg10
g11
sg12
(lp655
sg14
(lp656
I0
aI2
asg16
I2
sg17
g539
sg19
I00
sba(i__main__
Car
p657
(dp658
g4
(lp659
I3
aI2
asg6
g23
sg8
(lp660
sg10
g11
sg12
(lp661
sg14
(lp662
I3
aI0
asg16
I3
sg17
g27
sg19
I00
sba(i__main__
Car
p663
(dp664
g4
(lp665
I4
aI1
asg6
g31
sg8
(lp666
sg10
g11
sg12
(lp667
sg14
(lp668
I4
aI0
asg16
I2
sg17
g133
(g134
(S'S1'
p669
I0
I1
tp670
Rp671
(I3
S'|'
p672
NNNI1
I1
I0
tp673
bg362
tp674
Rp675
sg19
I00
sba(i__main__
Car
p676
(dp677
g4
(lp678
I2
aI1
asg6
g39
sg8
(lp679
sg10
g11
sg12
(lp680
sg14
(lp681
I2
aI0
asg16
I2
sg17
g43
sg19
I00
sba(i__main__
Car
p682
(dp683
g4
(lp684
I1
aI4
asg6
g47
sg8
(lp685
sg10
g11
sg12
(lp686
sg14
(lp687
I0
aI4
asg16
I2
sg17
g187
sg19
I00
sba(i__main__
Car
p688
(dp689
g4
(lp690
I2
aI2
asg6
g55
sg8
(lp691
sg10
g11
sg12
(lp692
sg14
(lp693
I1
aI2
asg16
I2
sg17
g59
sg19
I00
sba(i__main__
Car
p694
(dp695
g4
(lp696
I3
aI4
asg6
g63
sg8
(lp697
sg10
g11
sg12
(lp698
sg14
(lp699
I2
aI4
asg16
I2
sg17
g262
sg19
I00
sba(i__main__
Car
p700
(dp701
g4
(lp702
I3
aI3
asg6
g71
sg8
(lp703
sg10
g11
sg12
(lp704
sg14
(lp705
I1
aI3
asg16
I3
sg17
g643
sg19
I00
sba(i__main__
Car
p706
(dp707
g4
(lp708
I3
aI5
asg6
g79
sg8
(lp709
sg10
g11
sg12
(lp710
sg14
(lp711
I1
aI5
asg16
I3
sg17
g524
sg19
I00
sbaa(lp712
(i__main__
Car
p713
(dp714
g4
(lp715
I0
aI3
asg6
g7
sg8
(lp716
sg10
g11
sg12
(lp717
sg14
(lp718
I0
aI2
asg16
I2
sg17
g539
sg19
I00
sba(i__main__
Car
p719
(dp720
g4
(lp721
I3
aI2
asg6
g23
sg8
(lp722
sg10
g11
sg12
(lp723
sg14
(lp724
I3
aI0
asg16
I3
sg17
g27
sg19
I00
sba(i__main__
Car
p725
(dp726
g4
(lp727
I4
aI1
asg6
g31
sg8
(lp728
sg10
g11
sg12
(lp729
sg14
(lp730
I4
aI0
asg16
I2
sg17
g675
sg19
I00
sba(i__main__
Car
p731
(dp732
g4
(lp733
I2
aI1
asg6
g39
sg8
(lp734
sg10
g11
sg12
(lp735
sg14
(lp736
I2
aI0
asg16
I2
sg17
g43
sg19
I00
sba(i__main__
Car
p737
(dp738
g4
(lp739
I1
aI4
asg6
g47
sg8
(lp740
sg10
g11
sg12
(lp741
sg14
(lp742
I0
aI4
asg16
I2
sg17
g187
sg19
I00
sba(i__main__
Car
p743
(dp744
g4
(lp745
I2
aI2
asg6
g55
sg8
(lp746
sg10
g11
sg12
(lp747
sg14
(lp748
I1
aI2
asg16
I2
sg17
g59
sg19
I00
sba(i__main__
Car
p749
(dp750
g4
(lp751
I3
aI4
asg6
g63
sg8
(lp752
sg10
g11
sg12
(lp753
sg14
(lp754
I2
aI4
asg16
I2
sg17
g262
sg19
I00
sba(i__main__
Car
p755
(dp756
g4
(lp757
I3
aI3
asg6
g71
sg8
(lp758
sg10
g11
sg12
(lp759
sg14
(lp760
I1
aI3
asg16
I3
sg17
g643
sg19
I00
sba(i__main__
Car
p761
(dp762
g4
(lp763
I5
aI5
asg6
g79
sg8
(lp764
sg10
g11
sg12
(lp765
sg14
(lp766
I3
aI5
asg16
I3
sg17
g133
(g134
(S'S1'
p767
I0
I1
tp768
Rp769
(I3
S'|'
p770
NNNI1
I1
I0
tp771
bg335
tp772
Rp773
sg19
I00
sbaa(lp774
(i__main__
Car
p775
(dp776
g4
(lp777
I0
aI3
asg6
g7
sg8
(lp778
sg10
g11
sg12
(lp779
sg14
(lp780
I0
aI2
asg16
I2
sg17
g539
sg19
I00
sba(i__main__
Car
p781
(dp782
g4
(lp783
I3
aI2
asg6
g23
sg8
(lp784
sg10
g11
sg12
(lp785
sg14
(lp786
I3
aI0
asg16
I3
sg17
g27
sg19
I00
sba(i__main__
Car
p787
(dp788
g4
(lp789
I4
aI1
asg6
g31
sg8
(lp790
sg10
g11
sg12
(lp791
sg14
(lp792
I4
aI0
asg16
I2
sg17
g675
sg19
I00
sba(i__main__
Car
p793
(dp794
g4
(lp795
I2
aI1
asg6
g39
sg8
(lp796
sg10
g11
sg12
(lp797
sg14
(lp798
I2
aI0
asg16
I2
sg17
g43
sg19
I00
sba(i__main__
Car
p799
(dp800
g4
(lp801
I1
aI4
asg6
g47
sg8
(lp802
sg10
g11
sg12
(lp803
sg14
(lp804
I0
aI4
asg16
I2
sg17
g187
sg19
I00
sba(i__main__
Car
p805
(dp806
g4
(lp807
I2
aI2
asg6
g55
sg8
(lp808
sg10
g11
sg12
(lp809
sg14
(lp810
I1
aI2
asg16
I2
sg17
g59
sg19
I00
sba(i__main__
Car
p811
(dp812
g4
(lp813
I5
aI4
asg6
g63
sg8
(lp814
sg10
g11
sg12
(lp815
sg14
(lp816
I4
aI4
asg16
I2
sg17
g133
(g134
(S'S1'
p817
I0
I1
tp818
Rp819
(I3
S'|'
p820
NNNI1
I1
I0
tp821
bg260
tp822
Rp823
sg19
I00
sba(i__main__
Car
p824
(dp825
g4
(lp826
I3
aI3
asg6
g71
sg8
(lp827
sg10
g11
sg12
(lp828
sg14
(lp829
I1
aI3
asg16
I3
sg17
g643
sg19
I00
sba(i__main__
Car
p830
(dp831
g4
(lp832
I5
aI5
asg6
g79
sg8
(lp833
sg10
g11
sg12
(lp834
sg14
(lp835
I3
aI5
asg16
I3
sg17
g773
sg19
I00
sbaa(lp836
(i__main__
Car
p837
(dp838
g4
(lp839
I0
aI1
asg6
g7
sg8
(lp840
sg10
g11
sg12
(lp841
sg14
(lp842
I0
aI0
asg16
I2
sg17
g133
(g134
(S'S1'
p843
I0
I1
tp844
Rp845
(I3
S'|'
p846
NNNI1
I1
I0
tp847
bg537
tp848
Rp849
sg19
I00
sba(i__main__
Car
p850
(dp851
g4
(lp852
I3
aI2
asg6
g23
sg8
(lp853
sg10
g11
sg12
(lp854
sg14
(lp855
I3
aI0
asg16
I3
sg17
g27
sg19
I00
sba(i__main__
Car
p856
(dp857
g4
(lp858
I4
aI1
asg6
g31
sg8
(lp859
sg10
g11
sg12
(lp860
sg14
(lp861
I4
aI0
asg16
I2
sg17
g675
sg19
I00
sba(i__main__
Car
p862
(dp863
g4
(lp864
I2
aI1
asg6
g39
sg8
(lp865
sg10
g11
sg12
(lp866
sg14
(lp867
I2
aI0
asg16
I2
sg17
g43
sg19
I00
sba(i__main__
Car
p868
(dp869
g4
(lp870
I1
aI4
asg6
g47
sg8
(lp871
sg10
g11
sg12
(lp872
sg14
(lp873
I0
aI4
asg16
I2
sg17
g187
sg19
I00
sba(i__main__
Car
p874
(dp875
g4
(lp876
I2
aI2
asg6
g55
sg8
(lp877
sg10
g11
sg12
(lp878
sg14
(lp879
I1
aI2
asg16
I2
sg17
g59
sg19
I00
sba(i__main__
Car
p880
(dp881
g4
(lp882
I5
aI4
asg6
g63
sg8
(lp883
sg10
g11
sg12
(lp884
sg14
(lp885
I4
aI4
asg16
I2
sg17
g823
sg19
I00
sba(i__main__
Car
p886
(dp887
g4
(lp888
I3
aI3
asg6
g71
sg8
(lp889
sg10
g11
sg12
(lp890
sg14
(lp891
I1
aI3
asg16
I3
sg17
g643
sg19
I00
sba(i__main__
Car
p892
(dp893
g4
(lp894
I5
aI5
asg6
g79
sg8
(lp895
sg10
g11
sg12
(lp896
sg14
(lp897
I3
aI5
asg16
I3
sg17
g773
sg19
I00
sbaa(lp898
(i__main__
Car
p899
(dp900
g4
(lp901
I0
aI1
asg6
g7
sg8
(lp902
sg10
g11
sg12
(lp903
sg14
(lp904
I0
aI0
asg16
I2
sg17
g849
sg19
I00
sba(i__main__
Car
p905
(dp906
g4
(lp907
I3
aI2
asg6
g23
sg8
(lp908
sg10
g11
sg12
(lp909
sg14
(lp910
I3
aI0
asg16
I3
sg17
g27
sg19
I00
sba(i__main__
Car
p911
(dp912
g4
(lp913
I4
aI1
asg6
g31
sg8
(lp914
sg10
g11
sg12
(lp915
sg14
(lp916
I4
aI0
asg16
I2
sg17
g675
sg19
I00
sba(i__main__
Car
p917
(dp918
g4
(lp919
I2
aI1
asg6
g39
sg8
(lp920
sg10
g11
sg12
(lp921
sg14
(lp922
I2
aI0
asg16
I2
sg17
g43
sg19
I00
sba(i__main__
Car
p923
(dp924
g4
(lp925
I1
aI4
asg6
g47
sg8
(lp926
sg10
g11
sg12
(lp927
sg14
(lp928
I0
aI4
asg16
I2
sg17
g187
sg19
I00
sba(i__main__
Car
p929
(dp930
g4
(lp931
I2
aI2
asg6
g55
sg8
(lp932
sg10
g11
sg12
(lp933
sg14
(lp934
I1
aI2
asg16
I2
sg17
g59
sg19
I00
sba(i__main__
Car
p935
(dp936
g4
(lp937
I5
aI4
asg6
g63
sg8
(lp938
sg10
g11
sg12
(lp939
sg14
(lp940
I4
aI4
asg16
I2
sg17
g823
sg19
I00
sba(i__main__
Car
p941
(dp942
g4
(lp943
I2
aI3
asg6
g71
sg8
(lp944
sg10
g11
sg12
(lp945
sg14
(lp946
I0
aI3
asg16
I3
sg17
g133
(g134
(S'S1'
p947
I0
I1
tp948
Rp949
(I3
S'|'
p950
NNNI1
I1
I0
tp951
bg140
tp952
Rp953
sg19
I00
sba(i__main__
Car
p954
(dp955
g4
(lp956
I5
aI5
asg6
g79
sg8
(lp957
sg10
g11
sg12
(lp958
sg14
(lp959
I3
aI5
asg16
I3
sg17
g773
sg19
I00
sbaa(lp960
(i__main__
Car
p961
(dp962
g4
(lp963
I0
aI1
asg6
g7
sg8
(lp964
sg10
g11
sg12
(lp965
sg14
(lp966
I0
aI0
asg16
I2
sg17
g849
sg19
I00
sba(i__main__
Car
p967
(dp968
g4
(lp969
I3
aI4
asg6
g23
sg8
(lp970
sg10
g11
sg12
(lp971
sg14
(lp972
I3
aI2
asg16
I3
sg17
g133
(g134
(S'S1'
p973
I0
I1
tp974
Rp975
(I3
S'|'
p976
NNNI1
I1
I0
tp977
bS'3'
p978
tp979
Rp980
sg19
I00
sba(i__main__
Car
p981
(dp982
g4
(lp983
I4
aI1
asg6
g31
sg8
(lp984
sg10
g11
sg12
(lp985
sg14
(lp986
I4
aI0
asg16
I2
sg17
g675
sg19
I00
sba(i__main__
Car
p987
(dp988
g4
(lp989
I2
aI1
asg6
g39
sg8
(lp990
sg10
g11
sg12
(lp991
sg14
(lp992
I2
aI0
asg16
I2
sg17
g43
sg19
I00
sba(i__main__
Car
p993
(dp994
g4
(lp995
I1
aI4
asg6
g47
sg8
(lp996
sg10
g11
sg12
(lp997
sg14
(lp998
I0
aI4
asg16
I2
sg17
g187
sg19
I00
sba(i__main__
Car
p999
(dp1000
g4
(lp1001
I2
aI2
asg6
g55
sg8
(lp1002
sg10
g11
sg12
(lp1003
sg14
(lp1004
I1
aI2
asg16
I2
sg17
g59
sg19
I00
sba(i__main__
Car
p1005
(dp1006
g4
(lp1007
I5
aI4
asg6
g63
sg8
(lp1008
sg10
g11
sg12
(lp1009
sg14
(lp1010
I4
aI4
asg16
I2
sg17
g823
sg19
I00
sba(i__main__
Car
p1011
(dp1012
g4
(lp1013
I2
aI3
asg6
g71
sg8
(lp1014
sg10
g11
sg12
(lp1015
sg14
(lp1016
I0
aI3
asg16
I3
sg17
g953
sg19
I00
sba(i__main__
Car
p1017
(dp1018
g4
(lp1019
I5
aI5
asg6
g79
sg8
(lp1020
sg10
g11
sg12
(lp1021
sg14
(lp1022
I3
aI5
asg16
I3
sg17
g773
sg19
I00
sbaag1
ag84
ag149
ag212
ag275
ag338
ag401
ag463
ag525
ag588
ag650
ag712
ag774
ag836
ag898
ag960
ag1
ag84
ag149
ag212
ag275
ag338
ag401
ag463
ag525
ag588
ag650
ag712
ag774
ag836
ag898
ag960
ag1
ag84
ag149
ag212
ag275
ag338
ag401
ag463
ag525
ag588
ag650
ag712
ag774
ag836
ag898
ag960
ag1
ag84
ag149
ag212
ag275
ag338
ag401
ag463
ag525
ag588
ag650
ag712
ag774
ag836
ag898
ag960
ag1
ag84
ag149
ag212
ag275
ag338
ag401
ag463
ag525
ag588
ag650
ag712
ag774
ag836
ag898
ag960
ag1
ag84
ag149
ag212
ag275
ag338
ag401
ag463
ag525
ag588
ag650
ag712
ag774
ag836
ag898
ag960
ag1
ag84
ag149
ag212
ag275
ag338
ag401
ag463
ag525
ag588
ag650
ag712
ag774
ag836
ag898
ag960
ag1
ag84
ag149
ag212
ag275
ag338
ag401
ag463
ag525
ag588
ag650
ag712
ag774
ag836
ag898
ag960
ag1
ag84
ag149
ag212
ag275
ag338
ag401
ag463
ag525
ag588
ag650
ag712
ag774
ag836
ag898
ag960
ag1
ag84
ag149
ag212
ag275
ag338
ag401
ag463
ag525
ag588
ag650
ag712
ag774
ag836
ag898
ag960
ag1
ag84
ag149
ag212
ag275
ag338
ag401
ag463
ag525
ag588
ag650
ag712
ag774
ag836
ag898
ag960
ag1
ag84
ag149
ag212
ag275
ag338
ag401
ag463
ag525
ag588
ag650
ag712
ag774
ag836
ag898
ag960
ag1
ag84
ag149
ag212
ag275
ag338
ag401
ag463
ag525
ag588
ag650
ag712
ag774
ag836
ag898
ag960
ag1
ag84
ag149
ag212
ag275
ag338
ag401
ag463
ag525
ag588
ag650
ag712
ag774
ag836
ag898
ag960
ag1
ag84
ag149
ag212
ag275
ag338
ag401
ag463
ag525
ag588
ag650
ag712
ag774
ag836
ag898
ag960
ag1
ag84
ag149
ag212
ag275
ag338
ag401
ag463
ag525
ag588
ag650
ag712
ag774
ag836
ag898
ag960
ag1
ag84
ag149
ag212
ag275
ag338
ag401
ag463
ag525
ag588
ag650
ag712
ag774
ag836
ag898
ag960
ag1
ag84
ag149
ag212
ag275
ag338
ag401
ag463
ag525
ag588
ag650
ag712
ag774
ag836
ag898
ag960
ag1
ag84
ag149
ag212
ag275
ag338
ag401
ag463
ag525
ag588
ag650
ag712
ag774
ag836
ag898
ag960
ag1
ag84
ag149
ag212
ag275
ag338
ag401
ag463
ag525
ag588
ag650
ag712
ag774
ag836
ag898
ag960
ag1
ag84
ag149
ag212
ag275
ag338
ag401
ag463
ag525
ag588
ag650
ag712
ag774
ag836
ag898
ag960
ag1
ag84
ag149
ag212
ag275
ag338
ag401
ag463
ag525
ag588
ag650
ag712
ag774
ag836
ag898
ag960
ag1
ag84
ag149
ag212
ag275
ag338
ag401
ag463
ag525
ag588
ag650
ag712
ag774
ag836
ag898
ag960
ag1
ag84
ag149
ag212
ag275
ag338
ag401
ag463
ag525
ag588
ag650
ag712
ag774
ag836
ag898
ag960
ag1
ag84
ag149
ag212
ag275
ag338
ag401
ag463
ag525
ag588
ag650
ag712
ag774
ag836
ag898
ag960
ag1
ag84
ag149
ag212
ag275
ag338
ag401
ag463
ag525
ag588
ag650
ag712
ag774
ag836
ag898
ag960
ag1
ag84
ag149
ag212
ag275
ag338
ag401
ag463
ag525
ag588
ag650
ag712
ag774
ag836
ag898
ag960
ag1
ag84
ag149
ag212
ag275
ag338
ag401
ag463
ag525
ag588
ag650
ag712
ag774
ag836
ag898
ag960
ag1
ag84
ag149
ag212
ag275
ag338
ag401
ag463
ag525
ag588
ag650
ag712
ag774
ag836
ag898
ag960
ag1
ag84
ag149
ag212
ag275
ag338
ag401
ag463
ag525
ag588
ag650
ag712
ag774
ag836
ag898
ag960
ag1
ag84
ag149
ag212
ag275
ag338
ag401
ag463
ag525
ag588
ag650
ag712
ag774
ag836
ag898
ag960
ag1
ag84
ag149
ag212
ag275
ag338
ag401
ag463
ag525
ag588
ag650
ag712
ag774
ag836
ag898
ag960
ag1
ag84
ag149
ag212
ag275
ag338
ag401
ag463
ag525
ag588
ag650
ag712
ag774
ag836
ag898
ag960
ag1
ag84
ag149
ag212
ag275
ag338
ag401
ag463
ag525
ag588
ag650
ag712
ag774
ag836
ag898
ag960
ag1
ag84
ag149
ag212
ag275
ag338
ag401
ag463
ag525
ag588
ag650
ag712
ag774
ag836
ag898
ag960
ag1
ag84
ag149
ag212
ag275
ag338
ag401
ag463
ag525
ag588
ag650
ag712
ag774
ag836
ag898
ag960
ag1
ag84
ag149
ag212
ag275
ag338
ag401
ag463
ag525
ag588
ag650
ag712
ag774
ag836
ag898
ag960
ag1
ag84
ag149
ag212
ag275
ag338
ag401
ag463
ag525
ag588
ag650
ag712
ag774
ag836
ag898
ag960
ag1
ag84
ag149
ag212
ag275
ag338
ag401
ag463
ag525
ag588
ag650
ag712
ag774
ag836
ag898
ag960
ag1
ag84
ag149
ag212
ag275
ag338
ag401
ag463
ag525
ag588
ag650
ag712
ag774
ag836
ag898
ag960
ag1
ag84
ag149
ag212
ag275
ag338
ag401
ag463
ag525
ag588
ag650
ag712
ag774
ag836
ag898
ag960
ag1
ag84
ag149
ag212
ag275
ag338
ag401
ag463
ag525
ag588
ag650
ag712
ag774
ag836
ag898
ag960
ag1
ag84
ag149
ag212
ag275
ag338
ag401
ag463
ag525
ag588
ag650
ag712
ag774
ag836
ag898
ag960
ag1
ag84
ag149
ag212
ag275
ag338
ag401
ag463
ag525
ag588
ag650
ag712
ag774
ag836
ag898
ag960
ag1
ag84
ag149
ag212
ag275
ag338
ag401
ag463
ag525
ag588
ag650
ag712
ag774
ag836
ag898
ag960
ag1
ag84
ag149
ag212
ag275
ag338
ag401
ag463
ag525
ag588
ag650
ag712
ag774
ag836
ag898
ag960
ag1
ag84
ag149
ag212
ag275
ag338
ag401
ag463
ag525
ag588
ag650
ag712
ag774
ag836
ag898
ag960
ag1
ag84
ag149
ag212
ag275
ag338
ag401
ag463
ag525
ag588
ag650
ag712
ag774
ag836
ag898
ag960
ag1
ag84
ag149
ag212
ag275
ag338
ag401
ag463
ag525
ag588
ag650
ag712
ag774
ag836
ag898
ag960
ag1
ag84
ag149
ag212
ag275
ag338
ag401
ag463
ag525
ag588
ag650
ag712
ag774
ag836
ag898
ag960
ag1
ag84
ag149
ag212
ag275
ag338
ag401
ag463
ag525
ag588
ag650
ag712
ag774
ag836
ag898
ag960
ag1
ag84
ag149
ag212
ag275
ag338
ag401
ag463
ag525
ag588
ag650
ag712
ag774
ag836
ag898
ag960
ag1
ag84
ag149
ag212
ag275
ag338
ag401
ag463
ag525
ag588
ag650
ag712
ag774
ag836
ag898
ag960
ag1
ag84
ag149
ag212
ag275
ag338
ag401
ag463
ag525
ag588
ag650
ag712
ag774
ag836
ag898
ag960
ag1
ag84
ag149
ag212
ag275
ag338
ag401
ag463
ag525
ag588
ag650
ag712
ag774
ag836
ag898
ag960
ag1
ag84
ag149
ag212
ag275
ag338
ag401
ag463
ag525
ag588
ag650
ag712
ag774
ag836
ag898
ag960
ag1
ag84
ag149
ag212
ag275
ag338
ag401
ag463
ag525
ag588
ag650
ag712
ag774
ag836
ag898
ag960
ag1
ag84
ag149
ag212
ag275
ag338
ag401
ag463
ag525
ag588
ag650
ag712
ag774
ag836
ag898
ag960
ag1
ag84
ag149
ag212
ag275
ag338
ag401
ag463
ag525
ag588
ag650
ag712
ag774
ag836
ag898
ag960
ag1
ag84
ag149
ag212
ag275
ag338
ag401
ag463
ag525
ag588
ag650
ag712
ag774
ag836
ag898
ag960
ag1
ag84
ag149
ag212
ag275
ag338
ag401
ag463
ag525
ag588
ag650
ag712
ag774
ag836
ag898
ag960
ag1
ag84
ag149
ag212
ag275
ag338
ag401
ag463
ag525
ag588
ag650
ag712
ag774
ag836
ag898
ag960
ag1
ag84
ag149
ag212
ag275
ag338
ag401
ag463
ag525
ag588
ag650
ag712
ag774
ag836
ag898
ag960
a.