(lp0
(inode
Node
p1
(dp2
S'_Node__red'
p3
NsS'_Node__children'
p4
(lp5
sS'_Node__car_list'
p6
(lp7
(iMAG
Car
p8
(dp9
S'end'
p10
(lp11
I0
aI2
asS'orientation'
p12
Vvertical
p13
sS'edge_to'
p14
(lp15
sS'puzzle_tag'
p16
Vprb11647
p17
sS'start'
p18
(lp19
I0
aI1
asS'length'
p20
I2
sS'tag'
p21
V1
p22
sS'visited'
p23
I00
sba(iMAG
Car
p24
(dp25
g10
(lp26
I3
aI2
asg12
Vvertical
p27
sg14
(lp28
sg16
g17
sg18
(lp29
I3
aI0
asg20
I3
sg21
V3
p30
sg23
I00
sba(iMAG
Car
p31
(dp32
g10
(lp33
I4
aI2
asg12
Vvertical
p34
sg14
(lp35
sg16
g17
sg18
(lp36
I4
aI1
asg20
I2
sg21
V2
p37
sg23
I00
sba(iMAG
Car
p38
(dp39
g10
(lp40
I2
aI1
asg12
Vvertical
p41
sg14
(lp42
sg16
g17
sg18
(lp43
I2
aI0
asg20
I2
sg21
V4
p44
sg23
I00
sba(iMAG
Car
p45
(dp46
g10
(lp47
I2
aI4
asg12
Vhorizontal
p48
sg14
(lp49
sg16
g17
sg18
(lp50
I1
aI4
asg20
I2
sg21
V0
p51
sg23
I00
sba(iMAG
Car
p52
(dp53
g10
(lp54
I2
aI2
asg12
Vhorizontal
p55
sg14
(lp56
sg16
g17
sg18
(lp57
I1
aI2
asg20
I2
sg21
Vr
p58
sg23
I00
sba(iMAG
Car
p59
(dp60
g10
(lp61
I4
aI4
asg12
Vhorizontal
p62
sg14
(lp63
sg16
g17
sg18
(lp64
I3
aI4
asg20
I2
sg21
V5
p65
sg23
I00
sba(iMAG
Car
p66
(dp67
g10
(lp68
I5
aI3
asg12
Vhorizontal
p69
sg14
(lp70
sg16
g17
sg18
(lp71
I3
aI3
asg20
I3
sg21
V7
p72
sg23
I00
sba(iMAG
Car
p73
(dp74
g10
(lp75
I3
aI5
asg12
Vhorizontal
p76
sg14
(lp77
sg16
g17
sg18
(lp78
I1
aI5
asg20
I3
sg21
V6
p79
sg23
I00
sbasS'_Node__value'
p80
NsS'_Node__board'
p81
Nsba(inode
Node
p82
(dp83
g3
Nsg4
(lp84
sg6
(lp85
(iMAG
Car
p86
(dp87
g10
(lp88
I0
aI2
asg12
g13
sg14
(lp89
sg16
g17
sg18
(lp90
I0
aI1
asg20
I2
sg21
g22
sg23
I00
sba(iMAG
Car
p91
(dp92
g10
(lp93
I3
aI2
asg12
g27
sg14
(lp94
sg16
g17
sg18
(lp95
I3
aI0
asg20
I3
sg21
g30
sg23
I00
sba(iMAG
Car
p96
(dp97
g10
(lp98
I4
aI2
asg12
g34
sg14
(lp99
sg16
g17
sg18
(lp100
I4
aI1
asg20
I2
sg21
g37
sg23
I00
sba(iMAG
Car
p101
(dp102
g10
(lp103
I2
aI1
asg12
g41
sg14
(lp104
sg16
g17
sg18
(lp105
I2
aI0
asg20
I2
sg21
g44
sg23
I00
sba(iMAG
Car
p106
(dp107
g10
(lp108
I2
aI4
asg12
g48
sg14
(lp109
sg16
g17
sg18
(lp110
I1
aI4
asg20
I2
sg21
g51
sg23
I00
sba(iMAG
Car
p111
(dp112
g10
(lp113
I2
aI2
asg12
g55
sg14
(lp114
sg16
g17
sg18
(lp115
I1
aI2
asg20
I2
sg21
g58
sg23
I00
sba(iMAG
Car
p116
(dp117
g10
(lp118
I4
aI4
asg12
g62
sg14
(lp119
sg16
g17
sg18
(lp120
I3
aI4
asg20
I2
sg21
g65
sg23
I00
sba(iMAG
Car
p121
(dp122
g10
(lp123
I2
aI3
asg12
g69
sg14
(lp124
sg16
g17
sg18
(lp125
I0
aI3
asg20
I3
sg21
cnumpy.core.multiarray
scalar
p126
(cnumpy
dtype
p127
(S'S1'
p128
I0
I1
tp129
Rp130
(I3
S'|'
p131
NNNI1
I1
I0
tp132
bS'7'
p133
tp134
Rp135
sg23
I00
sba(iMAG
Car
p136
(dp137
g10
(lp138
I3
aI5
asg12
g76
sg14
(lp139
sg16
g17
sg18
(lp140
I1
aI5
asg20
I3
sg21
g79
sg23
I00
sbasg80
Nsg81
V..43..\u000a1.432.\u000a1RR32.>\u000a777...\u000a.0055.\u000a.666..\u000a
p141
sba(inode
Node
p142
(dp143
g3
Nsg4
(lp144
sg6
(lp145
(iMAG
Car
p146
(dp147
g10
(lp148
I0
aI2
asg12
g13
sg14
(lp149
sg16
g17
sg18
(lp150
I0
aI1
asg20
I2
sg21
g22
sg23
I00
sba(iMAG
Car
p151
(dp152
g10
(lp153
I3
aI2
asg12
g27
sg14
(lp154
sg16
g17
sg18
(lp155
I3
aI0
asg20
I3
sg21
g30
sg23
I00
sba(iMAG
Car
p156
(dp157
g10
(lp158
I4
aI2
asg12
g34
sg14
(lp159
sg16
g17
sg18
(lp160
I4
aI1
asg20
I2
sg21
g37
sg23
I00
sba(iMAG
Car
p161
(dp162
g10
(lp163
I2
aI1
asg12
g41
sg14
(lp164
sg16
g17
sg18
(lp165
I2
aI0
asg20
I2
sg21
g44
sg23
I00
sba(iMAG
Car
p166
(dp167
g10
(lp168
I1
aI4
asg12
g48
sg14
(lp169
sg16
g17
sg18
(lp170
I0
aI4
asg20
I2
sg21
g126
(g127
(S'S1'
p171
I0
I1
tp172
Rp173
(I3
S'|'
p174
NNNI1
I1
I0
tp175
bS'0'
p176
tp177
Rp178
sg23
I00
sba(iMAG
Car
p179
(dp180
g10
(lp181
I2
aI2
asg12
g55
sg14
(lp182
sg16
g17
sg18
(lp183
I1
aI2
asg20
I2
sg21
g58
sg23
I00
sba(iMAG
Car
p184
(dp185
g10
(lp186
I4
aI4
asg12
g62
sg14
(lp187
sg16
g17
sg18
(lp188
I3
aI4
asg20
I2
sg21
g65
sg23
I00
sba(iMAG
Car
p189
(dp190
g10
(lp191
I2
aI3
asg12
g69
sg14
(lp192
sg16
g17
sg18
(lp193
I0
aI3
asg20
I3
sg21
g135
sg23
I00
sba(iMAG
Car
p194
(dp195
g10
(lp196
I3
aI5
asg12
g76
sg14
(lp197
sg16
g17
sg18
(lp198
I1
aI5
asg20
I3
sg21
g79
sg23
I00
sbasg80
Nsg81
V..43..\u000a1.432.\u000a1RR32.>\u000a777...\u000a00.55.\u000a.666..\u000a
p199
sba(inode
Node
p200
(dp201
g3
Nsg4
(lp202
sg6
(lp203
(iMAG
Car
p204
(dp205
g10
(lp206
I0
aI2
asg12
g13
sg14
(lp207
sg16
g17
sg18
(lp208
I0
aI1
asg20
I2
sg21
g22
sg23
I00
sba(iMAG
Car
p209
(dp210
g10
(lp211
I3
aI2
asg12
g27
sg14
(lp212
sg16
g17
sg18
(lp213
I3
aI0
asg20
I3
sg21
g30
sg23
I00
sba(iMAG
Car
p214
(dp215
g10
(lp216
I4
aI2
asg12
g34
sg14
(lp217
sg16
g17
sg18
(lp218
I4
aI1
asg20
I2
sg21
g37
sg23
I00
sba(iMAG
Car
p219
(dp220
g10
(lp221
I2
aI1
asg12
g41
sg14
(lp222
sg16
g17
sg18
(lp223
I2
aI0
asg20
I2
sg21
g44
sg23
I00
sba(iMAG
Car
p224
(dp225
g10
(lp226
I1
aI4
asg12
g48
sg14
(lp227
sg16
g17
sg18
(lp228
I0
aI4
asg20
I2
sg21
g178
sg23
I00
sba(iMAG
Car
p229
(dp230
g10
(lp231
I2
aI2
asg12
g55
sg14
(lp232
sg16
g17
sg18
(lp233
I1
aI2
asg20
I2
sg21
g58
sg23
I00
sba(iMAG
Car
p234
(dp235
g10
(lp236
I3
aI4
asg12
g62
sg14
(lp237
sg16
g17
sg18
(lp238
I2
aI4
asg20
I2
sg21
g126
(g127
(S'S1'
p239
I0
I1
tp240
Rp241
(I3
S'|'
p242
NNNI1
I1
I0
tp243
bS'5'
p244
tp245
Rp246
sg23
I00
sba(iMAG
Car
p247
(dp248
g10
(lp249
I2
aI3
asg12
g69
sg14
(lp250
sg16
g17
sg18
(lp251
I0
aI3
asg20
I3
sg21
g135
sg23
I00
sba(iMAG
Car
p252
(dp253
g10
(lp254
I3
aI5
asg12
g76
sg14
(lp255
sg16
g17
sg18
(lp256
I1
aI5
asg20
I3
sg21
g79
sg23
I00
sbasg80
Nsg81
V..43..\u000a1.432.\u000a1RR32.>\u000a777...\u000a0055..\u000a.666..\u000a
p257
sba(inode
Node
p258
(dp259
g3
Nsg4
(lp260
sg6
(lp261
(iMAG
Car
p262
(dp263
g10
(lp264
I0
aI2
asg12
g13
sg14
(lp265
sg16
g17
sg18
(lp266
I0
aI1
asg20
I2
sg21
g22
sg23
I00
sba(iMAG
Car
p267
(dp268
g10
(lp269
I3
aI2
asg12
g27
sg14
(lp270
sg16
g17
sg18
(lp271
I3
aI0
asg20
I3
sg21
g30
sg23
I00
sba(iMAG
Car
p272
(dp273
g10
(lp274
I4
aI2
asg12
g34
sg14
(lp275
sg16
g17
sg18
(lp276
I4
aI1
asg20
I2
sg21
g37
sg23
I00
sba(iMAG
Car
p277
(dp278
g10
(lp279
I2
aI1
asg12
g41
sg14
(lp280
sg16
g17
sg18
(lp281
I2
aI0
asg20
I2
sg21
g44
sg23
I00
sba(iMAG
Car
p282
(dp283
g10
(lp284
I1
aI4
asg12
g48
sg14
(lp285
sg16
g17
sg18
(lp286
I0
aI4
asg20
I2
sg21
g178
sg23
I00
sba(iMAG
Car
p287
(dp288
g10
(lp289
I2
aI2
asg12
g55
sg14
(lp290
sg16
g17
sg18
(lp291
I1
aI2
asg20
I2
sg21
g58
sg23
I00
sba(iMAG
Car
p292
(dp293
g10
(lp294
I3
aI4
asg12
g62
sg14
(lp295
sg16
g17
sg18
(lp296
I2
aI4
asg20
I2
sg21
g246
sg23
I00
sba(iMAG
Car
p297
(dp298
g10
(lp299
I2
aI3
asg12
g69
sg14
(lp300
sg16
g17
sg18
(lp301
I0
aI3
asg20
I3
sg21
g135
sg23
I00
sba(iMAG
Car
p302
(dp303
g10
(lp304
I2
aI5
asg12
g76
sg14
(lp305
sg16
g17
sg18
(lp306
I0
aI5
asg20
I3
sg21
g126
(g127
(S'S1'
p307
I0
I1
tp308
Rp309
(I3
S'|'
p310
NNNI1
I1
I0
tp311
bS'6'
p312
tp313
Rp314
sg23
I00
sbasg80
Nsg81
V..43..\u000a1.432.\u000a1RR32.>\u000a777...\u000a0055..\u000a666...\u000a
p315
sba(inode
Node
p316
(dp317
g3
Nsg4
(lp318
sg6
(lp319
(iMAG
Car
p320
(dp321
g10
(lp322
I0
aI2
asg12
g13
sg14
(lp323
sg16
g17
sg18
(lp324
I0
aI1
asg20
I2
sg21
g22
sg23
I00
sba(iMAG
Car
p325
(dp326
g10
(lp327
I3
aI2
asg12
g27
sg14
(lp328
sg16
g17
sg18
(lp329
I3
aI0
asg20
I3
sg21
g30
sg23
I00
sba(iMAG
Car
p330
(dp331
g10
(lp332
I4
aI5
asg12
g34
sg14
(lp333
sg16
g17
sg18
(lp334
I4
aI4
asg20
I2
sg21
g126
(g127
(S'S1'
p335
I0
I1
tp336
Rp337
(I3
S'|'
p338
NNNI1
I1
I0
tp339
bS'2'
p340
tp341
Rp342
sg23
I00
sba(iMAG
Car
p343
(dp344
g10
(lp345
I2
aI1
asg12
g41
sg14
(lp346
sg16
g17
sg18
(lp347
I2
aI0
asg20
I2
sg21
g44
sg23
I00
sba(iMAG
Car
p348
(dp349
g10
(lp350
I1
aI4
asg12
g48
sg14
(lp351
sg16
g17
sg18
(lp352
I0
aI4
asg20
I2
sg21
g178
sg23
I00
sba(iMAG
Car
p353
(dp354
g10
(lp355
I2
aI2
asg12
g55
sg14
(lp356
sg16
g17
sg18
(lp357
I1
aI2
asg20
I2
sg21
g58
sg23
I00
sba(iMAG
Car
p358
(dp359
g10
(lp360
I3
aI4
asg12
g62
sg14
(lp361
sg16
g17
sg18
(lp362
I2
aI4
asg20
I2
sg21
g246
sg23
I00
sba(iMAG
Car
p363
(dp364
g10
(lp365
I2
aI3
asg12
g69
sg14
(lp366
sg16
g17
sg18
(lp367
I0
aI3
asg20
I3
sg21
g135
sg23
I00
sba(iMAG
Car
p368
(dp369
g10
(lp370
I2
aI5
asg12
g76
sg14
(lp371
sg16
g17
sg18
(lp372
I0
aI5
asg20
I3
sg21
g314
sg23
I00
sbasg80
Nsg81
V..43..\u000a1.43..\u000a1RR3..>\u000a777...\u000a00552.\u000a666.2.\u000a
p373
sba(inode
Node
p374
(dp375
g3
Nsg4
(lp376
sg6
(lp377
(iMAG
Car
p378
(dp379
g10
(lp380
I0
aI2
asg12
g13
sg14
(lp381
sg16
g17
sg18
(lp382
I0
aI1
asg20
I2
sg21
g22
sg23
I00
sba(iMAG
Car
p383
(dp384
g10
(lp385
I3
aI2
asg12
g27
sg14
(lp386
sg16
g17
sg18
(lp387
I3
aI0
asg20
I3
sg21
g30
sg23
I00
sba(iMAG
Car
p388
(dp389
g10
(lp390
I4
aI5
asg12
g34
sg14
(lp391
sg16
g17
sg18
(lp392
I4
aI4
asg20
I2
sg21
g342
sg23
I00
sba(iMAG
Car
p393
(dp394
g10
(lp395
I2
aI1
asg12
g41
sg14
(lp396
sg16
g17
sg18
(lp397
I2
aI0
asg20
I2
sg21
g44
sg23
I00
sba(iMAG
Car
p398
(dp399
g10
(lp400
I1
aI4
asg12
g48
sg14
(lp401
sg16
g17
sg18
(lp402
I0
aI4
asg20
I2
sg21
g178
sg23
I00
sba(iMAG
Car
p403
(dp404
g10
(lp405
I2
aI2
asg12
g55
sg14
(lp406
sg16
g17
sg18
(lp407
I1
aI2
asg20
I2
sg21
g58
sg23
I00
sba(iMAG
Car
p408
(dp409
g10
(lp410
I3
aI4
asg12
g62
sg14
(lp411
sg16
g17
sg18
(lp412
I2
aI4
asg20
I2
sg21
g246
sg23
I00
sba(iMAG
Car
p413
(dp414
g10
(lp415
I5
aI3
asg12
g69
sg14
(lp416
sg16
g17
sg18
(lp417
I3
aI3
asg20
I3
sg21
g126
(g127
(S'S1'
p418
I0
I1
tp419
Rp420
(I3
S'|'
p421
NNNI1
I1
I0
tp422
bg133
tp423
Rp424
sg23
I00
sba(iMAG
Car
p425
(dp426
g10
(lp427
I2
aI5
asg12
g76
sg14
(lp428
sg16
g17
sg18
(lp429
I0
aI5
asg20
I3
sg21
g314
sg23
I00
sbasg80
Nsg81
V..43..\u000a1.43..\u000a1RR3..>\u000a...777\u000a00552.\u000a666.2.\u000a
p430
sba(inode
Node
p431
(dp432
g3
Nsg4
(lp433
sg6
(lp434
(iMAG
Car
p435
(dp436
g10
(lp437
I0
aI2
asg12
g13
sg14
(lp438
sg16
g17
sg18
(lp439
I0
aI1
asg20
I2
sg21
g22
sg23
I00
sba(iMAG
Car
p440
(dp441
g10
(lp442
I3
aI2
asg12
g27
sg14
(lp443
sg16
g17
sg18
(lp444
I3
aI0
asg20
I3
sg21
g30
sg23
I00
sba(iMAG
Car
p445
(dp446
g10
(lp447
I4
aI5
asg12
g34
sg14
(lp448
sg16
g17
sg18
(lp449
I4
aI4
asg20
I2
sg21
g342
sg23
I00
sba(iMAG
Car
p450
(dp451
g10
(lp452
I2
aI1
asg12
g41
sg14
(lp453
sg16
g17
sg18
(lp454
I2
aI0
asg20
I2
sg21
g44
sg23
I00
sba(iMAG
Car
p455
(dp456
g10
(lp457
I1
aI4
asg12
g48
sg14
(lp458
sg16
g17
sg18
(lp459
I0
aI4
asg20
I2
sg21
g178
sg23
I00
sba(iMAG
Car
p460
(dp461
g10
(lp462
I2
aI2
asg12
g55
sg14
(lp463
sg16
g17
sg18
(lp464
I1
aI2
asg20
I2
sg21
g58
sg23
I00
sba(iMAG
Car
p465
(dp466
g10
(lp467
I3
aI4
asg12
g62
sg14
(lp468
sg16
g17
sg18
(lp469
I2
aI4
asg20
I2
sg21
g246
sg23
I00
sba(iMAG
Car
p470
(dp471
g10
(lp472
I5
aI3
asg12
g69
sg14
(lp473
sg16
g17
sg18
(lp474
I3
aI3
asg20
I3
sg21
g424
sg23
I00
sba(iMAG
Car
p475
(dp476
g10
(lp477
I3
aI5
asg12
g76
sg14
(lp478
sg16
g17
sg18
(lp479
I1
aI5
asg20
I3
sg21
g126
(g127
(S'S1'
p480
I0
I1
tp481
Rp482
(I3
S'|'
p483
NNNI1
I1
I0
tp484
bg312
tp485
Rp486
sg23
I00
sbasg80
Nsg81
V..43..\u000a1.43..\u000a1RR3..>\u000a...777\u000a00552.\u000a.6662.\u000a
p487
sba(inode
Node
p488
(dp489
g3
Nsg4
(lp490
sg6
(lp491
(iMAG
Car
p492
(dp493
g10
(lp494
I0
aI3
asg12
g13
sg14
(lp495
sg16
g17
sg18
(lp496
I0
aI2
asg20
I2
sg21
g126
(g127
(S'S1'
p497
I0
I1
tp498
Rp499
(I3
S'|'
p500
NNNI1
I1
I0
tp501
bS'1'
p502
tp503
Rp504
sg23
I00
sba(iMAG
Car
p505
(dp506
g10
(lp507
I3
aI2
asg12
g27
sg14
(lp508
sg16
g17
sg18
(lp509
I3
aI0
asg20
I3
sg21
g30
sg23
I00
sba(iMAG
Car
p510
(dp511
g10
(lp512
I4
aI5
asg12
g34
sg14
(lp513
sg16
g17
sg18
(lp514
I4
aI4
asg20
I2
sg21
g342
sg23
I00
sba(iMAG
Car
p515
(dp516
g10
(lp517
I2
aI1
asg12
g41
sg14
(lp518
sg16
g17
sg18
(lp519
I2
aI0
asg20
I2
sg21
g44
sg23
I00
sba(iMAG
Car
p520
(dp521
g10
(lp522
I1
aI4
asg12
g48
sg14
(lp523
sg16
g17
sg18
(lp524
I0
aI4
asg20
I2
sg21
g178
sg23
I00
sba(iMAG
Car
p525
(dp526
g10
(lp527
I2
aI2
asg12
g55
sg14
(lp528
sg16
g17
sg18
(lp529
I1
aI2
asg20
I2
sg21
g58
sg23
I00
sba(iMAG
Car
p530
(dp531
g10
(lp532
I3
aI4
asg12
g62
sg14
(lp533
sg16
g17
sg18
(lp534
I2
aI4
asg20
I2
sg21
g246
sg23
I00
sba(iMAG
Car
p535
(dp536
g10
(lp537
I5
aI3
asg12
g69
sg14
(lp538
sg16
g17
sg18
(lp539
I3
aI3
asg20
I3
sg21
g424
sg23
I00
sba(iMAG
Car
p540
(dp541
g10
(lp542
I3
aI5
asg12
g76
sg14
(lp543
sg16
g17
sg18
(lp544
I1
aI5
asg20
I3
sg21
g486
sg23
I00
sbasg80
Nsg81
V..43..\u000a..43..\u000a1RR3..>\u000a1..777\u000a00552.\u000a.6662.\u000a
p545
sba(inode
Node
p546
(dp547
g3
Nsg4
(lp548
sg6
(lp549
(iMAG
Car
p550
(dp551
g10
(lp552
I0
aI3
asg12
g13
sg14
(lp553
sg16
g17
sg18
(lp554
I0
aI2
asg20
I2
sg21
g504
sg23
I00
sba(iMAG
Car
p555
(dp556
g10
(lp557
I3
aI2
asg12
g27
sg14
(lp558
sg16
g17
sg18
(lp559
I3
aI0
asg20
I3
sg21
g30
sg23
I00
sba(iMAG
Car
p560
(dp561
g10
(lp562
I4
aI5
asg12
g34
sg14
(lp563
sg16
g17
sg18
(lp564
I4
aI4
asg20
I2
sg21
g342
sg23
I00
sba(iMAG
Car
p565
(dp566
g10
(lp567
I2
aI1
asg12
g41
sg14
(lp568
sg16
g17
sg18
(lp569
I2
aI0
asg20
I2
sg21
g44
sg23
I00
sba(iMAG
Car
p570
(dp571
g10
(lp572
I1
aI4
asg12
g48
sg14
(lp573
sg16
g17
sg18
(lp574
I0
aI4
asg20
I2
sg21
g178
sg23
I00
sba(iMAG
Car
p575
(dp576
g10
(lp577
I2
aI2
asg12
g55
sg14
(lp578
sg16
g17
sg18
(lp579
I1
aI2
asg20
I2
sg21
g58
sg23
I00
sba(iMAG
Car
p580
(dp581
g10
(lp582
I3
aI4
asg12
g62
sg14
(lp583
sg16
g17
sg18
(lp584
I2
aI4
asg20
I2
sg21
g246
sg23
I00
sba(iMAG
Car
p585
(dp586
g10
(lp587
I3
aI3
asg12
g69
sg14
(lp588
sg16
g17
sg18
(lp589
I1
aI3
asg20
I3
sg21
g126
(g127
(S'S1'
p590
I0
I1
tp591
Rp592
(I3
S'|'
p593
NNNI1
I1
I0
tp594
bg133
tp595
Rp596
sg23
I00
sba(iMAG
Car
p597
(dp598
g10
(lp599
I3
aI5
asg12
g76
sg14
(lp600
sg16
g17
sg18
(lp601
I1
aI5
asg20
I3
sg21
g486
sg23
I00
sbasg80
Nsg81
V..43..\u000a..43..\u000a1RR3..>\u000a1777..\u000a00552.\u000a.6662.\u000a
p602
sba(inode
Node
p603
(dp604
g3
Nsg4
(lp605
sg6
(lp606
(iMAG
Car
p607
(dp608
g10
(lp609
I0
aI3
asg12
g13
sg14
(lp610
sg16
g17
sg18
(lp611
I0
aI2
asg20
I2
sg21
g504
sg23
I00
sba(iMAG
Car
p612
(dp613
g10
(lp614
I3
aI2
asg12
g27
sg14
(lp615
sg16
g17
sg18
(lp616
I3
aI0
asg20
I3
sg21
g30
sg23
I00
sba(iMAG
Car
p617
(dp618
g10
(lp619
I4
aI1
asg12
g34
sg14
(lp620
sg16
g17
sg18
(lp621
I4
aI0
asg20
I2
sg21
g126
(g127
(S'S1'
p622
I0
I1
tp623
Rp624
(I3
S'|'
p625
NNNI1
I1
I0
tp626
bg340
tp627
Rp628
sg23
I00
sba(iMAG
Car
p629
(dp630
g10
(lp631
I2
aI1
asg12
g41
sg14
(lp632
sg16
g17
sg18
(lp633
I2
aI0
asg20
I2
sg21
g44
sg23
I00
sba(iMAG
Car
p634
(dp635
g10
(lp636
I1
aI4
asg12
g48
sg14
(lp637
sg16
g17
sg18
(lp638
I0
aI4
asg20
I2
sg21
g178
sg23
I00
sba(iMAG
Car
p639
(dp640
g10
(lp641
I2
aI2
asg12
g55
sg14
(lp642
sg16
g17
sg18
(lp643
I1
aI2
asg20
I2
sg21
g58
sg23
I00
sba(iMAG
Car
p644
(dp645
g10
(lp646
I3
aI4
asg12
g62
sg14
(lp647
sg16
g17
sg18
(lp648
I2
aI4
asg20
I2
sg21
g246
sg23
I00
sba(iMAG
Car
p649
(dp650
g10
(lp651
I3
aI3
asg12
g69
sg14
(lp652
sg16
g17
sg18
(lp653
I1
aI3
asg20
I3
sg21
g596
sg23
I00
sba(iMAG
Car
p654
(dp655
g10
(lp656
I3
aI5
asg12
g76
sg14
(lp657
sg16
g17
sg18
(lp658
I1
aI5
asg20
I3
sg21
g486
sg23
I00
sbasg80
Nsg81
V..432.\u000a..432.\u000a1RR3..>\u000a1777..\u000a0055..\u000a.666..\u000a
p659
sba(inode
Node
p660
(dp661
g3
Nsg4
(lp662
sg6
(lp663
(iMAG
Car
p664
(dp665
g10
(lp666
I0
aI3
asg12
g13
sg14
(lp667
sg16
g17
sg18
(lp668
I0
aI2
asg20
I2
sg21
g504
sg23
I00
sba(iMAG
Car
p669
(dp670
g10
(lp671
I3
aI2
asg12
g27
sg14
(lp672
sg16
g17
sg18
(lp673
I3
aI0
asg20
I3
sg21
g30
sg23
I00
sba(iMAG
Car
p674
(dp675
g10
(lp676
I4
aI1
asg12
g34
sg14
(lp677
sg16
g17
sg18
(lp678
I4
aI0
asg20
I2
sg21
g628
sg23
I00
sba(iMAG
Car
p679
(dp680
g10
(lp681
I2
aI1
asg12
g41
sg14
(lp682
sg16
g17
sg18
(lp683
I2
aI0
asg20
I2
sg21
g44
sg23
I00
sba(iMAG
Car
p684
(dp685
g10
(lp686
I1
aI4
asg12
g48
sg14
(lp687
sg16
g17
sg18
(lp688
I0
aI4
asg20
I2
sg21
g178
sg23
I00
sba(iMAG
Car
p689
(dp690
g10
(lp691
I2
aI2
asg12
g55
sg14
(lp692
sg16
g17
sg18
(lp693
I1
aI2
asg20
I2
sg21
g58
sg23
I00
sba(iMAG
Car
p694
(dp695
g10
(lp696
I3
aI4
asg12
g62
sg14
(lp697
sg16
g17
sg18
(lp698
I2
aI4
asg20
I2
sg21
g246
sg23
I00
sba(iMAG
Car
p699
(dp700
g10
(lp701
I3
aI3
asg12
g69
sg14
(lp702
sg16
g17
sg18
(lp703
I1
aI3
asg20
I3
sg21
g596
sg23
I00
sba(iMAG
Car
p704
(dp705
g10
(lp706
I5
aI5
asg12
g76
sg14
(lp707
sg16
g17
sg18
(lp708
I3
aI5
asg20
I3
sg21
g126
(g127
(S'S1'
p709
I0
I1
tp710
Rp711
(I3
S'|'
p712
NNNI1
I1
I0
tp713
bg312
tp714
Rp715
sg23
I00
sbasg80
Nsg81
V..432.\u000a..432.\u000a1RR3..>\u000a1777..\u000a0055..\u000a...666\u000a
p716
sba(inode
Node
p717
(dp718
g3
Nsg4
(lp719
sg6
(lp720
(iMAG
Car
p721
(dp722
g10
(lp723
I0
aI3
asg12
g13
sg14
(lp724
sg16
g17
sg18
(lp725
I0
aI2
asg20
I2
sg21
g504
sg23
I00
sba(iMAG
Car
p726
(dp727
g10
(lp728
I3
aI2
asg12
g27
sg14
(lp729
sg16
g17
sg18
(lp730
I3
aI0
asg20
I3
sg21
g30
sg23
I00
sba(iMAG
Car
p731
(dp732
g10
(lp733
I4
aI1
asg12
g34
sg14
(lp734
sg16
g17
sg18
(lp735
I4
aI0
asg20
I2
sg21
g628
sg23
I00
sba(iMAG
Car
p736
(dp737
g10
(lp738
I2
aI1
asg12
g41
sg14
(lp739
sg16
g17
sg18
(lp740
I2
aI0
asg20
I2
sg21
g44
sg23
I00
sba(iMAG
Car
p741
(dp742
g10
(lp743
I1
aI4
asg12
g48
sg14
(lp744
sg16
g17
sg18
(lp745
I0
aI4
asg20
I2
sg21
g178
sg23
I00
sba(iMAG
Car
p746
(dp747
g10
(lp748
I2
aI2
asg12
g55
sg14
(lp749
sg16
g17
sg18
(lp750
I1
aI2
asg20
I2
sg21
g58
sg23
I00
sba(iMAG
Car
p751
(dp752
g10
(lp753
I5
aI4
asg12
g62
sg14
(lp754
sg16
g17
sg18
(lp755
I4
aI4
asg20
I2
sg21
g126
(g127
(S'S1'
p756
I0
I1
tp757
Rp758
(I3
S'|'
p759
NNNI1
I1
I0
tp760
bg244
tp761
Rp762
sg23
I00
sba(iMAG
Car
p763
(dp764
g10
(lp765
I3
aI3
asg12
g69
sg14
(lp766
sg16
g17
sg18
(lp767
I1
aI3
asg20
I3
sg21
g596
sg23
I00
sba(iMAG
Car
p768
(dp769
g10
(lp770
I5
aI5
asg12
g76
sg14
(lp771
sg16
g17
sg18
(lp772
I3
aI5
asg20
I3
sg21
g715
sg23
I00
sbasg80
Nsg81
V..432.\u000a..432.\u000a1RR3..>\u000a1777..\u000a00..55\u000a...666\u000a
p773
sba(inode
Node
p774
(dp775
g3
Nsg4
(lp776
sg6
(lp777
(iMAG
Car
p778
(dp779
g10
(lp780
I0
aI1
asg12
g13
sg14
(lp781
sg16
g17
sg18
(lp782
I0
aI0
asg20
I2
sg21
g126
(g127
(S'S1'
p783
I0
I1
tp784
Rp785
(I3
S'|'
p786
NNNI1
I1
I0
tp787
bg502
tp788
Rp789
sg23
I00
sba(iMAG
Car
p790
(dp791
g10
(lp792
I3
aI2
asg12
g27
sg14
(lp793
sg16
g17
sg18
(lp794
I3
aI0
asg20
I3
sg21
g30
sg23
I00
sba(iMAG
Car
p795
(dp796
g10
(lp797
I4
aI1
asg12
g34
sg14
(lp798
sg16
g17
sg18
(lp799
I4
aI0
asg20
I2
sg21
g628
sg23
I00
sba(iMAG
Car
p800
(dp801
g10
(lp802
I2
aI1
asg12
g41
sg14
(lp803
sg16
g17
sg18
(lp804
I2
aI0
asg20
I2
sg21
g44
sg23
I00
sba(iMAG
Car
p805
(dp806
g10
(lp807
I1
aI4
asg12
g48
sg14
(lp808
sg16
g17
sg18
(lp809
I0
aI4
asg20
I2
sg21
g178
sg23
I00
sba(iMAG
Car
p810
(dp811
g10
(lp812
I2
aI2
asg12
g55
sg14
(lp813
sg16
g17
sg18
(lp814
I1
aI2
asg20
I2
sg21
g58
sg23
I00
sba(iMAG
Car
p815
(dp816
g10
(lp817
I5
aI4
asg12
g62
sg14
(lp818
sg16
g17
sg18
(lp819
I4
aI4
asg20
I2
sg21
g762
sg23
I00
sba(iMAG
Car
p820
(dp821
g10
(lp822
I3
aI3
asg12
g69
sg14
(lp823
sg16
g17
sg18
(lp824
I1
aI3
asg20
I3
sg21
g596
sg23
I00
sba(iMAG
Car
p825
(dp826
g10
(lp827
I5
aI5
asg12
g76
sg14
(lp828
sg16
g17
sg18
(lp829
I3
aI5
asg20
I3
sg21
g715
sg23
I00
sbasg80
Nsg81
V1.432.\u000a1.432.\u000a.RR3..>\u000a.777..\u000a00..55\u000a...666\u000a
p830
sba(inode
Node
p831
(dp832
g3
Nsg4
(lp833
sg6
(lp834
(iMAG
Car
p835
(dp836
g10
(lp837
I0
aI1
asg12
g13
sg14
(lp838
sg16
g17
sg18
(lp839
I0
aI0
asg20
I2
sg21
g789
sg23
I00
sba(iMAG
Car
p840
(dp841
g10
(lp842
I3
aI2
asg12
g27
sg14
(lp843
sg16
g17
sg18
(lp844
I3
aI0
asg20
I3
sg21
g30
sg23
I00
sba(iMAG
Car
p845
(dp846
g10
(lp847
I4
aI1
asg12
g34
sg14
(lp848
sg16
g17
sg18
(lp849
I4
aI0
asg20
I2
sg21
g628
sg23
I00
sba(iMAG
Car
p850
(dp851
g10
(lp852
I2
aI1
asg12
g41
sg14
(lp853
sg16
g17
sg18
(lp854
I2
aI0
asg20
I2
sg21
g44
sg23
I00
sba(iMAG
Car
p855
(dp856
g10
(lp857
I1
aI4
asg12
g48
sg14
(lp858
sg16
g17
sg18
(lp859
I0
aI4
asg20
I2
sg21
g178
sg23
I00
sba(iMAG
Car
p860
(dp861
g10
(lp862
I2
aI2
asg12
g55
sg14
(lp863
sg16
g17
sg18
(lp864
I1
aI2
asg20
I2
sg21
g58
sg23
I00
sba(iMAG
Car
p865
(dp866
g10
(lp867
I5
aI4
asg12
g62
sg14
(lp868
sg16
g17
sg18
(lp869
I4
aI4
asg20
I2
sg21
g762
sg23
I00
sba(iMAG
Car
p870
(dp871
g10
(lp872
I2
aI3
asg12
g69
sg14
(lp873
sg16
g17
sg18
(lp874
I0
aI3
asg20
I3
sg21
g126
(g127
(S'S1'
p875
I0
I1
tp876
Rp877
(I3
S'|'
p878
NNNI1
I1
I0
tp879
bg133
tp880
Rp881
sg23
I00
sba(iMAG
Car
p882
(dp883
g10
(lp884
I5
aI5
asg12
g76
sg14
(lp885
sg16
g17
sg18
(lp886
I3
aI5
asg20
I3
sg21
g715
sg23
I00
sbasg80
Nsg81
V1.432.\u000a1.432.\u000a.RR3..>\u000a777...\u000a00..55\u000a...666\u000a
p887
sba(inode
Node
p888
(dp889
g3
Nsg4
(lp890
sg6
(lp891
(iMAG
Car
p892
(dp893
g10
(lp894
I0
aI1
asg12
g13
sg14
(lp895
sg16
g17
sg18
(lp896
I0
aI0
asg20
I2
sg21
g789
sg23
I00
sba(iMAG
Car
p897
(dp898
g10
(lp899
I3
aI4
asg12
g27
sg14
(lp900
sg16
g17
sg18
(lp901
I3
aI2
asg20
I3
sg21
g126
(g127
(S'S1'
p902
I0
I1
tp903
Rp904
(I3
S'|'
p905
NNNI1
I1
I0
tp906
bS'3'
p907
tp908
Rp909
sg23
I00
sba(iMAG
Car
p910
(dp911
g10
(lp912
I4
aI1
asg12
g34
sg14
(lp913
sg16
g17
sg18
(lp914
I4
aI0
asg20
I2
sg21
g628
sg23
I00
sba(iMAG
Car
p915
(dp916
g10
(lp917
I2
aI1
asg12
g41
sg14
(lp918
sg16
g17
sg18
(lp919
I2
aI0
asg20
I2
sg21
g44
sg23
I00
sba(iMAG
Car
p920
(dp921
g10
(lp922
I1
aI4
asg12
g48
sg14
(lp923
sg16
g17
sg18
(lp924
I0
aI4
asg20
I2
sg21
g178
sg23
I00
sba(iMAG
Car
p925
(dp926
g10
(lp927
I2
aI2
asg12
g55
sg14
(lp928
sg16
g17
sg18
(lp929
I1
aI2
asg20
I2
sg21
g58
sg23
I00
sba(iMAG
Car
p930
(dp931
g10
(lp932
I5
aI4
asg12
g62
sg14
(lp933
sg16
g17
sg18
(lp934
I4
aI4
asg20
I2
sg21
g762
sg23
I00
sba(iMAG
Car
p935
(dp936
g10
(lp937
I2
aI3
asg12
g69
sg14
(lp938
sg16
g17
sg18
(lp939
I0
aI3
asg20
I3
sg21
g881
sg23
I00
sba(iMAG
Car
p940
(dp941
g10
(lp942
I5
aI5
asg12
g76
sg14
(lp943
sg16
g17
sg18
(lp944
I3
aI5
asg20
I3
sg21
g715
sg23
I00
sbasg80
Nsg81
V1.4.2.\u000a1.4.2.\u000a.RR3..>\u000a7773..\u000a00.355\u000a...666\u000a
p945
sba(inode
Node
p946
(dp947
g3
Nsg4
(lp948
sg6
(lp949
(iMAG
Car
p950
(dp951
g10
(lp952
I0
aI1
asg12
g13
sg14
(lp953
sg16
g17
sg18
(lp954
I0
aI0
asg20
I2
sg21
g789
sg23
I00
sba(iMAG
Car
p955
(dp956
g10
(lp957
I3
aI4
asg12
g27
sg14
(lp958
sg16
g17
sg18
(lp959
I3
aI2
asg20
I3
sg21
g909
sg23
I00
sba(iMAG
Car
p960
(dp961
g10
(lp962
I4
aI1
asg12
g34
sg14
(lp963
sg16
g17
sg18
(lp964
I4
aI0
asg20
I2
sg21
g628
sg23
I00
sba(iMAG
Car
p965
(dp966
g10
(lp967
I2
aI1
asg12
g41
sg14
(lp968
sg16
g17
sg18
(lp969
I2
aI0
asg20
I2
sg21
g44
sg23
I00
sba(iMAG
Car
p970
(dp971
g10
(lp972
I1
aI4
asg12
g48
sg14
(lp973
sg16
g17
sg18
(lp974
I0
aI4
asg20
I2
sg21
g178
sg23
I00
sba(iMAG
Car
p975
(dp976
g10
(lp977
I2
aI2
asg12
g55
sg14
(lp978
sg16
g17
sg18
(lp979
I1
aI2
asg20
I2
sg21
g58
sg23
I00
sba(iMAG
Car
p980
(dp981
g10
(lp982
I5
aI4
asg12
g62
sg14
(lp983
sg16
g17
sg18
(lp984
I4
aI4
asg20
I2
sg21
g762
sg23
I00
sba(iMAG
Car
p985
(dp986
g10
(lp987
I2
aI3
asg12
g69
sg14
(lp988
sg16
g17
sg18
(lp989
I0
aI3
asg20
I3
sg21
g881
sg23
I00
sba(iMAG
Car
p990
(dp991
g10
(lp992
I2
aI5
asg12
g76
sg14
(lp993
sg16
g17
sg18
(lp994
I0
aI5
asg20
I3
sg21
g126
(g127
(S'S1'
p995
I0
I1
tp996
Rp997
(I3
S'|'
p998
NNNI1
I1
I0
tp999
bg312
tp1000
Rp1001
sg23
I00
sbasg80
Nsg81
V1.4.2.\u000a1.4.2.\u000a.RR3..>\u000a7773..\u000a00.355\u000a666...\u000a
p1002
sba(inode
Node
p1003
(dp1004
g3
Nsg4
(lp1005
sg6
(lp1006
(iMAG
Car
p1007
(dp1008
g10
(lp1009
I0
aI1
asg12
g13
sg14
(lp1010
sg16
g17
sg18
(lp1011
I0
aI0
asg20
I2
sg21
g789
sg23
I00
sba(iMAG
Car
p1012
(dp1013
g10
(lp1014
I3
aI5
asg12
g27
sg14
(lp1015
sg16
g17
sg18
(lp1016
I3
aI3
asg20
I3
sg21
g126
(g127
(S'S1'
p1017
I0
I1
tp1018
Rp1019
(I3
S'|'
p1020
NNNI1
I1
I0
tp1021
bg907
tp1022
Rp1023
sg23
I00
sba(iMAG
Car
p1024
(dp1025
g10
(lp1026
I4
aI1
asg12
g34
sg14
(lp1027
sg16
g17
sg18
(lp1028
I4
aI0
asg20
I2
sg21
g628
sg23
I00
sba(iMAG
Car
p1029
(dp1030
g10
(lp1031
I2
aI1
asg12
g41
sg14
(lp1032
sg16
g17
sg18
(lp1033
I2
aI0
asg20
I2
sg21
g44
sg23
I00
sba(iMAG
Car
p1034
(dp1035
g10
(lp1036
I1
aI4
asg12
g48
sg14
(lp1037
sg16
g17
sg18
(lp1038
I0
aI4
asg20
I2
sg21
g178
sg23
I00
sba(iMAG
Car
p1039
(dp1040
g10
(lp1041
I2
aI2
asg12
g55
sg14
(lp1042
sg16
g17
sg18
(lp1043
I1
aI2
asg20
I2
sg21
g58
sg23
I00
sba(iMAG
Car
p1044
(dp1045
g10
(lp1046
I5
aI4
asg12
g62
sg14
(lp1047
sg16
g17
sg18
(lp1048
I4
aI4
asg20
I2
sg21
g762
sg23
I00
sba(iMAG
Car
p1049
(dp1050
g10
(lp1051
I2
aI3
asg12
g69
sg14
(lp1052
sg16
g17
sg18
(lp1053
I0
aI3
asg20
I3
sg21
g881
sg23
I00
sba(iMAG
Car
p1054
(dp1055
g10
(lp1056
I2
aI5
asg12
g76
sg14
(lp1057
sg16
g17
sg18
(lp1058
I0
aI5
asg20
I3
sg21
g1001
sg23
I00
sbasg80
Nsg81
V1.4.2.\u000a1.4.2.\u000a.RR...>\u000a7773..\u000a00.355\u000a6663..\u000a
p1059
sba(inode
Node
p1060
(dp1061
g3
Nsg4
(lp1062
sg6
(lp1063
(iMAG
Car
p1064
(dp1065
g10
(lp1066
I0
aI4
asg12
Vvertical
p1067
sg14
(lp1068
sg16
Vprb38725
p1069
sg18
(lp1070
I0
aI3
asg20
I2
sg21
V1
p1071
sg23
I00
sba(iMAG
Car
p1072
(dp1073
g10
(lp1074
I3
aI4
asg12
Vvertical
p1075
sg14
(lp1076
sg16
g1069
sg18
(lp1077
I3
aI2
asg20
I3
sg21
V0
p1078
sg23
I00
sba(iMAG
Car
p1079
(dp1080
g10
(lp1081
I5
aI3
asg12
Vvertical
p1082
sg14
(lp1083
sg16
g1069
sg18
(lp1084
I5
aI1
asg20
I3
sg21
V3
p1085
sg23
I00
sba(iMAG
Car
p1086
(dp1087
g10
(lp1088
I2
aI3
asg12
Vvertical
p1089
sg14
(lp1090
sg16
g1069
sg18
(lp1091
I2
aI1
asg20
I3
sg21
V5
p1092
sg23
I00
sba(iMAG
Car
p1093
(dp1094
g10
(lp1095
I2
aI4
asg12
Vhorizontal
p1096
sg14
(lp1097
sg16
g1069
sg18
(lp1098
I1
aI4
asg20
I2
sg21
V2
p1099
sg23
I00
sba(iMAG
Car
p1100
(dp1101
g10
(lp1102
I1
aI2
asg12
Vhorizontal
p1103
sg14
(lp1104
sg16
g1069
sg18
(lp1105
I0
aI2
asg20
I2
sg21
Vr
p1106
sg23
I00
sba(iMAG
Car
p1107
(dp1108
g10
(lp1109
I2
aI0
asg12
Vhorizontal
p1110
sg14
(lp1111
sg16
g1069
sg18
(lp1112
I1
aI0
asg20
I2
sg21
V4
p1113
sg23
I00
sba(iMAG
Car
p1114
(dp1115
g10
(lp1116
I5
aI0
asg12
Vhorizontal
p1117
sg14
(lp1118
sg16
g1069
sg18
(lp1119
I4
aI0
asg20
I2
sg21
V7
p1120
sg23
I00
sba(iMAG
Car
p1121
(dp1122
g10
(lp1123
I4
aI5
asg12
Vhorizontal
p1124
sg14
(lp1125
sg16
g1069
sg18
(lp1126
I3
aI5
asg20
I2
sg21
V6
p1127
sg23
I00
sbasg80
Nsg81
Nsba(inode
Node
p1128
(dp1129
g3
Nsg4
(lp1130
sg6
(lp1131
(iMAG
Car
p1132
(dp1133
g10
(lp1134
I0
aI4
asg12
g1067
sg14
(lp1135
sg16
g1069
sg18
(lp1136
I0
aI3
asg20
I2
sg21
g1071
sg23
I00
sba(iMAG
Car
p1137
(dp1138
g10
(lp1139
I3
aI4
asg12
g1075
sg14
(lp1140
sg16
g1069
sg18
(lp1141
I3
aI2
asg20
I3
sg21
g1078
sg23
I00
sba(iMAG
Car
p1142
(dp1143
g10
(lp1144
I5
aI3
asg12
g1082
sg14
(lp1145
sg16
g1069
sg18
(lp1146
I5
aI1
asg20
I3
sg21
g1085
sg23
I00
sba(iMAG
Car
p1147
(dp1148
g10
(lp1149
I2
aI3
asg12
g1089
sg14
(lp1150
sg16
g1069
sg18
(lp1151
I2
aI1
asg20
I3
sg21
g1092
sg23
I00
sba(iMAG
Car
p1152
(dp1153
g10
(lp1154
I2
aI4
asg12
g1096
sg14
(lp1155
sg16
g1069
sg18
(lp1156
I1
aI4
asg20
I2
sg21
g1099
sg23
I00
sba(iMAG
Car
p1157
(dp1158
g10
(lp1159
I1
aI2
asg12
g1103
sg14
(lp1160
sg16
g1069
sg18
(lp1161
I0
aI2
asg20
I2
sg21
g1106
sg23
I00
sba(iMAG
Car
p1162
(dp1163
g10
(lp1164
I2
aI0
asg12
g1110
sg14
(lp1165
sg16
g1069
sg18
(lp1166
I1
aI0
asg20
I2
sg21
g1113
sg23
I00
sba(iMAG
Car
p1167
(dp1168
g10
(lp1169
I5
aI0
asg12
g1117
sg14
(lp1170
sg16
g1069
sg18
(lp1171
I4
aI0
asg20
I2
sg21
g1120
sg23
I00
sba(iMAG
Car
p1172
(dp1173
g10
(lp1174
I1
aI5
asg12
g1124
sg14
(lp1175
sg16
g1069
sg18
(lp1176
I0
aI5
asg20
I2
sg21
g126
(g127
(S'S1'
p1177
I0
I1
tp1178
Rp1179
(I3
S'|'
p1180
NNNI1
I1
I0
tp1181
bg312
tp1182
Rp1183
sg23
I00
sbasg80
Nsg81
V.44.77\u000a..5..3\u000aRR50.3>\u000a1.50.3\u000a1220..\u000a66....\u000a
p1184
sba(inode
Node
p1185
(dp1186
g3
Nsg4
(lp1187
sg6
(lp1188
(iMAG
Car
p1189
(dp1190
g10
(lp1191
I0
aI4
asg12
g1067
sg14
(lp1192
sg16
g1069
sg18
(lp1193
I0
aI3
asg20
I2
sg21
g1071
sg23
I00
sba(iMAG
Car
p1194
(dp1195
g10
(lp1196
I3
aI3
asg12
g1075
sg14
(lp1197
sg16
g1069
sg18
(lp1198
I3
aI1
asg20
I3
sg21
g126
(g127
(S'S1'
p1199
I0
I1
tp1200
Rp1201
(I3
S'|'
p1202
NNNI1
I1
I0
tp1203
bg176
tp1204
Rp1205
sg23
I00
sba(iMAG
Car
p1206
(dp1207
g10
(lp1208
I5
aI3
asg12
g1082
sg14
(lp1209
sg16
g1069
sg18
(lp1210
I5
aI1
asg20
I3
sg21
g1085
sg23
I00
sba(iMAG
Car
p1211
(dp1212
g10
(lp1213
I2
aI3
asg12
g1089
sg14
(lp1214
sg16
g1069
sg18
(lp1215
I2
aI1
asg20
I3
sg21
g1092
sg23
I00
sba(iMAG
Car
p1216
(dp1217
g10
(lp1218
I2
aI4
asg12
g1096
sg14
(lp1219
sg16
g1069
sg18
(lp1220
I1
aI4
asg20
I2
sg21
g1099
sg23
I00
sba(iMAG
Car
p1221
(dp1222
g10
(lp1223
I1
aI2
asg12
g1103
sg14
(lp1224
sg16
g1069
sg18
(lp1225
I0
aI2
asg20
I2
sg21
g1106
sg23
I00
sba(iMAG
Car
p1226
(dp1227
g10
(lp1228
I2
aI0
asg12
g1110
sg14
(lp1229
sg16
g1069
sg18
(lp1230
I1
aI0
asg20
I2
sg21
g1113
sg23
I00
sba(iMAG
Car
p1231
(dp1232
g10
(lp1233
I5
aI0
asg12
g1117
sg14
(lp1234
sg16
g1069
sg18
(lp1235
I4
aI0
asg20
I2
sg21
g1120
sg23
I00
sba(iMAG
Car
p1236
(dp1237
g10
(lp1238
I1
aI5
asg12
g1124
sg14
(lp1239
sg16
g1069
sg18
(lp1240
I0
aI5
asg20
I2
sg21
g1183
sg23
I00
sbasg80
Nsg81
V.44.77\u000a..50.3\u000aRR50.3>\u000a1.50.3\u000a122...\u000a66....\u000a
p1241
sba(inode
Node
p1242
(dp1243
g3
Nsg4
(lp1244
sg6
(lp1245
(iMAG
Car
p1246
(dp1247
g10
(lp1248
I0
aI4
asg12
g1067
sg14
(lp1249
sg16
g1069
sg18
(lp1250
I0
aI3
asg20
I2
sg21
g1071
sg23
I00
sba(iMAG
Car
p1251
(dp1252
g10
(lp1253
I3
aI3
asg12
g1075
sg14
(lp1254
sg16
g1069
sg18
(lp1255
I3
aI1
asg20
I3
sg21
g1205
sg23
I00
sba(iMAG
Car
p1256
(dp1257
g10
(lp1258
I5
aI3
asg12
g1082
sg14
(lp1259
sg16
g1069
sg18
(lp1260
I5
aI1
asg20
I3
sg21
g1085
sg23
I00
sba(iMAG
Car
p1261
(dp1262
g10
(lp1263
I2
aI3
asg12
g1089
sg14
(lp1264
sg16
g1069
sg18
(lp1265
I2
aI1
asg20
I3
sg21
g1092
sg23
I00
sba(iMAG
Car
p1266
(dp1267
g10
(lp1268
I5
aI4
asg12
g1096
sg14
(lp1269
sg16
g1069
sg18
(lp1270
I4
aI4
asg20
I2
sg21
g126
(g127
(S'S1'
p1271
I0
I1
tp1272
Rp1273
(I3
S'|'
p1274
NNNI1
I1
I0
tp1275
bg340
tp1276
Rp1277
sg23
I00
sba(iMAG
Car
p1278
(dp1279
g10
(lp1280
I1
aI2
asg12
g1103
sg14
(lp1281
sg16
g1069
sg18
(lp1282
I0
aI2
asg20
I2
sg21
g1106
sg23
I00
sba(iMAG
Car
p1283
(dp1284
g10
(lp1285
I2
aI0
asg12
g1110
sg14
(lp1286
sg16
g1069
sg18
(lp1287
I1
aI0
asg20
I2
sg21
g1113
sg23
I00
sba(iMAG
Car
p1288
(dp1289
g10
(lp1290
I5
aI0
asg12
g1117
sg14
(lp1291
sg16
g1069
sg18
(lp1292
I4
aI0
asg20
I2
sg21
g1120
sg23
I00
sba(iMAG
Car
p1293
(dp1294
g10
(lp1295
I1
aI5
asg12
g1124
sg14
(lp1296
sg16
g1069
sg18
(lp1297
I0
aI5
asg20
I2
sg21
g1183
sg23
I00
sbasg80
Nsg81
V.44.77\u000a..50.3\u000aRR50.3>\u000a1.50.3\u000a1...22\u000a66....\u000a
p1298
sba(inode
Node
p1299
(dp1300
g3
Nsg4
(lp1301
sg6
(lp1302
(iMAG
Car
p1303
(dp1304
g10
(lp1305
I0
aI4
asg12
g1067
sg14
(lp1306
sg16
g1069
sg18
(lp1307
I0
aI3
asg20
I2
sg21
g1071
sg23
I00
sba(iMAG
Car
p1308
(dp1309
g10
(lp1310
I3
aI3
asg12
g1075
sg14
(lp1311
sg16
g1069
sg18
(lp1312
I3
aI1
asg20
I3
sg21
g1205
sg23
I00
sba(iMAG
Car
p1313
(dp1314
g10
(lp1315
I5
aI3
asg12
g1082
sg14
(lp1316
sg16
g1069
sg18
(lp1317
I5
aI1
asg20
I3
sg21
g1085
sg23
I00
sba(iMAG
Car
p1318
(dp1319
g10
(lp1320
I2
aI5
asg12
g1089
sg14
(lp1321
sg16
g1069
sg18
(lp1322
I2
aI3
asg20
I3
sg21
g126
(g127
(S'S1'
p1323
I0
I1
tp1324
Rp1325
(I3
S'|'
p1326
NNNI1
I1
I0
tp1327
bg244
tp1328
Rp1329
sg23
I00
sba(iMAG
Car
p1330
(dp1331
g10
(lp1332
I5
aI4
asg12
g1096
sg14
(lp1333
sg16
g1069
sg18
(lp1334
I4
aI4
asg20
I2
sg21
g1277
sg23
I00
sba(iMAG
Car
p1335
(dp1336
g10
(lp1337
I1
aI2
asg12
g1103
sg14
(lp1338
sg16
g1069
sg18
(lp1339
I0
aI2
asg20
I2
sg21
g1106
sg23
I00
sba(iMAG
Car
p1340
(dp1341
g10
(lp1342
I2
aI0
asg12
g1110
sg14
(lp1343
sg16
g1069
sg18
(lp1344
I1
aI0
asg20
I2
sg21
g1113
sg23
I00
sba(iMAG
Car
p1345
(dp1346
g10
(lp1347
I5
aI0
asg12
g1117
sg14
(lp1348
sg16
g1069
sg18
(lp1349
I4
aI0
asg20
I2
sg21
g1120
sg23
I00
sba(iMAG
Car
p1350
(dp1351
g10
(lp1352
I1
aI5
asg12
g1124
sg14
(lp1353
sg16
g1069
sg18
(lp1354
I0
aI5
asg20
I2
sg21
g1183
sg23
I00
sbasg80
Nsg81
V.44.77\u000a...0.3\u000aRR.0.3>\u000a1.50.3\u000a1.5.22\u000a665...\u000a
p1355
sba(inode
Node
p1356
(dp1357
g3
Nsg4
(lp1358
sg6
(lp1359
(iMAG
Car
p1360
(dp1361
g10
(lp1362
I0
aI4
asg12
g1067
sg14
(lp1363
sg16
g1069
sg18
(lp1364
I0
aI3
asg20
I2
sg21
g1071
sg23
I00
sba(iMAG
Car
p1365
(dp1366
g10
(lp1367
I3
aI5
asg12
g1075
sg14
(lp1368
sg16
g1069
sg18
(lp1369
I3
aI3
asg20
I3
sg21
g126
(g127
(S'S1'
p1370
I0
I1
tp1371
Rp1372
(I3
S'|'
p1373
NNNI1
I1
I0
tp1374
bg176
tp1375
Rp1376
sg23
I00
sba(iMAG
Car
p1377
(dp1378
g10
(lp1379
I5
aI3
asg12
g1082
sg14
(lp1380
sg16
g1069
sg18
(lp1381
I5
aI1
asg20
I3
sg21
g1085
sg23
I00
sba(iMAG
Car
p1382
(dp1383
g10
(lp1384
I2
aI5
asg12
g1089
sg14
(lp1385
sg16
g1069
sg18
(lp1386
I2
aI3
asg20
I3
sg21
g1329
sg23
I00
sba(iMAG
Car
p1387
(dp1388
g10
(lp1389
I5
aI4
asg12
g1096
sg14
(lp1390
sg16
g1069
sg18
(lp1391
I4
aI4
asg20
I2
sg21
g1277
sg23
I00
sba(iMAG
Car
p1392
(dp1393
g10
(lp1394
I1
aI2
asg12
g1103
sg14
(lp1395
sg16
g1069
sg18
(lp1396
I0
aI2
asg20
I2
sg21
g1106
sg23
I00
sba(iMAG
Car
p1397
(dp1398
g10
(lp1399
I2
aI0
asg12
g1110
sg14
(lp1400
sg16
g1069
sg18
(lp1401
I1
aI0
asg20
I2
sg21
g1113
sg23
I00
sba(iMAG
Car
p1402
(dp1403
g10
(lp1404
I5
aI0
asg12
g1117
sg14
(lp1405
sg16
g1069
sg18
(lp1406
I4
aI0
asg20
I2
sg21
g1120
sg23
I00
sba(iMAG
Car
p1407
(dp1408
g10
(lp1409
I1
aI5
asg12
g1124
sg14
(lp1410
sg16
g1069
sg18
(lp1411
I0
aI5
asg20
I2
sg21
g1183
sg23
I00
sbasg80
Nsg81
V.44.77\u000a.....3\u000aRR...3>\u000a1.50.3\u000a1.5022\u000a6650..\u000a
p1412
sba(inode
Node
p1413
(dp1414
g3
Nsg4
(lp1415
sg6
(lp1416
(iMAG
Car
p1417
(dp1418
g10
(lp1419
I0
aI4
asg12
g1067
sg14
(lp1420
sg16
g1069
sg18
(lp1421
I0
aI3
asg20
I2
sg21
g1071
sg23
I00
sba(iMAG
Car
p1422
(dp1423
g10
(lp1424
I3
aI5
asg12
g1075
sg14
(lp1425
sg16
g1069
sg18
(lp1426
I3
aI3
asg20
I3
sg21
g1376
sg23
I00
sba(iMAG
Car
p1427
(dp1428
g10
(lp1429
I5
aI3
asg12
g1082
sg14
(lp1430
sg16
g1069
sg18
(lp1431
I5
aI1
asg20
I3
sg21
g1085
sg23
I00
sba(iMAG
Car
p1432
(dp1433
g10
(lp1434
I2
aI5
asg12
g1089
sg14
(lp1435
sg16
g1069
sg18
(lp1436
I2
aI3
asg20
I3
sg21
g1329
sg23
I00
sba(iMAG
Car
p1437
(dp1438
g10
(lp1439
I5
aI4
asg12
g1096
sg14
(lp1440
sg16
g1069
sg18
(lp1441
I4
aI4
asg20
I2
sg21
g1277
sg23
I00
sba(iMAG
Car
p1442
(dp1443
g10
(lp1444
I1
aI2
asg12
g1103
sg14
(lp1445
sg16
g1069
sg18
(lp1446
I0
aI2
asg20
I2
sg21
g1106
sg23
I00
sba(iMAG
Car
p1447
(dp1448
g10
(lp1449
I1
aI0
asg12
g1110
sg14
(lp1450
sg16
g1069
sg18
(lp1451
I0
aI0
asg20
I2
sg21
g126
(g127
(S'S1'
p1452
I0
I1
tp1453
Rp1454
(I3
S'|'
p1455
NNNI1
I1
I0
tp1456
bS'4'
p1457
tp1458
Rp1459
sg23
I00
sba(iMAG
Car
p1460
(dp1461
g10
(lp1462
I5
aI0
asg12
g1117
sg14
(lp1463
sg16
g1069
sg18
(lp1464
I4
aI0
asg20
I2
sg21
g1120
sg23
I00
sba(iMAG
Car
p1465
(dp1466
g10
(lp1467
I1
aI5
asg12
g1124
sg14
(lp1468
sg16
g1069
sg18
(lp1469
I0
aI5
asg20
I2
sg21
g1183
sg23
I00
sbasg80
Nsg81
V44..77\u000a.....3\u000aRR...3>\u000a1.50.3\u000a1.5022\u000a6650..\u000a
p1470
sba(inode
Node
p1471
(dp1472
g3
Nsg4
(lp1473
sg6
(lp1474
(iMAG
Car
p1475
(dp1476
g10
(lp1477
I0
aI4
asg12
g1067
sg14
(lp1478
sg16
g1069
sg18
(lp1479
I0
aI3
asg20
I2
sg21
g1071
sg23
I00
sba(iMAG
Car
p1480
(dp1481
g10
(lp1482
I3
aI5
asg12
g1075
sg14
(lp1483
sg16
g1069
sg18
(lp1484
I3
aI3
asg20
I3
sg21
g1376
sg23
I00
sba(iMAG
Car
p1485
(dp1486
g10
(lp1487
I5
aI3
asg12
g1082
sg14
(lp1488
sg16
g1069
sg18
(lp1489
I5
aI1
asg20
I3
sg21
g1085
sg23
I00
sba(iMAG
Car
p1490
(dp1491
g10
(lp1492
I2
aI5
asg12
g1089
sg14
(lp1493
sg16
g1069
sg18
(lp1494
I2
aI3
asg20
I3
sg21
g1329
sg23
I00
sba(iMAG
Car
p1495
(dp1496
g10
(lp1497
I5
aI4
asg12
g1096
sg14
(lp1498
sg16
g1069
sg18
(lp1499
I4
aI4
asg20
I2
sg21
g1277
sg23
I00
sba(iMAG
Car
p1500
(dp1501
g10
(lp1502
I1
aI2
asg12
g1103
sg14
(lp1503
sg16
g1069
sg18
(lp1504
I0
aI2
asg20
I2
sg21
g1106
sg23
I00
sba(iMAG
Car
p1505
(dp1506
g10
(lp1507
I1
aI0
asg12
g1110
sg14
(lp1508
sg16
g1069
sg18
(lp1509
I0
aI0
asg20
I2
sg21
g1459
sg23
I00
sba(iMAG
Car
p1510
(dp1511
g10
(lp1512
I3
aI0
asg12
g1117
sg14
(lp1513
sg16
g1069
sg18
(lp1514
I2
aI0
asg20
I2
sg21
g126
(g127
(S'S1'
p1515
I0
I1
tp1516
Rp1517
(I3
S'|'
p1518
NNNI1
I1
I0
tp1519
bg133
tp1520
Rp1521
sg23
I00
sba(iMAG
Car
p1522
(dp1523
g10
(lp1524
I1
aI5
asg12
g1124
sg14
(lp1525
sg16
g1069
sg18
(lp1526
I0
aI5
asg20
I2
sg21
g1183
sg23
I00
sbasg80
Nsg81
V4477..\u000a.....3\u000aRR...3>\u000a1.50.3\u000a1.5022\u000a6650..\u000a
p1527
sba(inode
Node
p1528
(dp1529
g3
Nsg4
(lp1530
sg6
(lp1531
(iMAG
Car
p1532
(dp1533
g10
(lp1534
I0
aI4
asg12
g1067
sg14
(lp1535
sg16
g1069
sg18
(lp1536
I0
aI3
asg20
I2
sg21
g1071
sg23
I00
sba(iMAG
Car
p1537
(dp1538
g10
(lp1539
I3
aI5
asg12
g1075
sg14
(lp1540
sg16
g1069
sg18
(lp1541
I3
aI3
asg20
I3
sg21
g1376
sg23
I00
sba(iMAG
Car
p1542
(dp1543
g10
(lp1544
I5
aI2
asg12
g1082
sg14
(lp1545
sg16
g1069
sg18
(lp1546
I5
aI0
asg20
I3
sg21
g126
(g127
(S'S1'
p1547
I0
I1
tp1548
Rp1549
(I3
S'|'
p1550
NNNI1
I1
I0
tp1551
bg907
tp1552
Rp1553
sg23
I00
sba(iMAG
Car
p1554
(dp1555
g10
(lp1556
I2
aI5
asg12
g1089
sg14
(lp1557
sg16
g1069
sg18
(lp1558
I2
aI3
asg20
I3
sg21
g1329
sg23
I00
sba(iMAG
Car
p1559
(dp1560
g10
(lp1561
I5
aI4
asg12
g1096
sg14
(lp1562
sg16
g1069
sg18
(lp1563
I4
aI4
asg20
I2
sg21
g1277
sg23
I00
sba(iMAG
Car
p1564
(dp1565
g10
(lp1566
I1
aI2
asg12
g1103
sg14
(lp1567
sg16
g1069
sg18
(lp1568
I0
aI2
asg20
I2
sg21
g1106
sg23
I00
sba(iMAG
Car
p1569
(dp1570
g10
(lp1571
I1
aI0
asg12
g1110
sg14
(lp1572
sg16
g1069
sg18
(lp1573
I0
aI0
asg20
I2
sg21
g1459
sg23
I00
sba(iMAG
Car
p1574
(dp1575
g10
(lp1576
I3
aI0
asg12
g1117
sg14
(lp1577
sg16
g1069
sg18
(lp1578
I2
aI0
asg20
I2
sg21
g1521
sg23
I00
sba(iMAG
Car
p1579
(dp1580
g10
(lp1581
I1
aI5
asg12
g1124
sg14
(lp1582
sg16
g1069
sg18
(lp1583
I0
aI5
asg20
I2
sg21
g1183
sg23
I00
sbasg80
Nsg81
V4477.3\u000a.....3\u000aRR...3>\u000a1.50..\u000a1.5022\u000a6650..\u000a
p1584
sba(inode
Node
p1585
(dp1586
g3
Nsg4
(lp1587
sg6
(lp1588
(iMAG
Car
p1589
(dp1590
g10
(lp1591
I0
aI4
asg12
g1067
sg14
(lp1592
sg16
g1069
sg18
(lp1593
I0
aI3
asg20
I2
sg21
g1071
sg23
I00
sba(iMAG
Car
p1594
(dp1595
g10
(lp1596
I3
aI5
asg12
g1075
sg14
(lp1597
sg16
g1069
sg18
(lp1598
I3
aI3
asg20
I3
sg21
g1376
sg23
I00
sba(iMAG
Car
p1599
(dp1600
g10
(lp1601
I5
aI2
asg12
g1082
sg14
(lp1602
sg16
g1069
sg18
(lp1603
I5
aI0
asg20
I3
sg21
g1553
sg23
I00
sba(iMAG
Car
p1604
(dp1605
g10
(lp1606
I2
aI5
asg12
g1089
sg14
(lp1607
sg16
g1069
sg18
(lp1608
I2
aI3
asg20
I3
sg21
g1329
sg23
I00
sba(iMAG
Car
p1609
(dp1610
g10
(lp1611
I5
aI4
asg12
g1096
sg14
(lp1612
sg16
g1069
sg18
(lp1613
I4
aI4
asg20
I2
sg21
g1277
sg23
I00
sba(iMAG
Car
p1614
(dp1615
g10
(lp1616
I4
aI2
asg12
g1103
sg14
(lp1617
sg16
g1069
sg18
(lp1618
I3
aI2
asg20
I2
sg21
g126
(g127
(S'S1'
p1619
I0
I1
tp1620
Rp1621
(I3
S'|'
p1622
NNNI1
I1
I0
tp1623
bS'r'
p1624
tp1625
Rp1626
sg23
I00
sba(iMAG
Car
p1627
(dp1628
g10
(lp1629
I1
aI0
asg12
g1110
sg14
(lp1630
sg16
g1069
sg18
(lp1631
I0
aI0
asg20
I2
sg21
g1459
sg23
I00
sba(iMAG
Car
p1632
(dp1633
g10
(lp1634
I3
aI0
asg12
g1117
sg14
(lp1635
sg16
g1069
sg18
(lp1636
I2
aI0
asg20
I2
sg21
g1521
sg23
I00
sba(iMAG
Car
p1637
(dp1638
g10
(lp1639
I1
aI5
asg12
g1124
sg14
(lp1640
sg16
g1069
sg18
(lp1641
I0
aI5
asg20
I2
sg21
g1183
sg23
I00
sbasg80
Nsg81
V4477.3\u000a.....3\u000a...RR3>\u000a1.50..\u000a1.5022\u000a6650..\u000a
p1642
sba(inode
Node
p1643
(dp1644
g3
Nsg4
(lp1645
sg6
(lp1646
(iMAG
Car
p1647
(dp1648
g10
(lp1649
I0
aI2
asg12
g1067
sg14
(lp1650
sg16
g1069
sg18
(lp1651
I0
aI1
asg20
I2
sg21
g126
(g127
(S'S1'
p1652
I0
I1
tp1653
Rp1654
(I3
S'|'
p1655
NNNI1
I1
I0
tp1656
bg502
tp1657
Rp1658
sg23
I00
sba(iMAG
Car
p1659
(dp1660
g10
(lp1661
I3
aI5
asg12
g1075
sg14
(lp1662
sg16
g1069
sg18
(lp1663
I3
aI3
asg20
I3
sg21
g1376
sg23
I00
sba(iMAG
Car
p1664
(dp1665
g10
(lp1666
I5
aI2
asg12
g1082
sg14
(lp1667
sg16
g1069
sg18
(lp1668
I5
aI0
asg20
I3
sg21
g1553
sg23
I00
sba(iMAG
Car
p1669
(dp1670
g10
(lp1671
I2
aI5
asg12
g1089
sg14
(lp1672
sg16
g1069
sg18
(lp1673
I2
aI3
asg20
I3
sg21
g1329
sg23
I00
sba(iMAG
Car
p1674
(dp1675
g10
(lp1676
I5
aI4
asg12
g1096
sg14
(lp1677
sg16
g1069
sg18
(lp1678
I4
aI4
asg20
I2
sg21
g1277
sg23
I00
sba(iMAG
Car
p1679
(dp1680
g10
(lp1681
I4
aI2
asg12
g1103
sg14
(lp1682
sg16
g1069
sg18
(lp1683
I3
aI2
asg20
I2
sg21
g1626
sg23
I00
sba(iMAG
Car
p1684
(dp1685
g10
(lp1686
I1
aI0
asg12
g1110
sg14
(lp1687
sg16
g1069
sg18
(lp1688
I0
aI0
asg20
I2
sg21
g1459
sg23
I00
sba(iMAG
Car
p1689
(dp1690
g10
(lp1691
I3
aI0
asg12
g1117
sg14
(lp1692
sg16
g1069
sg18
(lp1693
I2
aI0
asg20
I2
sg21
g1521
sg23
I00
sba(iMAG
Car
p1694
(dp1695
g10
(lp1696
I1
aI5
asg12
g1124
sg14
(lp1697
sg16
g1069
sg18
(lp1698
I0
aI5
asg20
I2
sg21
g1183
sg23
I00
sbasg80
Nsg81
S'4477.3\n1....3\n1..RR3>\n..50..\n..5022\n6650..\n'
p1699
sba(inode
Node
p1700
(dp1701
g3
Nsg4
(lp1702
sg6
(lp1703
(iMAG
Car
p1704
(dp1705
g10
(lp1706
I0
aI2
asg12
g1067
sg14
(lp1707
sg16
g1069
sg18
(lp1708
I0
aI1
asg20
I2
sg21
g1658
sg23
I00
sba(iMAG
Car
p1709
(dp1710
g10
(lp1711
I3
aI5
asg12
g1075
sg14
(lp1712
sg16
g1069
sg18
(lp1713
I3
aI3
asg20
I3
sg21
g1376
sg23
I00
sba(iMAG
Car
p1714
(dp1715
g10
(lp1716
I5
aI2
asg12
g1082
sg14
(lp1717
sg16
g1069
sg18
(lp1718
I5
aI0
asg20
I3
sg21
g1553
sg23
I00
sba(iMAG
Car
p1719
(dp1720
g10
(lp1721
I2
aI3
asg12
g1089
sg14
(lp1722
sg16
g1069
sg18
(lp1723
I2
aI1
asg20
I3
sg21
g126
(g127
(S'S1'
p1724
I0
I1
tp1725
Rp1726
(I3
S'|'
p1727
NNNI1
I1
I0
tp1728
bg244
tp1729
Rp1730
sg23
I00
sba(iMAG
Car
p1731
(dp1732
g10
(lp1733
I5
aI4
asg12
g1096
sg14
(lp1734
sg16
g1069
sg18
(lp1735
I4
aI4
asg20
I2
sg21
g1277
sg23
I00
sba(iMAG
Car
p1736
(dp1737
g10
(lp1738
I4
aI2
asg12
g1103
sg14
(lp1739
sg16
g1069
sg18
(lp1740
I3
aI2
asg20
I2
sg21
g1626
sg23
I00
sba(iMAG
Car
p1741
(dp1742
g10
(lp1743
I1
aI0
asg12
g1110
sg14
(lp1744
sg16
g1069
sg18
(lp1745
I0
aI0
asg20
I2
sg21
g1459
sg23
I00
sba(iMAG
Car
p1746
(dp1747
g10
(lp1748
I3
aI0
asg12
g1117
sg14
(lp1749
sg16
g1069
sg18
(lp1750
I2
aI0
asg20
I2
sg21
g1521
sg23
I00
sba(iMAG
Car
p1751
(dp1752
g10
(lp1753
I1
aI5
asg12
g1124
sg14
(lp1754
sg16
g1069
sg18
(lp1755
I0
aI5
asg20
I2
sg21
g1183
sg23
I00
sbasg80
Nsg81
S'4477.3\n1.5..3\n1.5RR3>\n..50..\n...022\n66.0..\n'
p1756
sba(inode
Node
p1757
(dp1758
g3
Nsg4
(lp1759
sg6
(lp1760
(iMAG
Car
p1761
(dp1762
g10
(lp1763
I0
aI2
asg12
g1067
sg14
(lp1764
sg16
g1069
sg18
(lp1765
I0
aI1
asg20
I2
sg21
g1658
sg23
I00
sba(iMAG
Car
p1766
(dp1767
g10
(lp1768
I3
aI5
asg12
g1075
sg14
(lp1769
sg16
g1069
sg18
(lp1770
I3
aI3
asg20
I3
sg21
g1376
sg23
I00
sba(iMAG
Car
p1771
(dp1772
g10
(lp1773
I5
aI2
asg12
g1082
sg14
(lp1774
sg16
g1069
sg18
(lp1775
I5
aI0
asg20
I3
sg21
g1553
sg23
I00
sba(iMAG
Car
p1776
(dp1777
g10
(lp1778
I2
aI3
asg12
g1089
sg14
(lp1779
sg16
g1069
sg18
(lp1780
I2
aI1
asg20
I3
sg21
g1730
sg23
I00
sba(iMAG
Car
p1781
(dp1782
g10
(lp1783
I5
aI4
asg12
g1096
sg14
(lp1784
sg16
g1069
sg18
(lp1785
I4
aI4
asg20
I2
sg21
g1277
sg23
I00
sba(iMAG
Car
p1786
(dp1787
g10
(lp1788
I4
aI2
asg12
g1103
sg14
(lp1789
sg16
g1069
sg18
(lp1790
I3
aI2
asg20
I2
sg21
g1626
sg23
I00
sba(iMAG
Car
p1791
(dp1792
g10
(lp1793
I1
aI0
asg12
g1110
sg14
(lp1794
sg16
g1069
sg18
(lp1795
I0
aI0
asg20
I2
sg21
g1459
sg23
I00
sba(iMAG
Car
p1796
(dp1797
g10
(lp1798
I3
aI0
asg12
g1117
sg14
(lp1799
sg16
g1069
sg18
(lp1800
I2
aI0
asg20
I2
sg21
g1521
sg23
I00
sba(iMAG
Car
p1801
(dp1802
g10
(lp1803
I2
aI5
asg12
g1124
sg14
(lp1804
sg16
g1069
sg18
(lp1805
I1
aI5
asg20
I2
sg21
g126
(g127
(S'S1'
p1806
I0
I1
tp1807
Rp1808
(I3
S'|'
p1809
NNNI1
I1
I0
tp1810
bg312
tp1811
Rp1812
sg23
I00
sbasg80
Nsg81
S'4477.3\n1.5..3\n1.5RR3>\n..50..\n...022\n.660..\n'
p1813
sba(inode
Node
p1814
(dp1815
g3
Nsg4
(lp1816
sg6
(lp1817
(iMAG
Car
p1818
(dp1819
g10
(lp1820
I0
aI5
asg12
g1067
sg14
(lp1821
sg16
g1069
sg18
(lp1822
I0
aI4
asg20
I2
sg21
g126
(g127
(S'S1'
p1823
I0
I1
tp1824
Rp1825
(I3
S'|'
p1826
NNNI1
I1
I0
tp1827
bg502
tp1828
Rp1829
sg23
I00
sba(iMAG
Car
p1830
(dp1831
g10
(lp1832
I3
aI5
asg12
g1075
sg14
(lp1833
sg16
g1069
sg18
(lp1834
I3
aI3
asg20
I3
sg21
g1376
sg23
I00
sba(iMAG
Car
p1835
(dp1836
g10
(lp1837
I5
aI2
asg12
g1082
sg14
(lp1838
sg16
g1069
sg18
(lp1839
I5
aI0
asg20
I3
sg21
g1553
sg23
I00
sba(iMAG
Car
p1840
(dp1841
g10
(lp1842
I2
aI3
asg12
g1089
sg14
(lp1843
sg16
g1069
sg18
(lp1844
I2
aI1
asg20
I3
sg21
g1730
sg23
I00
sba(iMAG
Car
p1845
(dp1846
g10
(lp1847
I5
aI4
asg12
g1096
sg14
(lp1848
sg16
g1069
sg18
(lp1849
I4
aI4
asg20
I2
sg21
g1277
sg23
I00
sba(iMAG
Car
p1850
(dp1851
g10
(lp1852
I4
aI2
asg12
g1103
sg14
(lp1853
sg16
g1069
sg18
(lp1854
I3
aI2
asg20
I2
sg21
g1626
sg23
I00
sba(iMAG
Car
p1855
(dp1856
g10
(lp1857
I1
aI0
asg12
g1110
sg14
(lp1858
sg16
g1069
sg18
(lp1859
I0
aI0
asg20
I2
sg21
g1459
sg23
I00
sba(iMAG
Car
p1860
(dp1861
g10
(lp1862
I3
aI0
asg12
g1117
sg14
(lp1863
sg16
g1069
sg18
(lp1864
I2
aI0
asg20
I2
sg21
g1521
sg23
I00
sba(iMAG
Car
p1865
(dp1866
g10
(lp1867
I2
aI5
asg12
g1124
sg14
(lp1868
sg16
g1069
sg18
(lp1869
I1
aI5
asg20
I2
sg21
g1812
sg23
I00
sbasg80
Nsg81
S'4477.3\n..5..3\n..5RR3>\n..50..\n1..022\n1660..\n'
p1870
sba(inode
Node
p1871
(dp1872
g3
Nsg4
(lp1873
sg6
(lp1874
(iMAG
Car
p1875
(dp1876
g10
(lp1877
I0
aI5
asg12
g1067
sg14
(lp1878
sg16
g1069
sg18
(lp1879
I0
aI4
asg20
I2
sg21
g1829
sg23
I00
sba(iMAG
Car
p1880
(dp1881
g10
(lp1882
I3
aI5
asg12
g1075
sg14
(lp1883
sg16
g1069
sg18
(lp1884
I3
aI3
asg20
I3
sg21
g1376
sg23
I00
sba(iMAG
Car
p1885
(dp1886
g10
(lp1887
I5
aI2
asg12
g1082
sg14
(lp1888
sg16
g1069
sg18
(lp1889
I5
aI0
asg20
I3
sg21
g1553
sg23
I00
sba(iMAG
Car
p1890
(dp1891
g10
(lp1892
I2
aI4
asg12
g1089
sg14
(lp1893
sg16
g1069
sg18
(lp1894
I2
aI2
asg20
I3
sg21
g126
(g127
(S'S1'
p1895
I0
I1
tp1896
Rp1897
(I3
S'|'
p1898
NNNI1
I1
I0
tp1899
bg244
tp1900
Rp1901
sg23
I00
sba(iMAG
Car
p1902
(dp1903
g10
(lp1904
I5
aI4
asg12
g1096
sg14
(lp1905
sg16
g1069
sg18
(lp1906
I4
aI4
asg20
I2
sg21
g1277
sg23
I00
sba(iMAG
Car
p1907
(dp1908
g10
(lp1909
I4
aI2
asg12
g1103
sg14
(lp1910
sg16
g1069
sg18
(lp1911
I3
aI2
asg20
I2
sg21
g1626
sg23
I00
sba(iMAG
Car
p1912
(dp1913
g10
(lp1914
I1
aI0
asg12
g1110
sg14
(lp1915
sg16
g1069
sg18
(lp1916
I0
aI0
asg20
I2
sg21
g1459
sg23
I00
sba(iMAG
Car
p1917
(dp1918
g10
(lp1919
I3
aI0
asg12
g1117
sg14
(lp1920
sg16
g1069
sg18
(lp1921
I2
aI0
asg20
I2
sg21
g1521
sg23
I00
sba(iMAG
Car
p1922
(dp1923
g10
(lp1924
I2
aI5
asg12
g1124
sg14
(lp1925
sg16
g1069
sg18
(lp1926
I1
aI5
asg20
I2
sg21
g1812
sg23
I00
sbasg80
Nsg81
S'4477.3\n.....3\n..5RR3>\n..50..\n1.5022\n1660..\n'
p1927
sba(inode
Node
p1928
(dp1929
g3
Nsg4
(lp1930
sg6
(lp1931
(iMAG
Car
p1932
(dp1933
g10
(lp1934
I0
aI5
asg12
g1067
sg14
(lp1935
sg16
g1069
sg18
(lp1936
I0
aI4
asg20
I2
sg21
g1829
sg23
I00
sba(iMAG
Car
p1937
(dp1938
g10
(lp1939
I3
aI5
asg12
g1075
sg14
(lp1940
sg16
g1069
sg18
(lp1941
I3
aI3
asg20
I3
sg21
g1376
sg23
I00
sba(iMAG
Car
p1942
(dp1943
g10
(lp1944
I5
aI3
asg12
g1082
sg14
(lp1945
sg16
g1069
sg18
(lp1946
I5
aI1
asg20
I3
sg21
g126
(g127
(S'S1'
p1947
I0
I1
tp1948
Rp1949
(I3
S'|'
p1950
NNNI1
I1
I0
tp1951
bg907
tp1952
Rp1953
sg23
I00
sba(iMAG
Car
p1954
(dp1955
g10
(lp1956
I2
aI4
asg12
g1089
sg14
(lp1957
sg16
g1069
sg18
(lp1958
I2
aI2
asg20
I3
sg21
g1901
sg23
I00
sba(iMAG
Car
p1959
(dp1960
g10
(lp1961
I5
aI4
asg12
g1096
sg14
(lp1962
sg16
g1069
sg18
(lp1963
I4
aI4
asg20
I2
sg21
g1277
sg23
I00
sba(iMAG
Car
p1964
(dp1965
g10
(lp1966
I4
aI2
asg12
g1103
sg14
(lp1967
sg16
g1069
sg18
(lp1968
I3
aI2
asg20
I2
sg21
g1626
sg23
I00
sba(iMAG
Car
p1969
(dp1970
g10
(lp1971
I1
aI0
asg12
g1110
sg14
(lp1972
sg16
g1069
sg18
(lp1973
I0
aI0
asg20
I2
sg21
g1459
sg23
I00
sba(iMAG
Car
p1974
(dp1975
g10
(lp1976
I3
aI0
asg12
g1117
sg14
(lp1977
sg16
g1069
sg18
(lp1978
I2
aI0
asg20
I2
sg21
g1521
sg23
I00
sba(iMAG
Car
p1979
(dp1980
g10
(lp1981
I2
aI5
asg12
g1124
sg14
(lp1982
sg16
g1069
sg18
(lp1983
I1
aI5
asg20
I2
sg21
g1812
sg23
I00
sbasg80
Nsg81
S'4477..\n.....3\n..5RR3>\n..50.3\n1.5022\n1660..\n'
p1984
sba(inode
Node
p1985
(dp1986
g3
Nsg4
(lp1987
sg6
(lp1988
(iMAG
Car
p1989
(dp1990
g10
(lp1991
I0
aI2
asg12
g1067
sg14
(lp1992
sg16
g1069
sg18
(lp1993
I0
aI1
asg20
I2
sg21
g126
(g127
(S'S1'
p1994
I0
I1
tp1995
Rp1996
(I3
S'|'
p1997
NNNI1
I1
I0
tp1998
bg502
tp1999
Rp2000
sg23
I00
sba(iMAG
Car
p2001
(dp2002
g10
(lp2003
I3
aI5
asg12
g1075
sg14
(lp2004
sg16
g1069
sg18
(lp2005
I3
aI3
asg20
I3
sg21
g1376
sg23
I00
sba(iMAG
Car
p2006
(dp2007
g10
(lp2008
I5
aI3
asg12
g1082
sg14
(lp2009
sg16
g1069
sg18
(lp2010
I5
aI1
asg20
I3
sg21
g1953
sg23
I00
sba(iMAG
Car
p2011
(dp2012
g10
(lp2013
I2
aI4
asg12
g1089
sg14
(lp2014
sg16
g1069
sg18
(lp2015
I2
aI2
asg20
I3
sg21
g1901
sg23
I00
sba(iMAG
Car
p2016
(dp2017
g10
(lp2018
I5
aI4
asg12
g1096
sg14
(lp2019
sg16
g1069
sg18
(lp2020
I4
aI4
asg20
I2
sg21
g1277
sg23
I00
sba(iMAG
Car
p2021
(dp2022
g10
(lp2023
I4
aI2
asg12
g1103
sg14
(lp2024
sg16
g1069
sg18
(lp2025
I3
aI2
asg20
I2
sg21
g1626
sg23
I00
sba(iMAG
Car
p2026
(dp2027
g10
(lp2028
I1
aI0
asg12
g1110
sg14
(lp2029
sg16
g1069
sg18
(lp2030
I0
aI0
asg20
I2
sg21
g1459
sg23
I00
sba(iMAG
Car
p2031
(dp2032
g10
(lp2033
I3
aI0
asg12
g1117
sg14
(lp2034
sg16
g1069
sg18
(lp2035
I2
aI0
asg20
I2
sg21
g1521
sg23
I00
sba(iMAG
Car
p2036
(dp2037
g10
(lp2038
I2
aI5
asg12
g1124
sg14
(lp2039
sg16
g1069
sg18
(lp2040
I1
aI5
asg20
I2
sg21
g1812
sg23
I00
sbasg80
Nsg81
S'4477..\n1....3\n1.5RR3>\n..50.3\n..5022\n.660..\n'
p2041
sba(inode
Node
p2042
(dp2043
g3
Nsg4
(lp2044
sg6
(lp2045
(iMAG
Car
p2046
(dp2047
g10
(lp2048
I0
aI2
asg12
g1067
sg14
(lp2049
sg16
g1069
sg18
(lp2050
I0
aI1
asg20
I2
sg21
g2000
sg23
I00
sba(iMAG
Car
p2051
(dp2052
g10
(lp2053
I3
aI5
asg12
g1075
sg14
(lp2054
sg16
g1069
sg18
(lp2055
I3
aI3
asg20
I3
sg21
g1376
sg23
I00
sba(iMAG
Car
p2056
(dp2057
g10
(lp2058
I5
aI3
asg12
g1082
sg14
(lp2059
sg16
g1069
sg18
(lp2060
I5
aI1
asg20
I3
sg21
g1953
sg23
I00
sba(iMAG
Car
p2061
(dp2062
g10
(lp2063
I2
aI4
asg12
g1089
sg14
(lp2064
sg16
g1069
sg18
(lp2065
I2
aI2
asg20
I3
sg21
g1901
sg23
I00
sba(iMAG
Car
p2066
(dp2067
g10
(lp2068
I5
aI4
asg12
g1096
sg14
(lp2069
sg16
g1069
sg18
(lp2070
I4
aI4
asg20
I2
sg21
g1277
sg23
I00
sba(iMAG
Car
p2071
(dp2072
g10
(lp2073
I4
aI2
asg12
g1103
sg14
(lp2074
sg16
g1069
sg18
(lp2075
I3
aI2
asg20
I2
sg21
g1626
sg23
I00
sba(iMAG
Car
p2076
(dp2077
g10
(lp2078
I1
aI0
asg12
g1110
sg14
(lp2079
sg16
g1069
sg18
(lp2080
I0
aI0
asg20
I2
sg21
g1459
sg23
I00
sba(iMAG
Car
p2081
(dp2082
g10
(lp2083
I3
aI0
asg12
g1117
sg14
(lp2084
sg16
g1069
sg18
(lp2085
I2
aI0
asg20
I2
sg21
g1521
sg23
I00
sba(iMAG
Car
p2086
(dp2087
g10
(lp2088
I1
aI5
asg12
g1124
sg14
(lp2089
sg16
g1069
sg18
(lp2090
I0
aI5
asg20
I2
sg21
g126
(g127
(S'S1'
p2091
I0
I1
tp2092
Rp2093
(I3
S'|'
p2094
NNNI1
I1
I0
tp2095
bg312
tp2096
Rp2097
sg23
I00
sbasg80
Nsg81
S'4477..\n1....3\n1.5RR3>\n..50.3\n..5022\n66.0..\n'
p2098
sba(inode
Node
p2099
(dp2100
g3
Nsg4
(lp2101
sg6
(lp2102
(iMAG
Car
p2103
(dp2104
g10
(lp2105
I0
aI2
asg12
g1067
sg14
(lp2106
sg16
g1069
sg18
(lp2107
I0
aI1
asg20
I2
sg21
g2000
sg23
I00
sba(iMAG
Car
p2108
(dp2109
g10
(lp2110
I3
aI5
asg12
g1075
sg14
(lp2111
sg16
g1069
sg18
(lp2112
I3
aI3
asg20
I3
sg21
g1376
sg23
I00
sba(iMAG
Car
p2113
(dp2114
g10
(lp2115
I5
aI3
asg12
g1082
sg14
(lp2116
sg16
g1069
sg18
(lp2117
I5
aI1
asg20
I3
sg21
g1953
sg23
I00
sba(iMAG
Car
p2118
(dp2119
g10
(lp2120
I2
aI5
asg12
g1089
sg14
(lp2121
sg16
g1069
sg18
(lp2122
I2
aI3
asg20
I3
sg21
g126
(g127
(S'S1'
p2123
I0
I1
tp2124
Rp2125
(I3
S'|'
p2126
NNNI1
I1
I0
tp2127
bg244
tp2128
Rp2129
sg23
I00
sba(iMAG
Car
p2130
(dp2131
g10
(lp2132
I5
aI4
asg12
g1096
sg14
(lp2133
sg16
g1069
sg18
(lp2134
I4
aI4
asg20
I2
sg21
g1277
sg23
I00
sba(iMAG
Car
p2135
(dp2136
g10
(lp2137
I4
aI2
asg12
g1103
sg14
(lp2138
sg16
g1069
sg18
(lp2139
I3
aI2
asg20
I2
sg21
g1626
sg23
I00
sba(iMAG
Car
p2140
(dp2141
g10
(lp2142
I1
aI0
asg12
g1110
sg14
(lp2143
sg16
g1069
sg18
(lp2144
I0
aI0
asg20
I2
sg21
g1459
sg23
I00
sba(iMAG
Car
p2145
(dp2146
g10
(lp2147
I3
aI0
asg12
g1117
sg14
(lp2148
sg16
g1069
sg18
(lp2149
I2
aI0
asg20
I2
sg21
g1521
sg23
I00
sba(iMAG
Car
p2150
(dp2151
g10
(lp2152
I1
aI5
asg12
g1124
sg14
(lp2153
sg16
g1069
sg18
(lp2154
I0
aI5
asg20
I2
sg21
g2097
sg23
I00
sbasg80
Nsg81
S'4477..\n1....3\n1..RR3>\n..50.3\n..5022\n6650..\n'
p2155
sba(inode
Node
p2156
(dp2157
g3
Nsg4
(lp2158
sg6
(lp2159
(iMAG
Car
p2160
(dp2161
g10
(lp2162
I0
aI2
asg12
g1067
sg14
(lp2163
sg16
g1069
sg18
(lp2164
I0
aI1
asg20
I2
sg21
g2000
sg23
I00
sba(iMAG
Car
p2165
(dp2166
g10
(lp2167
I3
aI5
asg12
g1075
sg14
(lp2168
sg16
g1069
sg18
(lp2169
I3
aI3
asg20
I3
sg21
g1376
sg23
I00
sba(iMAG
Car
p2170
(dp2171
g10
(lp2172
I5
aI3
asg12
g1082
sg14
(lp2173
sg16
g1069
sg18
(lp2174
I5
aI1
asg20
I3
sg21
g1953
sg23
I00
sba(iMAG
Car
p2175
(dp2176
g10
(lp2177
I2
aI5
asg12
g1089
sg14
(lp2178
sg16
g1069
sg18
(lp2179
I2
aI3
asg20
I3
sg21
g2129
sg23
I00
sba(iMAG
Car
p2180
(dp2181
g10
(lp2182
I5
aI4
asg12
g1096
sg14
(lp2183
sg16
g1069
sg18
(lp2184
I4
aI4
asg20
I2
sg21
g1277
sg23
I00
sba(iMAG
Car
p2185
(dp2186
g10
(lp2187
I2
aI2
asg12
g1103
sg14
(lp2188
sg16
g1069
sg18
(lp2189
I1
aI2
asg20
I2
sg21
g126
(g127
(S'S1'
p2190
I0
I1
tp2191
Rp2192
(I3
S'|'
p2193
NNNI1
I1
I0
tp2194
bg1624
tp2195
Rp2196
sg23
I00
sba(iMAG
Car
p2197
(dp2198
g10
(lp2199
I1
aI0
asg12
g1110
sg14
(lp2200
sg16
g1069
sg18
(lp2201
I0
aI0
asg20
I2
sg21
g1459
sg23
I00
sba(iMAG
Car
p2202
(dp2203
g10
(lp2204
I3
aI0
asg12
g1117
sg14
(lp2205
sg16
g1069
sg18
(lp2206
I2
aI0
asg20
I2
sg21
g1521
sg23
I00
sba(iMAG
Car
p2207
(dp2208
g10
(lp2209
I1
aI5
asg12
g1124
sg14
(lp2210
sg16
g1069
sg18
(lp2211
I0
aI5
asg20
I2
sg21
g2097
sg23
I00
sbasg80
Nsg81
S'4477..\n1....3\n1RR..3>\n..50.3\n..5022\n6650..\n'
p2212
sba(inode
Node
p2213
(dp2214
g3
Nsg4
(lp2215
sg6
(lp2216
(iMAG
Car
p2217
(dp2218
g10
(lp2219
I0
aI2
asg12
g1067
sg14
(lp2220
sg16
g1069
sg18
(lp2221
I0
aI1
asg20
I2
sg21
g2000
sg23
I00
sba(iMAG
Car
p2222
(dp2223
g10
(lp2224
I3
aI3
asg12
g1075
sg14
(lp2225
sg16
g1069
sg18
(lp2226
I3
aI1
asg20
I3
sg21
g126
(g127
(S'S1'
p2227
I0
I1
tp2228
Rp2229
(I3
S'|'
p2230
NNNI1
I1
I0
tp2231
bg176
tp2232
Rp2233
sg23
I00
sba(iMAG
Car
p2234
(dp2235
g10
(lp2236
I5
aI3
asg12
g1082
sg14
(lp2237
sg16
g1069
sg18
(lp2238
I5
aI1
asg20
I3
sg21
g1953
sg23
I00
sba(iMAG
Car
p2239
(dp2240
g10
(lp2241
I2
aI5
asg12
g1089
sg14
(lp2242
sg16
g1069
sg18
(lp2243
I2
aI3
asg20
I3
sg21
g2129
sg23
I00
sba(iMAG
Car
p2244
(dp2245
g10
(lp2246
I5
aI4
asg12
g1096
sg14
(lp2247
sg16
g1069
sg18
(lp2248
I4
aI4
asg20
I2
sg21
g1277
sg23
I00
sba(iMAG
Car
p2249
(dp2250
g10
(lp2251
I2
aI2
asg12
g1103
sg14
(lp2252
sg16
g1069
sg18
(lp2253
I1
aI2
asg20
I2
sg21
g2196
sg23
I00
sba(iMAG
Car
p2254
(dp2255
g10
(lp2256
I1
aI0
asg12
g1110
sg14
(lp2257
sg16
g1069
sg18
(lp2258
I0
aI0
asg20
I2
sg21
g1459
sg23
I00
sba(iMAG
Car
p2259
(dp2260
g10
(lp2261
I3
aI0
asg12
g1117
sg14
(lp2262
sg16
g1069
sg18
(lp2263
I2
aI0
asg20
I2
sg21
g1521
sg23
I00
sba(iMAG
Car
p2264
(dp2265
g10
(lp2266
I1
aI5
asg12
g1124
sg14
(lp2267
sg16
g1069
sg18
(lp2268
I0
aI5
asg20
I2
sg21
g2097
sg23
I00
sbasg80
Nsg81
S'4477..\n1..0.3\n1RR0.3>\n..50.3\n..5.22\n665...\n'
p2269
sba(inode
Node
p2270
(dp2271
g3
Nsg4
(lp2272
sg6
(lp2273
(iMAG
Car
p2274
(dp2275
g10
(lp2276
I0
aI2
asg12
g1067
sg14
(lp2277
sg16
g1069
sg18
(lp2278
I0
aI1
asg20
I2
sg21
g2000
sg23
I00
sba(iMAG
Car
p2279
(dp2280
g10
(lp2281
I3
aI3
asg12
g1075
sg14
(lp2282
sg16
g1069
sg18
(lp2283
I3
aI1
asg20
I3
sg21
g2233
sg23
I00
sba(iMAG
Car
p2284
(dp2285
g10
(lp2286
I5
aI3
asg12
g1082
sg14
(lp2287
sg16
g1069
sg18
(lp2288
I5
aI1
asg20
I3
sg21
g1953
sg23
I00
sba(iMAG
Car
p2289
(dp2290
g10
(lp2291
I2
aI5
asg12
g1089
sg14
(lp2292
sg16
g1069
sg18
(lp2293
I2
aI3
asg20
I3
sg21
g2129
sg23
I00
sba(iMAG
Car
p2294
(dp2295
g10
(lp2296
I4
aI4
asg12
g1096
sg14
(lp2297
sg16
g1069
sg18
(lp2298
I3
aI4
asg20
I2
sg21
g126
(g127
(S'S1'
p2299
I0
I1
tp2300
Rp2301
(I3
S'|'
p2302
NNNI1
I1
I0
tp2303
bg340
tp2304
Rp2305
sg23
I00
sba(iMAG
Car
p2306
(dp2307
g10
(lp2308
I2
aI2
asg12
g1103
sg14
(lp2309
sg16
g1069
sg18
(lp2310
I1
aI2
asg20
I2
sg21
g2196
sg23
I00
sba(iMAG
Car
p2311
(dp2312
g10
(lp2313
I1
aI0
asg12
g1110
sg14
(lp2314
sg16
g1069
sg18
(lp2315
I0
aI0
asg20
I2
sg21
g1459
sg23
I00
sba(iMAG
Car
p2316
(dp2317
g10
(lp2318
I3
aI0
asg12
g1117
sg14
(lp2319
sg16
g1069
sg18
(lp2320
I2
aI0
asg20
I2
sg21
g1521
sg23
I00
sba(iMAG
Car
p2321
(dp2322
g10
(lp2323
I1
aI5
asg12
g1124
sg14
(lp2324
sg16
g1069
sg18
(lp2325
I0
aI5
asg20
I2
sg21
g2097
sg23
I00
sbasg80
Nsg81
S'4477..\n1..0.3\n1RR0.3>\n..50.3\n..522.\n665...\n'
p2326
sba(inode
Node
p2327
(dp2328
g3
Nsg4
(lp2329
sg6
(lp2330
(iMAG
Car
p2331
(dp2332
g10
(lp2333
I0
aI2
asg12
g1067
sg14
(lp2334
sg16
g1069
sg18
(lp2335
I0
aI1
asg20
I2
sg21
g2000
sg23
I00
sba(iMAG
Car
p2336
(dp2337
g10
(lp2338
I3
aI3
asg12
g1075
sg14
(lp2339
sg16
g1069
sg18
(lp2340
I3
aI1
asg20
I3
sg21
g2233
sg23
I00
sba(iMAG
Car
p2341
(dp2342
g10
(lp2343
I5
aI5
asg12
g1082
sg14
(lp2344
sg16
g1069
sg18
(lp2345
I5
aI3
asg20
I3
sg21
g126
(g127
(S'S1'
p2346
I0
I1
tp2347
Rp2348
(I3
S'|'
p2349
NNNI1
I1
I0
tp2350
bg907
tp2351
Rp2352
sg23
I00
sba(iMAG
Car
p2353
(dp2354
g10
(lp2355
I2
aI5
asg12
g1089
sg14
(lp2356
sg16
g1069
sg18
(lp2357
I2
aI3
asg20
I3
sg21
g2129
sg23
I00
sba(iMAG
Car
p2358
(dp2359
g10
(lp2360
I4
aI4
asg12
g1096
sg14
(lp2361
sg16
g1069
sg18
(lp2362
I3
aI4
asg20
I2
sg21
g2305
sg23
I00
sba(iMAG
Car
p2363
(dp2364
g10
(lp2365
I2
aI2
asg12
g1103
sg14
(lp2366
sg16
g1069
sg18
(lp2367
I1
aI2
asg20
I2
sg21
g2196
sg23
I00
sba(iMAG
Car
p2368
(dp2369
g10
(lp2370
I1
aI0
asg12
g1110
sg14
(lp2371
sg16
g1069
sg18
(lp2372
I0
aI0
asg20
I2
sg21
g1459
sg23
I00
sba(iMAG
Car
p2373
(dp2374
g10
(lp2375
I3
aI0
asg12
g1117
sg14
(lp2376
sg16
g1069
sg18
(lp2377
I2
aI0
asg20
I2
sg21
g1521
sg23
I00
sba(iMAG
Car
p2378
(dp2379
g10
(lp2380
I1
aI5
asg12
g1124
sg14
(lp2381
sg16
g1069
sg18
(lp2382
I0
aI5
asg20
I2
sg21
g2097
sg23
I00
sbasg80
Nsg81
S'4477..\n1..0..\n1RR0..>\n..50.3\n..5223\n665..3\n'
p2383
sba(inode
Node
p2384
(dp2385
g3
Nsg4
(lp2386
sg6
(lp2387
(iMAG
Car
p2388
(dp2389
g10
(lp2390
I0
aI2
asg12
g1067
sg14
(lp2391
sg16
g1069
sg18
(lp2392
I0
aI1
asg20
I2
sg21
g2000
sg23
I00
sba(iMAG
Car
p2393
(dp2394
g10
(lp2395
I3
aI3
asg12
g1075
sg14
(lp2396
sg16
g1069
sg18
(lp2397
I3
aI1
asg20
I3
sg21
g2233
sg23
I00
sba(iMAG
Car
p2398
(dp2399
g10
(lp2400
I5
aI5
asg12
g1082
sg14
(lp2401
sg16
g1069
sg18
(lp2402
I5
aI3
asg20
I3
sg21
g2352
sg23
I00
sba(iMAG
Car
p2403
(dp2404
g10
(lp2405
I2
aI5
asg12
g1089
sg14
(lp2406
sg16
g1069
sg18
(lp2407
I2
aI3
asg20
I3
sg21
g2129
sg23
I00
sba(iMAG
Car
p2408
(dp2409
g10
(lp2410
I4
aI4
asg12
g1096
sg14
(lp2411
sg16
g1069
sg18
(lp2412
I3
aI4
asg20
I2
sg21
g2305
sg23
I00
sba(iMAG
Car
p2413
(dp2414
g10
(lp2415
I2
aI2
asg12
g1103
sg14
(lp2416
sg16
g1069
sg18
(lp2417
I1
aI2
asg20
I2
sg21
g2196
sg23
I00
sba(iMAG
Car
p2418
(dp2419
g10
(lp2420
I1
aI0
asg12
g1110
sg14
(lp2421
sg16
g1069
sg18
(lp2422
I0
aI0
asg20
I2
sg21
g1459
sg23
I00
sba(iMAG
Car
p2423
(dp2424
g10
(lp2425
I5
aI0
asg12
g1117
sg14
(lp2426
sg16
g1069
sg18
(lp2427
I4
aI0
asg20
I2
sg21
g126
(g127
(S'S1'
p2428
I0
I1
tp2429
Rp2430
(I3
S'|'
p2431
NNNI1
I1
I0
tp2432
bg133
tp2433
Rp2434
sg23
I00
sba(iMAG
Car
p2435
(dp2436
g10
(lp2437
I1
aI5
asg12
g1124
sg14
(lp2438
sg16
g1069
sg18
(lp2439
I0
aI5
asg20
I2
sg21
g2097
sg23
I00
sbasg80
Nsg81
S'44..77\n1..0..\n1RR0..>\n..50.3\n..5223\n665..3\n'
p2440
sba(inode
Node
p2441
(dp2442
g3
Nsg4
(lp2443
sg6
(lp2444
(iMAG
Car
p2445
(dp2446
g10
(lp2447
I0
aI2
asg12
g1067
sg14
(lp2448
sg16
g1069
sg18
(lp2449
I0
aI1
asg20
I2
sg21
g2000
sg23
I00
sba(iMAG
Car
p2450
(dp2451
g10
(lp2452
I3
aI2
asg12
g1075
sg14
(lp2453
sg16
g1069
sg18
(lp2454
I3
aI0
asg20
I3
sg21
g126
(g127
(S'S1'
p2455
I0
I1
tp2456
Rp2457
(I3
S'|'
p2458
NNNI1
I1
I0
tp2459
bg176
tp2460
Rp2461
sg23
I00
sba(iMAG
Car
p2462
(dp2463
g10
(lp2464
I5
aI5
asg12
g1082
sg14
(lp2465
sg16
g1069
sg18
(lp2466
I5
aI3
asg20
I3
sg21
g2352
sg23
I00
sba(iMAG
Car
p2467
(dp2468
g10
(lp2469
I2
aI5
asg12
g1089
sg14
(lp2470
sg16
g1069
sg18
(lp2471
I2
aI3
asg20
I3
sg21
g2129
sg23
I00
sba(iMAG
Car
p2472
(dp2473
g10
(lp2474
I4
aI4
asg12
g1096
sg14
(lp2475
sg16
g1069
sg18
(lp2476
I3
aI4
asg20
I2
sg21
g2305
sg23
I00
sba(iMAG
Car
p2477
(dp2478
g10
(lp2479
I2
aI2
asg12
g1103
sg14
(lp2480
sg16
g1069
sg18
(lp2481
I1
aI2
asg20
I2
sg21
g2196
sg23
I00
sba(iMAG
Car
p2482
(dp2483
g10
(lp2484
I1
aI0
asg12
g1110
sg14
(lp2485
sg16
g1069
sg18
(lp2486
I0
aI0
asg20
I2
sg21
g1459
sg23
I00
sba(iMAG
Car
p2487
(dp2488
g10
(lp2489
I5
aI0
asg12
g1117
sg14
(lp2490
sg16
g1069
sg18
(lp2491
I4
aI0
asg20
I2
sg21
g2434
sg23
I00
sba(iMAG
Car
p2492
(dp2493
g10
(lp2494
I1
aI5
asg12
g1124
sg14
(lp2495
sg16
g1069
sg18
(lp2496
I0
aI5
asg20
I2
sg21
g2097
sg23
I00
sbasg80
Nsg81
S'44.077\n1..0..\n1RR0..>\n..5..3\n..5223\n665..3\n'
p2497
sba(inode
Node
p2498
(dp2499
g3
Nsg4
(lp2500
sg6
(lp2501
(iMAG
Car
p2502
(dp2503
g10
(lp2504
I0
aI2
asg12
g1067
sg14
(lp2505
sg16
g1069
sg18
(lp2506
I0
aI1
asg20
I2
sg21
g2000
sg23
I00
sba(iMAG
Car
p2507
(dp2508
g10
(lp2509
I3
aI2
asg12
g1075
sg14
(lp2510
sg16
g1069
sg18
(lp2511
I3
aI0
asg20
I3
sg21
g2461
sg23
I00
sba(iMAG
Car
p2512
(dp2513
g10
(lp2514
I5
aI5
asg12
g1082
sg14
(lp2515
sg16
g1069
sg18
(lp2516
I5
aI3
asg20
I3
sg21
g2352
sg23
I00
sba(iMAG
Car
p2517
(dp2518
g10
(lp2519
I2
aI5
asg12
g1089
sg14
(lp2520
sg16
g1069
sg18
(lp2521
I2
aI3
asg20
I3
sg21
g2129
sg23
I00
sba(iMAG
Car
p2522
(dp2523
g10
(lp2524
I4
aI4
asg12
g1096
sg14
(lp2525
sg16
g1069
sg18
(lp2526
I3
aI4
asg20
I2
sg21
g2305
sg23
I00
sba(iMAG
Car
p2527
(dp2528
g10
(lp2529
I2
aI2
asg12
g1103
sg14
(lp2530
sg16
g1069
sg18
(lp2531
I1
aI2
asg20
I2
sg21
g2196
sg23
I00
sba(iMAG
Car
p2532
(dp2533
g10
(lp2534
I2
aI0
asg12
g1110
sg14
(lp2535
sg16
g1069
sg18
(lp2536
I1
aI0
asg20
I2
sg21
g126
(g127
(S'S1'
p2537
I0
I1
tp2538
Rp2539
(I3
S'|'
p2540
NNNI1
I1
I0
tp2541
bg1457
tp2542
Rp2543
sg23
I00
sba(iMAG
Car
p2544
(dp2545
g10
(lp2546
I5
aI0
asg12
g1117
sg14
(lp2547
sg16
g1069
sg18
(lp2548
I4
aI0
asg20
I2
sg21
g2434
sg23
I00
sba(iMAG
Car
p2549
(dp2550
g10
(lp2551
I1
aI5
asg12
g1124
sg14
(lp2552
sg16
g1069
sg18
(lp2553
I0
aI5
asg20
I2
sg21
g2097
sg23
I00
sbasg80
Nsg81
S'.44077\n1..0..\n1RR0..>\n..5..3\n..5223\n665..3\n'
p2554
sba(inode
Node
p2555
(dp2556
g3
Nsg4
(lp2557
sg6
(lp2558
(iMAG
Car
p2559
(dp2560
g10
(lp2561
I0
aI1
asg12
g1067
sg14
(lp2562
sg16
g1069
sg18
(lp2563
I0
aI0
asg20
I2
sg21
g126
(g127
(S'S1'
p2564
I0
I1
tp2565
Rp2566
(I3
S'|'
p2567
NNNI1
I1
I0
tp2568
bg502
tp2569
Rp2570
sg23
I00
sba(iMAG
Car
p2571
(dp2572
g10
(lp2573
I3
aI2
asg12
g1075
sg14
(lp2574
sg16
g1069
sg18
(lp2575
I3
aI0
asg20
I3
sg21
g2461
sg23
I00
sba(iMAG
Car
p2576
(dp2577
g10
(lp2578
I5
aI5
asg12
g1082
sg14
(lp2579
sg16
g1069
sg18
(lp2580
I5
aI3
asg20
I3
sg21
g2352
sg23
I00
sba(iMAG
Car
p2581
(dp2582
g10
(lp2583
I2
aI5
asg12
g1089
sg14
(lp2584
sg16
g1069
sg18
(lp2585
I2
aI3
asg20
I3
sg21
g2129
sg23
I00
sba(iMAG
Car
p2586
(dp2587
g10
(lp2588
I4
aI4
asg12
g1096
sg14
(lp2589
sg16
g1069
sg18
(lp2590
I3
aI4
asg20
I2
sg21
g2305
sg23
I00
sba(iMAG
Car
p2591
(dp2592
g10
(lp2593
I2
aI2
asg12
g1103
sg14
(lp2594
sg16
g1069
sg18
(lp2595
I1
aI2
asg20
I2
sg21
g2196
sg23
I00
sba(iMAG
Car
p2596
(dp2597
g10
(lp2598
I2
aI0
asg12
g1110
sg14
(lp2599
sg16
g1069
sg18
(lp2600
I1
aI0
asg20
I2
sg21
g2543
sg23
I00
sba(iMAG
Car
p2601
(dp2602
g10
(lp2603
I5
aI0
asg12
g1117
sg14
(lp2604
sg16
g1069
sg18
(lp2605
I4
aI0
asg20
I2
sg21
g2434
sg23
I00
sba(iMAG
Car
p2606
(dp2607
g10
(lp2608
I1
aI5
asg12
g1124
sg14
(lp2609
sg16
g1069
sg18
(lp2610
I0
aI5
asg20
I2
sg21
g2097
sg23
I00
sbasg80
Nsg81
S'144077\n1..0..\n.RR0..>\n..5..3\n..5223\n665..3\n'
p2611
sba(inode
Node
p2612
(dp2613
g3
Nsg4
(lp2614
sg6
(lp2615
(iMAG
Car
p2616
(dp2617
g10
(lp2618
I0
aI1
asg12
g1067
sg14
(lp2619
sg16
g1069
sg18
(lp2620
I0
aI0
asg20
I2
sg21
g2570
sg23
I00
sba(iMAG
Car
p2621
(dp2622
g10
(lp2623
I3
aI2
asg12
g1075
sg14
(lp2624
sg16
g1069
sg18
(lp2625
I3
aI0
asg20
I3
sg21
g2461
sg23
I00
sba(iMAG
Car
p2626
(dp2627
g10
(lp2628
I5
aI5
asg12
g1082
sg14
(lp2629
sg16
g1069
sg18
(lp2630
I5
aI3
asg20
I3
sg21
g2352
sg23
I00
sba(iMAG
Car
p2631
(dp2632
g10
(lp2633
I2
aI5
asg12
g1089
sg14
(lp2634
sg16
g1069
sg18
(lp2635
I2
aI3
asg20
I3
sg21
g2129
sg23
I00
sba(iMAG
Car
p2636
(dp2637
g10
(lp2638
I4
aI4
asg12
g1096
sg14
(lp2639
sg16
g1069
sg18
(lp2640
I3
aI4
asg20
I2
sg21
g2305
sg23
I00
sba(iMAG
Car
p2641
(dp2642
g10
(lp2643
I1
aI2
asg12
g1103
sg14
(lp2644
sg16
g1069
sg18
(lp2645
I0
aI2
asg20
I2
sg21
g126
(g127
(S'S1'
p2646
I0
I1
tp2647
Rp2648
(I3
S'|'
p2649
NNNI1
I1
I0
tp2650
bg1624
tp2651
Rp2652
sg23
I00
sba(iMAG
Car
p2653
(dp2654
g10
(lp2655
I2
aI0
asg12
g1110
sg14
(lp2656
sg16
g1069
sg18
(lp2657
I1
aI0
asg20
I2
sg21
g2543
sg23
I00
sba(iMAG
Car
p2658
(dp2659
g10
(lp2660
I5
aI0
asg12
g1117
sg14
(lp2661
sg16
g1069
sg18
(lp2662
I4
aI0
asg20
I2
sg21
g2434
sg23
I00
sba(iMAG
Car
p2663
(dp2664
g10
(lp2665
I1
aI5
asg12
g1124
sg14
(lp2666
sg16
g1069
sg18
(lp2667
I0
aI5
asg20
I2
sg21
g2097
sg23
I00
sbasg80
Nsg81
S'144077\n1..0..\nRR.0..>\n..5..3\n..5223\n665..3\n'
p2668
sba(inode
Node
p2669
(dp2670
g3
Nsg4
(lp2671
sg6
(lp2672
(iMAG
Car
p2673
(dp2674
g10
(lp2675
I0
aI1
asg12
g1067
sg14
(lp2676
sg16
g1069
sg18
(lp2677
I0
aI0
asg20
I2
sg21
g2570
sg23
I00
sba(iMAG
Car
p2678
(dp2679
g10
(lp2680
I3
aI2
asg12
g1075
sg14
(lp2681
sg16
g1069
sg18
(lp2682
I3
aI0
asg20
I3
sg21
g2461
sg23
I00
sba(iMAG
Car
p2683
(dp2684
g10
(lp2685
I5
aI5
asg12
g1082
sg14
(lp2686
sg16
g1069
sg18
(lp2687
I5
aI3
asg20
I3
sg21
g2352
sg23
I00
sba(iMAG
Car
p2688
(dp2689
g10
(lp2690
I2
aI3
asg12
g1089
sg14
(lp2691
sg16
g1069
sg18
(lp2692
I2
aI1
asg20
I3
sg21
g126
(g127
(S'S1'
p2693
I0
I1
tp2694
Rp2695
(I3
S'|'
p2696
NNNI1
I1
I0
tp2697
bg244
tp2698
Rp2699
sg23
I00
sba(iMAG
Car
p2700
(dp2701
g10
(lp2702
I4
aI4
asg12
g1096
sg14
(lp2703
sg16
g1069
sg18
(lp2704
I3
aI4
asg20
I2
sg21
g2305
sg23
I00
sba(iMAG
Car
p2705
(dp2706
g10
(lp2707
I1
aI2
asg12
g1103
sg14
(lp2708
sg16
g1069
sg18
(lp2709
I0
aI2
asg20
I2
sg21
g2652
sg23
I00
sba(iMAG
Car
p2710
(dp2711
g10
(lp2712
I2
aI0
asg12
g1110
sg14
(lp2713
sg16
g1069
sg18
(lp2714
I1
aI0
asg20
I2
sg21
g2543
sg23
I00
sba(iMAG
Car
p2715
(dp2716
g10
(lp2717
I5
aI0
asg12
g1117
sg14
(lp2718
sg16
g1069
sg18
(lp2719
I4
aI0
asg20
I2
sg21
g2434
sg23
I00
sba(iMAG
Car
p2720
(dp2721
g10
(lp2722
I1
aI5
asg12
g1124
sg14
(lp2723
sg16
g1069
sg18
(lp2724
I0
aI5
asg20
I2
sg21
g2097
sg23
I00
sbasg80
Nsg81
S'144077\n1.50..\nRR50..>\n..5..3\n...223\n66...3\n'
p2725
sba(inode
Node
p2726
(dp2727
g3
Nsg4
(lp2728
sg6
(lp2729
(iMAG
Car
p2730
(dp2731
g10
(lp2732
I0
aI1
asg12
g1067
sg14
(lp2733
sg16
g1069
sg18
(lp2734
I0
aI0
asg20
I2
sg21
g2570
sg23
I00
sba(iMAG
Car
p2735
(dp2736
g10
(lp2737
I3
aI2
asg12
g1075
sg14
(lp2738
sg16
g1069
sg18
(lp2739
I3
aI0
asg20
I3
sg21
g2461
sg23
I00
sba(iMAG
Car
p2740
(dp2741
g10
(lp2742
I5
aI5
asg12
g1082
sg14
(lp2743
sg16
g1069
sg18
(lp2744
I5
aI3
asg20
I3
sg21
g2352
sg23
I00
sba(iMAG
Car
p2745
(dp2746
g10
(lp2747
I2
aI3
asg12
g1089
sg14
(lp2748
sg16
g1069
sg18
(lp2749
I2
aI1
asg20
I3
sg21
g2699
sg23
I00
sba(iMAG
Car
p2750
(dp2751
g10
(lp2752
I1
aI4
asg12
g1096
sg14
(lp2753
sg16
g1069
sg18
(lp2754
I0
aI4
asg20
I2
sg21
g126
(g127
(S'S1'
p2755
I0
I1
tp2756
Rp2757
(I3
S'|'
p2758
NNNI1
I1
I0
tp2759
bg340
tp2760
Rp2761
sg23
I00
sba(iMAG
Car
p2762
(dp2763
g10
(lp2764
I1
aI2
asg12
g1103
sg14
(lp2765
sg16
g1069
sg18
(lp2766
I0
aI2
asg20
I2
sg21
g2652
sg23
I00
sba(iMAG
Car
p2767
(dp2768
g10
(lp2769
I2
aI0
asg12
g1110
sg14
(lp2770
sg16
g1069
sg18
(lp2771
I1
aI0
asg20
I2
sg21
g2543
sg23
I00
sba(iMAG
Car
p2772
(dp2773
g10
(lp2774
I5
aI0
asg12
g1117
sg14
(lp2775
sg16
g1069
sg18
(lp2776
I4
aI0
asg20
I2
sg21
g2434
sg23
I00
sba(iMAG
Car
p2777
(dp2778
g10
(lp2779
I1
aI5
asg12
g1124
sg14
(lp2780
sg16
g1069
sg18
(lp2781
I0
aI5
asg20
I2
sg21
g2097
sg23
I00
sbasg80
Nsg81
S'144077\n1.50..\nRR50..>\n..5..3\n22...3\n66...3\n'
p2782
sba(inode
Node
p2783
(dp2784
g3
Nsg4
(lp2785
sg6
(lp2786
(iMAG
Car
p2787
(dp2788
g10
(lp2789
I0
aI1
asg12
g1067
sg14
(lp2790
sg16
g1069
sg18
(lp2791
I0
aI0
asg20
I2
sg21
g2570
sg23
I00
sba(iMAG
Car
p2792
(dp2793
g10
(lp2794
I3
aI5
asg12
g1075
sg14
(lp2795
sg16
g1069
sg18
(lp2796
I3
aI3
asg20
I3
sg21
g126
(g127
(S'S1'
p2797
I0
I1
tp2798
Rp2799
(I3
S'|'
p2800
NNNI1
I1
I0
tp2801
bg176
tp2802
Rp2803
sg23
I00
sba(iMAG
Car
p2804
(dp2805
g10
(lp2806
I5
aI5
asg12
g1082
sg14
(lp2807
sg16
g1069
sg18
(lp2808
I5
aI3
asg20
I3
sg21
g2352
sg23
I00
sba(iMAG
Car
p2809
(dp2810
g10
(lp2811
I2
aI3
asg12
g1089
sg14
(lp2812
sg16
g1069
sg18
(lp2813
I2
aI1
asg20
I3
sg21
g2699
sg23
I00
sba(iMAG
Car
p2814
(dp2815
g10
(lp2816
I1
aI4
asg12
g1096
sg14
(lp2817
sg16
g1069
sg18
(lp2818
I0
aI4
asg20
I2
sg21
g2761
sg23
I00
sba(iMAG
Car
p2819
(dp2820
g10
(lp2821
I1
aI2
asg12
g1103
sg14
(lp2822
sg16
g1069
sg18
(lp2823
I0
aI2
asg20
I2
sg21
g2652
sg23
I00
sba(iMAG
Car
p2824
(dp2825
g10
(lp2826
I2
aI0
asg12
g1110
sg14
(lp2827
sg16
g1069
sg18
(lp2828
I1
aI0
asg20
I2
sg21
g2543
sg23
I00
sba(iMAG
Car
p2829
(dp2830
g10
(lp2831
I5
aI0
asg12
g1117
sg14
(lp2832
sg16
g1069
sg18
(lp2833
I4
aI0
asg20
I2
sg21
g2434
sg23
I00
sba(iMAG
Car
p2834
(dp2835
g10
(lp2836
I1
aI5
asg12
g1124
sg14
(lp2837
sg16
g1069
sg18
(lp2838
I0
aI5
asg20
I2
sg21
g2097
sg23
I00
sbasg80
Nsg81
S'144.77\n1.5...\nRR5...>\n..50.3\n22.0.3\n66.0.3\n'
p2839
sba(inode
Node
p2840
(dp2841
g3
Nsg4
(lp2842
sg6
(lp2843
(iMAG
Car
p2844
(dp2845
g10
(lp2846
I0
aI1
asg12
g1067
sg14
(lp2847
sg16
g1069
sg18
(lp2848
I0
aI0
asg20
I2
sg21
g2570
sg23
I00
sba(iMAG
Car
p2849
(dp2850
g10
(lp2851
I3
aI5
asg12
g1075
sg14
(lp2852
sg16
g1069
sg18
(lp2853
I3
aI3
asg20
I3
sg21
g2803
sg23
I00
sba(iMAG
Car
p2854
(dp2855
g10
(lp2856
I5
aI5
asg12
g1082
sg14
(lp2857
sg16
g1069
sg18
(lp2858
I5
aI3
asg20
I3
sg21
g2352
sg23
I00
sba(iMAG
Car
p2859
(dp2860
g10
(lp2861
I2
aI5
asg12
g1089
sg14
(lp2862
sg16
g1069
sg18
(lp2863
I2
aI3
asg20
I3
sg21
g126
(g127
(S'S1'
p2864
I0
I1
tp2865
Rp2866
(I3
S'|'
p2867
NNNI1
I1
I0
tp2868
bg244
tp2869
Rp2870
sg23
I00
sba(iMAG
Car
p2871
(dp2872
g10
(lp2873
I1
aI4
asg12
g1096
sg14
(lp2874
sg16
g1069
sg18
(lp2875
I0
aI4
asg20
I2
sg21
g2761
sg23
I00
sba(iMAG
Car
p2876
(dp2877
g10
(lp2878
I1
aI2
asg12
g1103
sg14
(lp2879
sg16
g1069
sg18
(lp2880
I0
aI2
asg20
I2
sg21
g2652
sg23
I00
sba(iMAG
Car
p2881
(dp2882
g10
(lp2883
I2
aI0
asg12
g1110
sg14
(lp2884
sg16
g1069
sg18
(lp2885
I1
aI0
asg20
I2
sg21
g2543
sg23
I00
sba(iMAG
Car
p2886
(dp2887
g10
(lp2888
I5
aI0
asg12
g1117
sg14
(lp2889
sg16
g1069
sg18
(lp2890
I4
aI0
asg20
I2
sg21
g2434
sg23
I00
sba(iMAG
Car
p2891
(dp2892
g10
(lp2893
I1
aI5
asg12
g1124
sg14
(lp2894
sg16
g1069
sg18
(lp2895
I0
aI5
asg20
I2
sg21
g2097
sg23
I00
sbasg80
Nsg81
S'144.77\n1.....\nRR....>\n..50.3\n2250.3\n6650.3\n'
p2896
sba(inode
Node
p2897
(dp2898
g3
Nsg4
(lp2899
sg6
(lp2900
(iMAG
Car
p2901
(dp2902
g10
(lp2903
I5
aI2
asg12
Vvertical
p2904
sg14
(lp2905
sg16
Vprb38526
p2906
sg18
(lp2907
I5
aI1
asg20
I2
sg21
V1
p2908
sg23
I00
sba(iMAG
Car
p2909
(dp2910
g10
(lp2911
I4
aI4
asg12
Vvertical
p2912
sg14
(lp2913
sg16
g2906
sg18
(lp2914
I4
aI3
asg20
I2
sg21
V3
p2915
sg23
I00
sba(iMAG
Car
p2916
(dp2917
g10
(lp2918
I1
aI5
asg12
Vvertical
p2919
sg14
(lp2920
sg16
g2906
sg18
(lp2921
I1
aI4
asg20
I2
sg21
V5
p2922
sg23
I00
sba(iMAG
Car
p2923
(dp2924
g10
(lp2925
I3
aI3
asg12
Vvertical
p2926
sg14
(lp2927
sg16
g2906
sg18
(lp2928
I3
aI1
asg20
I3
sg21
V4
p2929
sg23
I00
sba(iMAG
Car
p2930
(dp2931
g10
(lp2932
I5
aI4
asg12
Vvertical
p2933
sg14
(lp2934
sg16
g2906
sg18
(lp2935
I5
aI3
asg20
I2
sg21
V7
p2936
sg23
I00
sba(iMAG
Car
p2937
(dp2938
g10
(lp2939
I3
aI0
asg12
Vhorizontal
p2940
sg14
(lp2941
sg16
g2906
sg18
(lp2942
I1
aI0
asg20
I3
sg21
V2
p2943
sg23
I00
sba(iMAG
Car
p2944
(dp2945
g10
(lp2946
I2
aI3
asg12
Vhorizontal
p2947
sg14
(lp2948
sg16
g2906
sg18
(lp2949
I1
aI3
asg20
I2
sg21
V0
p2950
sg23
I00
sba(iMAG
Car
p2951
(dp2952
g10
(lp2953
I2
aI2
asg12
Vhorizontal
p2954
sg14
(lp2955
sg16
g2906
sg18
(lp2956
I1
aI2
asg20
I2
sg21
Vr
p2957
sg23
I00
sba(iMAG
Car
p2958
(dp2959
g10
(lp2960
I4
aI5
asg12
Vhorizontal
p2961
sg14
(lp2962
sg16
g2906
sg18
(lp2963
I2
aI5
asg20
I3
sg21
V6
p2964
sg23
I00
sbasg80
Nsg81
Nsba(inode
Node
p2965
(dp2966
g3
Nsg4
(lp2967
sg6
(lp2968
(iMAG
Car
p2969
(dp2970
g10
(lp2971
I5
aI2
asg12
g2904
sg14
(lp2972
sg16
g2906
sg18
(lp2973
I5
aI1
asg20
I2
sg21
g2908
sg23
I00
sba(iMAG
Car
p2974
(dp2975
g10
(lp2976
I4
aI4
asg12
g2912
sg14
(lp2977
sg16
g2906
sg18
(lp2978
I4
aI3
asg20
I2
sg21
g2915
sg23
I00
sba(iMAG
Car
p2979
(dp2980
g10
(lp2981
I1
aI5
asg12
g2919
sg14
(lp2982
sg16
g2906
sg18
(lp2983
I1
aI4
asg20
I2
sg21
g2922
sg23
I00
sba(iMAG
Car
p2984
(dp2985
g10
(lp2986
I3
aI3
asg12
g2926
sg14
(lp2987
sg16
g2906
sg18
(lp2988
I3
aI1
asg20
I3
sg21
g2929
sg23
I00
sba(iMAG
Car
p2989
(dp2990
g10
(lp2991
I5
aI4
asg12
g2933
sg14
(lp2992
sg16
g2906
sg18
(lp2993
I5
aI3
asg20
I2
sg21
g2936
sg23
I00
sba(iMAG
Car
p2994
(dp2995
g10
(lp2996
I2
aI0
asg12
g2940
sg14
(lp2997
sg16
g2906
sg18
(lp2998
I0
aI0
asg20
I3
sg21
g126
(g127
(S'S1'
p2999
I0
I1
tp3000
Rp3001
(I3
S'|'
p3002
NNNI1
I1
I0
tp3003
bg340
tp3004
Rp3005
sg23
I00
sba(iMAG
Car
p3006
(dp3007
g10
(lp3008
I2
aI3
asg12
g2947
sg14
(lp3009
sg16
g2906
sg18
(lp3010
I1
aI3
asg20
I2
sg21
g2950
sg23
I00
sba(iMAG
Car
p3011
(dp3012
g10
(lp3013
I2
aI2
asg12
g2954
sg14
(lp3014
sg16
g2906
sg18
(lp3015
I1
aI2
asg20
I2
sg21
g2957
sg23
I00
sba(iMAG
Car
p3016
(dp3017
g10
(lp3018
I4
aI5
asg12
g2961
sg14
(lp3019
sg16
g2906
sg18
(lp3020
I2
aI5
asg20
I3
sg21
g2964
sg23
I00
sbasg80
Nsg81
V222...\u000a...4.1\u000a.RR4.1>\u000a.00437\u000a.5..37\u000a.5666.\u000a
p3021
sba(inode
Node
p3022
(dp3023
g3
Nsg4
(lp3024
sg6
(lp3025
(iMAG
Car
p3026
(dp3027
g10
(lp3028
I5
aI2
asg12
g2904
sg14
(lp3029
sg16
g2906
sg18
(lp3030
I5
aI1
asg20
I2
sg21
g2908
sg23
I00
sba(iMAG
Car
p3031
(dp3032
g10
(lp3033
I4
aI4
asg12
g2912
sg14
(lp3034
sg16
g2906
sg18
(lp3035
I4
aI3
asg20
I2
sg21
g2915
sg23
I00
sba(iMAG
Car
p3036
(dp3037
g10
(lp3038
I1
aI5
asg12
g2919
sg14
(lp3039
sg16
g2906
sg18
(lp3040
I1
aI4
asg20
I2
sg21
g2922
sg23
I00
sba(iMAG
Car
p3041
(dp3042
g10
(lp3043
I3
aI2
asg12
g2926
sg14
(lp3044
sg16
g2906
sg18
(lp3045
I3
aI0
asg20
I3
sg21
g126
(g127
(S'S1'
p3046
I0
I1
tp3047
Rp3048
(I3
S'|'
p3049
NNNI1
I1
I0
tp3050
bg1457
tp3051
Rp3052
sg23
I00
sba(iMAG
Car
p3053
(dp3054
g10
(lp3055
I5
aI4
asg12
g2933
sg14
(lp3056
sg16
g2906
sg18
(lp3057
I5
aI3
asg20
I2
sg21
g2936
sg23
I00
sba(iMAG
Car
p3058
(dp3059
g10
(lp3060
I2
aI0
asg12
g2940
sg14
(lp3061
sg16
g2906
sg18
(lp3062
I0
aI0
asg20
I3
sg21
g3005
sg23
I00
sba(iMAG
Car
p3063
(dp3064
g10
(lp3065
I2
aI3
asg12
g2947
sg14
(lp3066
sg16
g2906
sg18
(lp3067
I1
aI3
asg20
I2
sg21
g2950
sg23
I00
sba(iMAG
Car
p3068
(dp3069
g10
(lp3070
I2
aI2
asg12
g2954
sg14
(lp3071
sg16
g2906
sg18
(lp3072
I1
aI2
asg20
I2
sg21
g2957
sg23
I00
sba(iMAG
Car
p3073
(dp3074
g10
(lp3075
I4
aI5
asg12
g2961
sg14
(lp3076
sg16
g2906
sg18
(lp3077
I2
aI5
asg20
I3
sg21
g2964
sg23
I00
sbasg80
Nsg81
V2224..\u000a...4.1\u000a.RR4.1>\u000a.00.37\u000a.5..37\u000a.5666.\u000a
p3078
sba(inode
Node
p3079
(dp3080
g3
Nsg4
(lp3081
sg6
(lp3082
(iMAG
Car
p3083
(dp3084
g10
(lp3085
I5
aI2
asg12
g2904
sg14
(lp3086
sg16
g2906
sg18
(lp3087
I5
aI1
asg20
I2
sg21
g2908
sg23
I00
sba(iMAG
Car
p3088
(dp3089
g10
(lp3090
I4
aI4
asg12
g2912
sg14
(lp3091
sg16
g2906
sg18
(lp3092
I4
aI3
asg20
I2
sg21
g2915
sg23
I00
sba(iMAG
Car
p3093
(dp3094
g10
(lp3095
I1
aI5
asg12
g2919
sg14
(lp3096
sg16
g2906
sg18
(lp3097
I1
aI4
asg20
I2
sg21
g2922
sg23
I00
sba(iMAG
Car
p3098
(dp3099
g10
(lp3100
I3
aI2
asg12
g2926
sg14
(lp3101
sg16
g2906
sg18
(lp3102
I3
aI0
asg20
I3
sg21
g3052
sg23
I00
sba(iMAG
Car
p3103
(dp3104
g10
(lp3105
I5
aI4
asg12
g2933
sg14
(lp3106
sg16
g2906
sg18
(lp3107
I5
aI3
asg20
I2
sg21
g2936
sg23
I00
sba(iMAG
Car
p3108
(dp3109
g10
(lp3110
I2
aI0
asg12
g2940
sg14
(lp3111
sg16
g2906
sg18
(lp3112
I0
aI0
asg20
I3
sg21
g3005
sg23
I00
sba(iMAG
Car
p3113
(dp3114
g10
(lp3115
I3
aI3
asg12
g2947
sg14
(lp3116
sg16
g2906
sg18
(lp3117
I2
aI3
asg20
I2
sg21
g126
(g127
(S'S1'
p3118
I0
I1
tp3119
Rp3120
(I3
S'|'
p3121
NNNI1
I1
I0
tp3122
bg176
tp3123
Rp3124
sg23
I00
sba(iMAG
Car
p3125
(dp3126
g10
(lp3127
I2
aI2
asg12
g2954
sg14
(lp3128
sg16
g2906
sg18
(lp3129
I1
aI2
asg20
I2
sg21
g2957
sg23
I00
sba(iMAG
Car
p3130
(dp3131
g10
(lp3132
I4
aI5
asg12
g2961
sg14
(lp3133
sg16
g2906
sg18
(lp3134
I2
aI5
asg20
I3
sg21
g2964
sg23
I00
sbasg80
Nsg81
V2224..\u000a...4.1\u000a.RR4.1>\u000a..0037\u000a.5..37\u000a.5666.\u000a
p3135
sba(inode
Node
p3136
(dp3137
g3
Nsg4
(lp3138
sg6
(lp3139
(iMAG
Car
p3140
(dp3141
g10
(lp3142
I5
aI2
asg12
g2904
sg14
(lp3143
sg16
g2906
sg18
(lp3144
I5
aI1
asg20
I2
sg21
g2908
sg23
I00
sba(iMAG
Car
p3145
(dp3146
g10
(lp3147
I4
aI4
asg12
g2912
sg14
(lp3148
sg16
g2906
sg18
(lp3149
I4
aI3
asg20
I2
sg21
g2915
sg23
I00
sba(iMAG
Car
p3150
(dp3151
g10
(lp3152
I1
aI4
asg12
g2919
sg14
(lp3153
sg16
g2906
sg18
(lp3154
I1
aI3
asg20
I2
sg21
g126
(g127
(S'S1'
p3155
I0
I1
tp3156
Rp3157
(I3
S'|'
p3158
NNNI1
I1
I0
tp3159
bg244
tp3160
Rp3161
sg23
I00
sba(iMAG
Car
p3162
(dp3163
g10
(lp3164
I3
aI2
asg12
g2926
sg14
(lp3165
sg16
g2906
sg18
(lp3166
I3
aI0
asg20
I3
sg21
g3052
sg23
I00
sba(iMAG
Car
p3167
(dp3168
g10
(lp3169
I5
aI4
asg12
g2933
sg14
(lp3170
sg16
g2906
sg18
(lp3171
I5
aI3
asg20
I2
sg21
g2936
sg23
I00
sba(iMAG
Car
p3172
(dp3173
g10
(lp3174
I2
aI0
asg12
g2940
sg14
(lp3175
sg16
g2906
sg18
(lp3176
I0
aI0
asg20
I3
sg21
g3005
sg23
I00
sba(iMAG
Car
p3177
(dp3178
g10
(lp3179
I3
aI3
asg12
g2947
sg14
(lp3180
sg16
g2906
sg18
(lp3181
I2
aI3
asg20
I2
sg21
g3124
sg23
I00
sba(iMAG
Car
p3182
(dp3183
g10
(lp3184
I2
aI2
asg12
g2954
sg14
(lp3185
sg16
g2906
sg18
(lp3186
I1
aI2
asg20
I2
sg21
g2957
sg23
I00
sba(iMAG
Car
p3187
(dp3188
g10
(lp3189
I4
aI5
asg12
g2961
sg14
(lp3190
sg16
g2906
sg18
(lp3191
I2
aI5
asg20
I3
sg21
g2964
sg23
I00
sbasg80
Nsg81
V2224..\u000a...4.1\u000a.RR4.1>\u000a.50037\u000a.5..37\u000a..666.\u000a
p3192
sba(inode
Node
p3193
(dp3194
g3
Nsg4
(lp3195
sg6
(lp3196
(iMAG
Car
p3197
(dp3198
g10
(lp3199
I5
aI2
asg12
g2904
sg14
(lp3200
sg16
g2906
sg18
(lp3201
I5
aI1
asg20
I2
sg21
g2908
sg23
I00
sba(iMAG
Car
p3202
(dp3203
g10
(lp3204
I4
aI4
asg12
g2912
sg14
(lp3205
sg16
g2906
sg18
(lp3206
I4
aI3
asg20
I2
sg21
g2915
sg23
I00
sba(iMAG
Car
p3207
(dp3208
g10
(lp3209
I1
aI4
asg12
g2919
sg14
(lp3210
sg16
g2906
sg18
(lp3211
I1
aI3
asg20
I2
sg21
g3161
sg23
I00
sba(iMAG
Car
p3212
(dp3213
g10
(lp3214
I3
aI2
asg12
g2926
sg14
(lp3215
sg16
g2906
sg18
(lp3216
I3
aI0
asg20
I3
sg21
g3052
sg23
I00
sba(iMAG
Car
p3217
(dp3218
g10
(lp3219
I5
aI4
asg12
g2933
sg14
(lp3220
sg16
g2906
sg18
(lp3221
I5
aI3
asg20
I2
sg21
g2936
sg23
I00
sba(iMAG
Car
p3222
(dp3223
g10
(lp3224
I2
aI0
asg12
g2940
sg14
(lp3225
sg16
g2906
sg18
(lp3226
I0
aI0
asg20
I3
sg21
g3005
sg23
I00
sba(iMAG
Car
p3227
(dp3228
g10
(lp3229
I3
aI3
asg12
g2947
sg14
(lp3230
sg16
g2906
sg18
(lp3231
I2
aI3
asg20
I2
sg21
g3124
sg23
I00
sba(iMAG
Car
p3232
(dp3233
g10
(lp3234
I2
aI2
asg12
g2954
sg14
(lp3235
sg16
g2906
sg18
(lp3236
I1
aI2
asg20
I2
sg21
g2957
sg23
I00
sba(iMAG
Car
p3237
(dp3238
g10
(lp3239
I2
aI5
asg12
g2961
sg14
(lp3240
sg16
g2906
sg18
(lp3241
I0
aI5
asg20
I3
sg21
g126
(g127
(S'S1'
p3242
I0
I1
tp3243
Rp3244
(I3
S'|'
p3245
NNNI1
I1
I0
tp3246
bg312
tp3247
Rp3248
sg23
I00
sbasg80
Nsg81
V2224..\u000a...4.1\u000a.RR4.1>\u000a.50037\u000a.5..37\u000a666...\u000a
p3249
sba(inode
Node
p3250
(dp3251
g3
Nsg4
(lp3252
sg6
(lp3253
(iMAG
Car
p3254
(dp3255
g10
(lp3256
I5
aI2
asg12
g2904
sg14
(lp3257
sg16
g2906
sg18
(lp3258
I5
aI1
asg20
I2
sg21
g2908
sg23
I00
sba(iMAG
Car
p3259
(dp3260
g10
(lp3261
I4
aI5
asg12
g2912
sg14
(lp3262
sg16
g2906
sg18
(lp3263
I4
aI4
asg20
I2
sg21
g126
(g127
(S'S1'
p3264
I0
I1
tp3265
Rp3266
(I3
S'|'
p3267
NNNI1
I1
I0
tp3268
bg907
tp3269
Rp3270
sg23
I00
sba(iMAG
Car
p3271
(dp3272
g10
(lp3273
I1
aI4
asg12
g2919
sg14
(lp3274
sg16
g2906
sg18
(lp3275
I1
aI3
asg20
I2
sg21
g3161
sg23
I00
sba(iMAG
Car
p3276
(dp3277
g10
(lp3278
I3
aI2
asg12
g2926
sg14
(lp3279
sg16
g2906
sg18
(lp3280
I3
aI0
asg20
I3
sg21
g3052
sg23
I00
sba(iMAG
Car
p3281
(dp3282
g10
(lp3283
I5
aI4
asg12
g2933
sg14
(lp3284
sg16
g2906
sg18
(lp3285
I5
aI3
asg20
I2
sg21
g2936
sg23
I00
sba(iMAG
Car
p3286
(dp3287
g10
(lp3288
I2
aI0
asg12
g2940
sg14
(lp3289
sg16
g2906
sg18
(lp3290
I0
aI0
asg20
I3
sg21
g3005
sg23
I00
sba(iMAG
Car
p3291
(dp3292
g10
(lp3293
I3
aI3
asg12
g2947
sg14
(lp3294
sg16
g2906
sg18
(lp3295
I2
aI3
asg20
I2
sg21
g3124
sg23
I00
sba(iMAG
Car
p3296
(dp3297
g10
(lp3298
I2
aI2
asg12
g2954
sg14
(lp3299
sg16
g2906
sg18
(lp3300
I1
aI2
asg20
I2
sg21
g2957
sg23
I00
sba(iMAG
Car
p3301
(dp3302
g10
(lp3303
I2
aI5
asg12
g2961
sg14
(lp3304
sg16
g2906
sg18
(lp3305
I0
aI5
asg20
I3
sg21
g3248
sg23
I00
sbasg80
Nsg81
V2224..\u000a...4.1\u000a.RR4.1>\u000a.500.7\u000a.5..37\u000a666.3.\u000a
p3306
sba(inode
Node
p3307
(dp3308
g3
Nsg4
(lp3309
sg6
(lp3310
(iMAG
Car
p3311
(dp3312
g10
(lp3313
I5
aI2
asg12
g2904
sg14
(lp3314
sg16
g2906
sg18
(lp3315
I5
aI1
asg20
I2
sg21
g2908
sg23
I00
sba(iMAG
Car
p3316
(dp3317
g10
(lp3318
I4
aI5
asg12
g2912
sg14
(lp3319
sg16
g2906
sg18
(lp3320
I4
aI4
asg20
I2
sg21
g3270
sg23
I00
sba(iMAG
Car
p3321
(dp3322
g10
(lp3323
I1
aI4
asg12
g2919
sg14
(lp3324
sg16
g2906
sg18
(lp3325
I1
aI3
asg20
I2
sg21
g3161
sg23
I00
sba(iMAG
Car
p3326
(dp3327
g10
(lp3328
I3
aI2
asg12
g2926
sg14
(lp3329
sg16
g2906
sg18
(lp3330
I3
aI0
asg20
I3
sg21
g3052
sg23
I00
sba(iMAG
Car
p3331
(dp3332
g10
(lp3333
I5
aI5
asg12
g2933
sg14
(lp3334
sg16
g2906
sg18
(lp3335
I5
aI4
asg20
I2
sg21
g126
(g127
(S'S1'
p3336
I0
I1
tp3337
Rp3338
(I3
S'|'
p3339
NNNI1
I1
I0
tp3340
bg133
tp3341
Rp3342
sg23
I00
sba(iMAG
Car
p3343
(dp3344
g10
(lp3345
I2
aI0
asg12
g2940
sg14
(lp3346
sg16
g2906
sg18
(lp3347
I0
aI0
asg20
I3
sg21
g3005
sg23
I00
sba(iMAG
Car
p3348
(dp3349
g10
(lp3350
I3
aI3
asg12
g2947
sg14
(lp3351
sg16
g2906
sg18
(lp3352
I2
aI3
asg20
I2
sg21
g3124
sg23
I00
sba(iMAG
Car
p3353
(dp3354
g10
(lp3355
I2
aI2
asg12
g2954
sg14
(lp3356
sg16
g2906
sg18
(lp3357
I1
aI2
asg20
I2
sg21
g2957
sg23
I00
sba(iMAG
Car
p3358
(dp3359
g10
(lp3360
I2
aI5
asg12
g2961
sg14
(lp3361
sg16
g2906
sg18
(lp3362
I0
aI5
asg20
I3
sg21
g3248
sg23
I00
sbasg80
Nsg81
V2224..\u000a...4.1\u000a.RR4.1>\u000a.500..\u000a.5..37\u000a666.37\u000a
p3363
sba(inode
Node
p3364
(dp3365
g3
Nsg4
(lp3366
sg6
(lp3367
(iMAG
Car
p3368
(dp3369
g10
(lp3370
I5
aI1
asg12
g2904
sg14
(lp3371
sg16
g2906
sg18
(lp3372
I5
aI0
asg20
I2
sg21
g126
(g127
(S'S1'
p3373
I0
I1
tp3374
Rp3375
(I3
S'|'
p3376
NNNI1
I1
I0
tp3377
bg502
tp3378
Rp3379
sg23
I00
sba(iMAG
Car
p3380
(dp3381
g10
(lp3382
I4
aI5
asg12
g2912
sg14
(lp3383
sg16
g2906
sg18
(lp3384
I4
aI4
asg20
I2
sg21
g3270
sg23
I00
sba(iMAG
Car
p3385
(dp3386
g10
(lp3387
I1
aI4
asg12
g2919
sg14
(lp3388
sg16
g2906
sg18
(lp3389
I1
aI3
asg20
I2
sg21
g3161
sg23
I00
sba(iMAG
Car
p3390
(dp3391
g10
(lp3392
I3
aI2
asg12
g2926
sg14
(lp3393
sg16
g2906
sg18
(lp3394
I3
aI0
asg20
I3
sg21
g3052
sg23
I00
sba(iMAG
Car
p3395
(dp3396
g10
(lp3397
I5
aI5
asg12
g2933
sg14
(lp3398
sg16
g2906
sg18
(lp3399
I5
aI4
asg20
I2
sg21
g3342
sg23
I00
sba(iMAG
Car
p3400
(dp3401
g10
(lp3402
I2
aI0
asg12
g2940
sg14
(lp3403
sg16
g2906
sg18
(lp3404
I0
aI0
asg20
I3
sg21
g3005
sg23
I00
sba(iMAG
Car
p3405
(dp3406
g10
(lp3407
I3
aI3
asg12
g2947
sg14
(lp3408
sg16
g2906
sg18
(lp3409
I2
aI3
asg20
I2
sg21
g3124
sg23
I00
sba(iMAG
Car
p3410
(dp3411
g10
(lp3412
I2
aI2
asg12
g2954
sg14
(lp3413
sg16
g2906
sg18
(lp3414
I1
aI2
asg20
I2
sg21
g2957
sg23
I00
sba(iMAG
Car
p3415
(dp3416
g10
(lp3417
I2
aI5
asg12
g2961
sg14
(lp3418
sg16
g2906
sg18
(lp3419
I0
aI5
asg20
I3
sg21
g3248
sg23
I00
sbasg80
Nsg81
S'2224.1\n...4.1\n.RR4..>\n.500..\n.5..37\n666.37\n'
p3420
sba(inode
Node
p3421
(dp3422
g3
Nsg4
(lp3423
sg6
(lp3424
(iMAG
Car
p3425
(dp3426
g10
(lp3427
I5
aI1
asg12
g2904
sg14
(lp3428
sg16
g2906
sg18
(lp3429
I5
aI0
asg20
I2
sg21
g3379
sg23
I00
sba(iMAG
Car
p3430
(dp3431
g10
(lp3432
I4
aI5
asg12
g2912
sg14
(lp3433
sg16
g2906
sg18
(lp3434
I4
aI4
asg20
I2
sg21
g3270
sg23
I00
sba(iMAG
Car
p3435
(dp3436
g10
(lp3437
I1
aI4
asg12
g2919
sg14
(lp3438
sg16
g2906
sg18
(lp3439
I1
aI3
asg20
I2
sg21
g3161
sg23
I00
sba(iMAG
Car
p3440
(dp3441
g10
(lp3442
I3
aI2
asg12
g2926
sg14
(lp3443
sg16
g2906
sg18
(lp3444
I3
aI0
asg20
I3
sg21
g3052
sg23
I00
sba(iMAG
Car
p3445
(dp3446
g10
(lp3447
I5
aI5
asg12
g2933
sg14
(lp3448
sg16
g2906
sg18
(lp3449
I5
aI4
asg20
I2
sg21
g3342
sg23
I00
sba(iMAG
Car
p3450
(dp3451
g10
(lp3452
I2
aI0
asg12
g2940
sg14
(lp3453
sg16
g2906
sg18
(lp3454
I0
aI0
asg20
I3
sg21
g3005
sg23
I00
sba(iMAG
Car
p3455
(dp3456
g10
(lp3457
I5
aI3
asg12
g2947
sg14
(lp3458
sg16
g2906
sg18
(lp3459
I4
aI3
asg20
I2
sg21
g126
(g127
(S'S1'
p3460
I0
I1
tp3461
Rp3462
(I3
S'|'
p3463
NNNI1
I1
I0
tp3464
bg176
tp3465
Rp3466
sg23
I00
sba(iMAG
Car
p3467
(dp3468
g10
(lp3469
I2
aI2
asg12
g2954
sg14
(lp3470
sg16
g2906
sg18
(lp3471
I1
aI2
asg20
I2
sg21
g2957
sg23
I00
sba(iMAG
Car
p3472
(dp3473
g10
(lp3474
I2
aI5
asg12
g2961
sg14
(lp3475
sg16
g2906
sg18
(lp3476
I0
aI5
asg20
I3
sg21
g3248
sg23
I00
sbasg80
Nsg81
S'2224.1\n...4.1\n.RR4..>\n.5..00\n.5..37\n666.37\n'
p3477
sba(inode
Node
p3478
(dp3479
g3
Nsg4
(lp3480
sg6
(lp3481
(iMAG
Car
p3482
(dp3483
g10
(lp3484
I5
aI1
asg12
g2904
sg14
(lp3485
sg16
g2906
sg18
(lp3486
I5
aI0
asg20
I2
sg21
g3379
sg23
I00
sba(iMAG
Car
p3487
(dp3488
g10
(lp3489
I4
aI5
asg12
g2912
sg14
(lp3490
sg16
g2906
sg18
(lp3491
I4
aI4
asg20
I2
sg21
g3270
sg23
I00
sba(iMAG
Car
p3492
(dp3493
g10
(lp3494
I1
aI4
asg12
g2919
sg14
(lp3495
sg16
g2906
sg18
(lp3496
I1
aI3
asg20
I2
sg21
g3161
sg23
I00
sba(iMAG
Car
p3497
(dp3498
g10
(lp3499
I3
aI5
asg12
g2926
sg14
(lp3500
sg16
g2906
sg18
(lp3501
I3
aI3
asg20
I3
sg21
g126
(g127
(S'S1'
p3502
I0
I1
tp3503
Rp3504
(I3
S'|'
p3505
NNNI1
I1
I0
tp3506
bg1457
tp3507
Rp3508
sg23
I00
sba(iMAG
Car
p3509
(dp3510
g10
(lp3511
I5
aI5
asg12
g2933
sg14
(lp3512
sg16
g2906
sg18
(lp3513
I5
aI4
asg20
I2
sg21
g3342
sg23
I00
sba(iMAG
Car
p3514
(dp3515
g10
(lp3516
I2
aI0
asg12
g2940
sg14
(lp3517
sg16
g2906
sg18
(lp3518
I0
aI0
asg20
I3
sg21
g3005
sg23
I00
sba(iMAG
Car
p3519
(dp3520
g10
(lp3521
I5
aI3
asg12
g2947
sg14
(lp3522
sg16
g2906
sg18
(lp3523
I4
aI3
asg20
I2
sg21
g3466
sg23
I00
sba(iMAG
Car
p3524
(dp3525
g10
(lp3526
I2
aI2
asg12
g2954
sg14
(lp3527
sg16
g2906
sg18
(lp3528
I1
aI2
asg20
I2
sg21
g2957
sg23
I00
sba(iMAG
Car
p3529
(dp3530
g10
(lp3531
I2
aI5
asg12
g2961
sg14
(lp3532
sg16
g2906
sg18
(lp3533
I0
aI5
asg20
I3
sg21
g3248
sg23
I00
sbasg80
Nsg81
S'222..1\n.....1\n.RR...>\n.5.400\n.5.437\n666437\n'
p3534
sba.