(lp0
(i__main__
Node
p1
(dp2
S'_Node__red'
p3
NsS'_Node__children'
p4
(lp5
sS'_Node__car_list'
p6
(lp7
(iMAG
Car
p8
(dp9
S'end'
p10
(lp11
I0
aI2
asS'orientation'
p12
Vvertical
p13
sS'edge_to'
p14
(lp15
sS'puzzle_tag'
p16
Vprb11647
p17
sS'start'
p18
(lp19
I0
aI1
asS'length'
p20
I2
sS'tag'
p21
V1
p22
sS'visited'
p23
I00
sba(iMAG
Car
p24
(dp25
g10
(lp26
I3
aI2
asg12
Vvertical
p27
sg14
(lp28
sg16
g17
sg18
(lp29
I3
aI0
asg20
I3
sg21
V3
p30
sg23
I00
sba(iMAG
Car
p31
(dp32
g10
(lp33
I4
aI2
asg12
Vvertical
p34
sg14
(lp35
sg16
g17
sg18
(lp36
I4
aI1
asg20
I2
sg21
V2
p37
sg23
I00
sba(iMAG
Car
p38
(dp39
g10
(lp40
I2
aI1
asg12
Vvertical
p41
sg14
(lp42
sg16
g17
sg18
(lp43
I2
aI0
asg20
I2
sg21
V4
p44
sg23
I00
sba(iMAG
Car
p45
(dp46
g10
(lp47
I2
aI4
asg12
Vhorizontal
p48
sg14
(lp49
sg16
g17
sg18
(lp50
I1
aI4
asg20
I2
sg21
V0
p51
sg23
I00
sba(iMAG
Car
p52
(dp53
g10
(lp54
I2
aI2
asg12
Vhorizontal
p55
sg14
(lp56
sg16
g17
sg18
(lp57
I1
aI2
asg20
I2
sg21
Vr
p58
sg23
I00
sba(iMAG
Car
p59
(dp60
g10
(lp61
I4
aI4
asg12
Vhorizontal
p62
sg14
(lp63
sg16
g17
sg18
(lp64
I3
aI4
asg20
I2
sg21
V5
p65
sg23
I00
sba(iMAG
Car
p66
(dp67
g10
(lp68
I5
aI3
asg12
Vhorizontal
p69
sg14
(lp70
sg16
g17
sg18
(lp71
I3
aI3
asg20
I3
sg21
V7
p72
sg23
I00
sba(iMAG
Car
p73
(dp74
g10
(lp75
I3
aI5
asg12
Vhorizontal
p76
sg14
(lp77
sg16
g17
sg18
(lp78
I1
aI5
asg20
I3
sg21
V6
p79
sg23
I00
sbasS'_Node__value'
p80
NsS'_Node__board'
p81
Nsba(i__main__
Node
p82
(dp83
g3
Nsg4
(lp84
sg6
(lp85
(iMAG
Car
p86
(dp87
g10
(lp88
I0
aI2
asg12
g13
sg14
(lp89
sg16
g17
sg18
(lp90
I0
aI1
asg20
I2
sg21
g22
sg23
I00
sba(iMAG
Car
p91
(dp92
g10
(lp93
I3
aI2
asg12
g27
sg14
(lp94
sg16
g17
sg18
(lp95
I3
aI0
asg20
I3
sg21
g30
sg23
I00
sba(iMAG
Car
p96
(dp97
g10
(lp98
I4
aI2
asg12
g34
sg14
(lp99
sg16
g17
sg18
(lp100
I4
aI1
asg20
I2
sg21
g37
sg23
I00
sba(iMAG
Car
p101
(dp102
g10
(lp103
I2
aI1
asg12
g41
sg14
(lp104
sg16
g17
sg18
(lp105
I2
aI0
asg20
I2
sg21
g44
sg23
I00
sba(iMAG
Car
p106
(dp107
g10
(lp108
I2
aI4
asg12
g48
sg14
(lp109
sg16
g17
sg18
(lp110
I1
aI4
asg20
I2
sg21
g51
sg23
I00
sba(iMAG
Car
p111
(dp112
g10
(lp113
I2
aI2
asg12
g55
sg14
(lp114
sg16
g17
sg18
(lp115
I1
aI2
asg20
I2
sg21
g58
sg23
I00
sba(iMAG
Car
p116
(dp117
g10
(lp118
I4
aI4
asg12
g62
sg14
(lp119
sg16
g17
sg18
(lp120
I3
aI4
asg20
I2
sg21
g65
sg23
I00
sba(iMAG
Car
p121
(dp122
g10
(lp123
I2
aI3
asg12
g69
sg14
(lp124
sg16
g17
sg18
(lp125
I0
aI3
asg20
I3
sg21
cnumpy.core.multiarray
scalar
p126
(cnumpy
dtype
p127
(S'S1'
p128
I0
I1
tp129
Rp130
(I3
S'|'
p131
NNNI1
I1
I0
tp132
bS'7'
p133
tp134
Rp135
sg23
I00
sba(iMAG
Car
p136
(dp137
g10
(lp138
I3
aI5
asg12
g76
sg14
(lp139
sg16
g17
sg18
(lp140
I1
aI5
asg20
I3
sg21
g79
sg23
I00
sbasg80
Nsg81
V..43..\u000a1.432.\u000a1RR32.>\u000a777...\u000a.0055.\u000a.666..\u000a
p141
sba(i__main__
Node
p142
(dp143
g3
Nsg4
(lp144
sg6
(lp145
(iMAG
Car
p146
(dp147
g10
(lp148
I0
aI2
asg12
g13
sg14
(lp149
sg16
g17
sg18
(lp150
I0
aI1
asg20
I2
sg21
g22
sg23
I00
sba(iMAG
Car
p151
(dp152
g10
(lp153
I3
aI2
asg12
g27
sg14
(lp154
sg16
g17
sg18
(lp155
I3
aI0
asg20
I3
sg21
g30
sg23
I00
sba(iMAG
Car
p156
(dp157
g10
(lp158
I4
aI2
asg12
g34
sg14
(lp159
sg16
g17
sg18
(lp160
I4
aI1
asg20
I2
sg21
g37
sg23
I00
sba(iMAG
Car
p161
(dp162
g10
(lp163
I2
aI1
asg12
g41
sg14
(lp164
sg16
g17
sg18
(lp165
I2
aI0
asg20
I2
sg21
g44
sg23
I00
sba(iMAG
Car
p166
(dp167
g10
(lp168
I1
aI4
asg12
g48
sg14
(lp169
sg16
g17
sg18
(lp170
I0
aI4
asg20
I2
sg21
g126
(g127
(S'S1'
p171
I0
I1
tp172
Rp173
(I3
S'|'
p174
NNNI1
I1
I0
tp175
bS'0'
p176
tp177
Rp178
sg23
I00
sba(iMAG
Car
p179
(dp180
g10
(lp181
I2
aI2
asg12
g55
sg14
(lp182
sg16
g17
sg18
(lp183
I1
aI2
asg20
I2
sg21
g58
sg23
I00
sba(iMAG
Car
p184
(dp185
g10
(lp186
I4
aI4
asg12
g62
sg14
(lp187
sg16
g17
sg18
(lp188
I3
aI4
asg20
I2
sg21
g65
sg23
I00
sba(iMAG
Car
p189
(dp190
g10
(lp191
I2
aI3
asg12
g69
sg14
(lp192
sg16
g17
sg18
(lp193
I0
aI3
asg20
I3
sg21
g135
sg23
I00
sba(iMAG
Car
p194
(dp195
g10
(lp196
I3
aI5
asg12
g76
sg14
(lp197
sg16
g17
sg18
(lp198
I1
aI5
asg20
I3
sg21
g79
sg23
I00
sbasg80
Nsg81
V..43..\u000a1.432.\u000a1RR32.>\u000a777...\u000a00.55.\u000a.666..\u000a
p199
sba(i__main__
Node
p200
(dp201
g3
Nsg4
(lp202
sg6
(lp203
(iMAG
Car
p204
(dp205
g10
(lp206
I0
aI2
asg12
g13
sg14
(lp207
sg16
g17
sg18
(lp208
I0
aI1
asg20
I2
sg21
g22
sg23
I00
sba(iMAG
Car
p209
(dp210
g10
(lp211
I3
aI2
asg12
g27
sg14
(lp212
sg16
g17
sg18
(lp213
I3
aI0
asg20
I3
sg21
g30
sg23
I00
sba(iMAG
Car
p214
(dp215
g10
(lp216
I4
aI2
asg12
g34
sg14
(lp217
sg16
g17
sg18
(lp218
I4
aI1
asg20
I2
sg21
g37
sg23
I00
sba(iMAG
Car
p219
(dp220
g10
(lp221
I2
aI1
asg12
g41
sg14
(lp222
sg16
g17
sg18
(lp223
I2
aI0
asg20
I2
sg21
g44
sg23
I00
sba(iMAG
Car
p224
(dp225
g10
(lp226
I1
aI4
asg12
g48
sg14
(lp227
sg16
g17
sg18
(lp228
I0
aI4
asg20
I2
sg21
g178
sg23
I00
sba(iMAG
Car
p229
(dp230
g10
(lp231
I2
aI2
asg12
g55
sg14
(lp232
sg16
g17
sg18
(lp233
I1
aI2
asg20
I2
sg21
g58
sg23
I00
sba(iMAG
Car
p234
(dp235
g10
(lp236
I3
aI4
asg12
g62
sg14
(lp237
sg16
g17
sg18
(lp238
I2
aI4
asg20
I2
sg21
g126
(g127
(S'S1'
p239
I0
I1
tp240
Rp241
(I3
S'|'
p242
NNNI1
I1
I0
tp243
bS'5'
p244
tp245
Rp246
sg23
I00
sba(iMAG
Car
p247
(dp248
g10
(lp249
I2
aI3
asg12
g69
sg14
(lp250
sg16
g17
sg18
(lp251
I0
aI3
asg20
I3
sg21
g135
sg23
I00
sba(iMAG
Car
p252
(dp253
g10
(lp254
I3
aI5
asg12
g76
sg14
(lp255
sg16
g17
sg18
(lp256
I1
aI5
asg20
I3
sg21
g79
sg23
I00
sbasg80
Nsg81
V..43..\u000a1.432.\u000a1RR32.>\u000a777...\u000a0055..\u000a.666..\u000a
p257
sba(i__main__
Node
p258
(dp259
g3
Nsg4
(lp260
sg6
(lp261
(iMAG
Car
p262
(dp263
g10
(lp264
I0
aI2
asg12
g13
sg14
(lp265
sg16
g17
sg18
(lp266
I0
aI1
asg20
I2
sg21
g22
sg23
I00
sba(iMAG
Car
p267
(dp268
g10
(lp269
I3
aI2
asg12
g27
sg14
(lp270
sg16
g17
sg18
(lp271
I3
aI0
asg20
I3
sg21
g30
sg23
I00
sba(iMAG
Car
p272
(dp273
g10
(lp274
I4
aI2
asg12
g34
sg14
(lp275
sg16
g17
sg18
(lp276
I4
aI1
asg20
I2
sg21
g37
sg23
I00
sba(iMAG
Car
p277
(dp278
g10
(lp279
I2
aI1
asg12
g41
sg14
(lp280
sg16
g17
sg18
(lp281
I2
aI0
asg20
I2
sg21
g44
sg23
I00
sba(iMAG
Car
p282
(dp283
g10
(lp284
I1
aI4
asg12
g48
sg14
(lp285
sg16
g17
sg18
(lp286
I0
aI4
asg20
I2
sg21
g178
sg23
I00
sba(iMAG
Car
p287
(dp288
g10
(lp289
I2
aI2
asg12
g55
sg14
(lp290
sg16
g17
sg18
(lp291
I1
aI2
asg20
I2
sg21
g58
sg23
I00
sba(iMAG
Car
p292
(dp293
g10
(lp294
I3
aI4
asg12
g62
sg14
(lp295
sg16
g17
sg18
(lp296
I2
aI4
asg20
I2
sg21
g246
sg23
I00
sba(iMAG
Car
p297
(dp298
g10
(lp299
I2
aI3
asg12
g69
sg14
(lp300
sg16
g17
sg18
(lp301
I0
aI3
asg20
I3
sg21
g135
sg23
I00
sba(iMAG
Car
p302
(dp303
g10
(lp304
I2
aI5
asg12
g76
sg14
(lp305
sg16
g17
sg18
(lp306
I0
aI5
asg20
I3
sg21
g126
(g127
(S'S1'
p307
I0
I1
tp308
Rp309
(I3
S'|'
p310
NNNI1
I1
I0
tp311
bS'6'
p312
tp313
Rp314
sg23
I00
sbasg80
Nsg81
V..43..\u000a1.432.\u000a1RR32.>\u000a777...\u000a0055..\u000a666...\u000a
p315
sba(i__main__
Node
p316
(dp317
g3
Nsg4
(lp318
sg6
(lp319
(iMAG
Car
p320
(dp321
g10
(lp322
I0
aI2
asg12
g13
sg14
(lp323
sg16
g17
sg18
(lp324
I0
aI1
asg20
I2
sg21
g22
sg23
I00
sba(iMAG
Car
p325
(dp326
g10
(lp327
I3
aI2
asg12
g27
sg14
(lp328
sg16
g17
sg18
(lp329
I3
aI0
asg20
I3
sg21
g30
sg23
I00
sba(iMAG
Car
p330
(dp331
g10
(lp332
I4
aI5
asg12
g34
sg14
(lp333
sg16
g17
sg18
(lp334
I4
aI4
asg20
I2
sg21
g126
(g127
(S'S1'
p335
I0
I1
tp336
Rp337
(I3
S'|'
p338
NNNI1
I1
I0
tp339
bS'2'
p340
tp341
Rp342
sg23
I00
sba(iMAG
Car
p343
(dp344
g10
(lp345
I2
aI1
asg12
g41
sg14
(lp346
sg16
g17
sg18
(lp347
I2
aI0
asg20
I2
sg21
g44
sg23
I00
sba(iMAG
Car
p348
(dp349
g10
(lp350
I1
aI4
asg12
g48
sg14
(lp351
sg16
g17
sg18
(lp352
I0
aI4
asg20
I2
sg21
g178
sg23
I00
sba(iMAG
Car
p353
(dp354
g10
(lp355
I2
aI2
asg12
g55
sg14
(lp356
sg16
g17
sg18
(lp357
I1
aI2
asg20
I2
sg21
g58
sg23
I00
sba(iMAG
Car
p358
(dp359
g10
(lp360
I3
aI4
asg12
g62
sg14
(lp361
sg16
g17
sg18
(lp362
I2
aI4
asg20
I2
sg21
g246
sg23
I00
sba(iMAG
Car
p363
(dp364
g10
(lp365
I2
aI3
asg12
g69
sg14
(lp366
sg16
g17
sg18
(lp367
I0
aI3
asg20
I3
sg21
g135
sg23
I00
sba(iMAG
Car
p368
(dp369
g10
(lp370
I2
aI5
asg12
g76
sg14
(lp371
sg16
g17
sg18
(lp372
I0
aI5
asg20
I3
sg21
g314
sg23
I00
sbasg80
Nsg81
V..43..\u000a1.43..\u000a1RR3..>\u000a777...\u000a00552.\u000a666.2.\u000a
p373
sba(i__main__
Node
p374
(dp375
g3
Nsg4
(lp376
sg6
(lp377
(iMAG
Car
p378
(dp379
g10
(lp380
I0
aI2
asg12
g13
sg14
(lp381
sg16
g17
sg18
(lp382
I0
aI1
asg20
I2
sg21
g22
sg23
I00
sba(iMAG
Car
p383
(dp384
g10
(lp385
I3
aI2
asg12
g27
sg14
(lp386
sg16
g17
sg18
(lp387
I3
aI0
asg20
I3
sg21
g30
sg23
I00
sba(iMAG
Car
p388
(dp389
g10
(lp390
I4
aI5
asg12
g34
sg14
(lp391
sg16
g17
sg18
(lp392
I4
aI4
asg20
I2
sg21
g342
sg23
I00
sba(iMAG
Car
p393
(dp394
g10
(lp395
I2
aI1
asg12
g41
sg14
(lp396
sg16
g17
sg18
(lp397
I2
aI0
asg20
I2
sg21
g44
sg23
I00
sba(iMAG
Car
p398
(dp399
g10
(lp400
I1
aI4
asg12
g48
sg14
(lp401
sg16
g17
sg18
(lp402
I0
aI4
asg20
I2
sg21
g178
sg23
I00
sba(iMAG
Car
p403
(dp404
g10
(lp405
I2
aI2
asg12
g55
sg14
(lp406
sg16
g17
sg18
(lp407
I1
aI2
asg20
I2
sg21
g58
sg23
I00
sba(iMAG
Car
p408
(dp409
g10
(lp410
I3
aI4
asg12
g62
sg14
(lp411
sg16
g17
sg18
(lp412
I2
aI4
asg20
I2
sg21
g246
sg23
I00
sba(iMAG
Car
p413
(dp414
g10
(lp415
I5
aI3
asg12
g69
sg14
(lp416
sg16
g17
sg18
(lp417
I3
aI3
asg20
I3
sg21
g126
(g127
(S'S1'
p418
I0
I1
tp419
Rp420
(I3
S'|'
p421
NNNI1
I1
I0
tp422
bg133
tp423
Rp424
sg23
I00
sba(iMAG
Car
p425
(dp426
g10
(lp427
I2
aI5
asg12
g76
sg14
(lp428
sg16
g17
sg18
(lp429
I0
aI5
asg20
I3
sg21
g314
sg23
I00
sbasg80
Nsg81
V..43..\u000a1.43..\u000a1RR3..>\u000a...777\u000a00552.\u000a666.2.\u000a
p430
sba(i__main__
Node
p431
(dp432
g3
Nsg4
(lp433
sg6
(lp434
(iMAG
Car
p435
(dp436
g10
(lp437
I0
aI2
asg12
g13
sg14
(lp438
sg16
g17
sg18
(lp439
I0
aI1
asg20
I2
sg21
g22
sg23
I00
sba(iMAG
Car
p440
(dp441
g10
(lp442
I3
aI2
asg12
g27
sg14
(lp443
sg16
g17
sg18
(lp444
I3
aI0
asg20
I3
sg21
g30
sg23
I00
sba(iMAG
Car
p445
(dp446
g10
(lp447
I4
aI5
asg12
g34
sg14
(lp448
sg16
g17
sg18
(lp449
I4
aI4
asg20
I2
sg21
g342
sg23
I00
sba(iMAG
Car
p450
(dp451
g10
(lp452
I2
aI1
asg12
g41
sg14
(lp453
sg16
g17
sg18
(lp454
I2
aI0
asg20
I2
sg21
g44
sg23
I00
sba(iMAG
Car
p455
(dp456
g10
(lp457
I1
aI4
asg12
g48
sg14
(lp458
sg16
g17
sg18
(lp459
I0
aI4
asg20
I2
sg21
g178
sg23
I00
sba(iMAG
Car
p460
(dp461
g10
(lp462
I2
aI2
asg12
g55
sg14
(lp463
sg16
g17
sg18
(lp464
I1
aI2
asg20
I2
sg21
g58
sg23
I00
sba(iMAG
Car
p465
(dp466
g10
(lp467
I3
aI4
asg12
g62
sg14
(lp468
sg16
g17
sg18
(lp469
I2
aI4
asg20
I2
sg21
g246
sg23
I00
sba(iMAG
Car
p470
(dp471
g10
(lp472
I5
aI3
asg12
g69
sg14
(lp473
sg16
g17
sg18
(lp474
I3
aI3
asg20
I3
sg21
g424
sg23
I00
sba(iMAG
Car
p475
(dp476
g10
(lp477
I3
aI5
asg12
g76
sg14
(lp478
sg16
g17
sg18
(lp479
I1
aI5
asg20
I3
sg21
g126
(g127
(S'S1'
p480
I0
I1
tp481
Rp482
(I3
S'|'
p483
NNNI1
I1
I0
tp484
bg312
tp485
Rp486
sg23
I00
sbasg80
Nsg81
V..43..\u000a1.43..\u000a1RR3..>\u000a...777\u000a00552.\u000a.6662.\u000a
p487
sba(i__main__
Node
p488
(dp489
g3
Nsg4
(lp490
sg6
(lp491
(iMAG
Car
p492
(dp493
g10
(lp494
I0
aI3
asg12
g13
sg14
(lp495
sg16
g17
sg18
(lp496
I0
aI2
asg20
I2
sg21
g126
(g127
(S'S1'
p497
I0
I1
tp498
Rp499
(I3
S'|'
p500
NNNI1
I1
I0
tp501
bS'1'
p502
tp503
Rp504
sg23
I00
sba(iMAG
Car
p505
(dp506
g10
(lp507
I3
aI2
asg12
g27
sg14
(lp508
sg16
g17
sg18
(lp509
I3
aI0
asg20
I3
sg21
g30
sg23
I00
sba(iMAG
Car
p510
(dp511
g10
(lp512
I4
aI5
asg12
g34
sg14
(lp513
sg16
g17
sg18
(lp514
I4
aI4
asg20
I2
sg21
g342
sg23
I00
sba(iMAG
Car
p515
(dp516
g10
(lp517
I2
aI1
asg12
g41
sg14
(lp518
sg16
g17
sg18
(lp519
I2
aI0
asg20
I2
sg21
g44
sg23
I00
sba(iMAG
Car
p520
(dp521
g10
(lp522
I1
aI4
asg12
g48
sg14
(lp523
sg16
g17
sg18
(lp524
I0
aI4
asg20
I2
sg21
g178
sg23
I00
sba(iMAG
Car
p525
(dp526
g10
(lp527
I2
aI2
asg12
g55
sg14
(lp528
sg16
g17
sg18
(lp529
I1
aI2
asg20
I2
sg21
g58
sg23
I00
sba(iMAG
Car
p530
(dp531
g10
(lp532
I3
aI4
asg12
g62
sg14
(lp533
sg16
g17
sg18
(lp534
I2
aI4
asg20
I2
sg21
g246
sg23
I00
sba(iMAG
Car
p535
(dp536
g10
(lp537
I5
aI3
asg12
g69
sg14
(lp538
sg16
g17
sg18
(lp539
I3
aI3
asg20
I3
sg21
g424
sg23
I00
sba(iMAG
Car
p540
(dp541
g10
(lp542
I3
aI5
asg12
g76
sg14
(lp543
sg16
g17
sg18
(lp544
I1
aI5
asg20
I3
sg21
g486
sg23
I00
sbasg80
Nsg81
V..43..\u000a..43..\u000a1RR3..>\u000a1..777\u000a00552.\u000a.6662.\u000a
p545
sba(i__main__
Node
p546
(dp547
g3
Nsg4
(lp548
sg6
(lp549
(iMAG
Car
p550
(dp551
g10
(lp552
I0
aI3
asg12
g13
sg14
(lp553
sg16
g17
sg18
(lp554
I0
aI2
asg20
I2
sg21
g504
sg23
I00
sba(iMAG
Car
p555
(dp556
g10
(lp557
I3
aI2
asg12
g27
sg14
(lp558
sg16
g17
sg18
(lp559
I3
aI0
asg20
I3
sg21
g30
sg23
I00
sba(iMAG
Car
p560
(dp561
g10
(lp562
I4
aI5
asg12
g34
sg14
(lp563
sg16
g17
sg18
(lp564
I4
aI4
asg20
I2
sg21
g342
sg23
I00
sba(iMAG
Car
p565
(dp566
g10
(lp567
I2
aI1
asg12
g41
sg14
(lp568
sg16
g17
sg18
(lp569
I2
aI0
asg20
I2
sg21
g44
sg23
I00
sba(iMAG
Car
p570
(dp571
g10
(lp572
I1
aI4
asg12
g48
sg14
(lp573
sg16
g17
sg18
(lp574
I0
aI4
asg20
I2
sg21
g178
sg23
I00
sba(iMAG
Car
p575
(dp576
g10
(lp577
I2
aI2
asg12
g55
sg14
(lp578
sg16
g17
sg18
(lp579
I1
aI2
asg20
I2
sg21
g58
sg23
I00
sba(iMAG
Car
p580
(dp581
g10
(lp582
I3
aI4
asg12
g62
sg14
(lp583
sg16
g17
sg18
(lp584
I2
aI4
asg20
I2
sg21
g246
sg23
I00
sba(iMAG
Car
p585
(dp586
g10
(lp587
I3
aI3
asg12
g69
sg14
(lp588
sg16
g17
sg18
(lp589
I1
aI3
asg20
I3
sg21
g126
(g127
(S'S1'
p590
I0
I1
tp591
Rp592
(I3
S'|'
p593
NNNI1
I1
I0
tp594
bg133
tp595
Rp596
sg23
I00
sba(iMAG
Car
p597
(dp598
g10
(lp599
I3
aI5
asg12
g76
sg14
(lp600
sg16
g17
sg18
(lp601
I1
aI5
asg20
I3
sg21
g486
sg23
I00
sbasg80
Nsg81
V..43..\u000a..43..\u000a1RR3..>\u000a1777..\u000a00552.\u000a.6662.\u000a
p602
sba(i__main__
Node
p603
(dp604
g3
Nsg4
(lp605
sg6
(lp606
(iMAG
Car
p607
(dp608
g10
(lp609
I0
aI3
asg12
g13
sg14
(lp610
sg16
g17
sg18
(lp611
I0
aI2
asg20
I2
sg21
g504
sg23
I00
sba(iMAG
Car
p612
(dp613
g10
(lp614
I3
aI2
asg12
g27
sg14
(lp615
sg16
g17
sg18
(lp616
I3
aI0
asg20
I3
sg21
g30
sg23
I00
sba(iMAG
Car
p617
(dp618
g10
(lp619
I4
aI1
asg12
g34
sg14
(lp620
sg16
g17
sg18
(lp621
I4
aI0
asg20
I2
sg21
g126
(g127
(S'S1'
p622
I0
I1
tp623
Rp624
(I3
S'|'
p625
NNNI1
I1
I0
tp626
bg340
tp627
Rp628
sg23
I00
sba(iMAG
Car
p629
(dp630
g10
(lp631
I2
aI1
asg12
g41
sg14
(lp632
sg16
g17
sg18
(lp633
I2
aI0
asg20
I2
sg21
g44
sg23
I00
sba(iMAG
Car
p634
(dp635
g10
(lp636
I1
aI4
asg12
g48
sg14
(lp637
sg16
g17
sg18
(lp638
I0
aI4
asg20
I2
sg21
g178
sg23
I00
sba(iMAG
Car
p639
(dp640
g10
(lp641
I2
aI2
asg12
g55
sg14
(lp642
sg16
g17
sg18
(lp643
I1
aI2
asg20
I2
sg21
g58
sg23
I00
sba(iMAG
Car
p644
(dp645
g10
(lp646
I3
aI4
asg12
g62
sg14
(lp647
sg16
g17
sg18
(lp648
I2
aI4
asg20
I2
sg21
g246
sg23
I00
sba(iMAG
Car
p649
(dp650
g10
(lp651
I3
aI3
asg12
g69
sg14
(lp652
sg16
g17
sg18
(lp653
I1
aI3
asg20
I3
sg21
g596
sg23
I00
sba(iMAG
Car
p654
(dp655
g10
(lp656
I3
aI5
asg12
g76
sg14
(lp657
sg16
g17
sg18
(lp658
I1
aI5
asg20
I3
sg21
g486
sg23
I00
sbasg80
Nsg81
V..432.\u000a..432.\u000a1RR3..>\u000a1777..\u000a0055..\u000a.666..\u000a
p659
sba(i__main__
Node
p660
(dp661
g3
Nsg4
(lp662
sg6
(lp663
(iMAG
Car
p664
(dp665
g10
(lp666
I0
aI3
asg12
g13
sg14
(lp667
sg16
g17
sg18
(lp668
I0
aI2
asg20
I2
sg21
g504
sg23
I00
sba(iMAG
Car
p669
(dp670
g10
(lp671
I3
aI2
asg12
g27
sg14
(lp672
sg16
g17
sg18
(lp673
I3
aI0
asg20
I3
sg21
g30
sg23
I00
sba(iMAG
Car
p674
(dp675
g10
(lp676
I4
aI1
asg12
g34
sg14
(lp677
sg16
g17
sg18
(lp678
I4
aI0
asg20
I2
sg21
g628
sg23
I00
sba(iMAG
Car
p679
(dp680
g10
(lp681
I2
aI1
asg12
g41
sg14
(lp682
sg16
g17
sg18
(lp683
I2
aI0
asg20
I2
sg21
g44
sg23
I00
sba(iMAG
Car
p684
(dp685
g10
(lp686
I1
aI4
asg12
g48
sg14
(lp687
sg16
g17
sg18
(lp688
I0
aI4
asg20
I2
sg21
g178
sg23
I00
sba(iMAG
Car
p689
(dp690
g10
(lp691
I2
aI2
asg12
g55
sg14
(lp692
sg16
g17
sg18
(lp693
I1
aI2
asg20
I2
sg21
g58
sg23
I00
sba(iMAG
Car
p694
(dp695
g10
(lp696
I3
aI4
asg12
g62
sg14
(lp697
sg16
g17
sg18
(lp698
I2
aI4
asg20
I2
sg21
g246
sg23
I00
sba(iMAG
Car
p699
(dp700
g10
(lp701
I3
aI3
asg12
g69
sg14
(lp702
sg16
g17
sg18
(lp703
I1
aI3
asg20
I3
sg21
g596
sg23
I00
sba(iMAG
Car
p704
(dp705
g10
(lp706
I5
aI5
asg12
g76
sg14
(lp707
sg16
g17
sg18
(lp708
I3
aI5
asg20
I3
sg21
g126
(g127
(S'S1'
p709
I0
I1
tp710
Rp711
(I3
S'|'
p712
NNNI1
I1
I0
tp713
bg312
tp714
Rp715
sg23
I00
sbasg80
Nsg81
V..432.\u000a..432.\u000a1RR3..>\u000a1777..\u000a0055..\u000a...666\u000a
p716
sba(i__main__
Node
p717
(dp718
g3
Nsg4
(lp719
sg6
(lp720
(iMAG
Car
p721
(dp722
g10
(lp723
I0
aI3
asg12
g13
sg14
(lp724
sg16
g17
sg18
(lp725
I0
aI2
asg20
I2
sg21
g504
sg23
I00
sba(iMAG
Car
p726
(dp727
g10
(lp728
I3
aI2
asg12
g27
sg14
(lp729
sg16
g17
sg18
(lp730
I3
aI0
asg20
I3
sg21
g30
sg23
I00
sba(iMAG
Car
p731
(dp732
g10
(lp733
I4
aI1
asg12
g34
sg14
(lp734
sg16
g17
sg18
(lp735
I4
aI0
asg20
I2
sg21
g628
sg23
I00
sba(iMAG
Car
p736
(dp737
g10
(lp738
I2
aI1
asg12
g41
sg14
(lp739
sg16
g17
sg18
(lp740
I2
aI0
asg20
I2
sg21
g44
sg23
I00
sba(iMAG
Car
p741
(dp742
g10
(lp743
I1
aI4
asg12
g48
sg14
(lp744
sg16
g17
sg18
(lp745
I0
aI4
asg20
I2
sg21
g178
sg23
I00
sba(iMAG
Car
p746
(dp747
g10
(lp748
I2
aI2
asg12
g55
sg14
(lp749
sg16
g17
sg18
(lp750
I1
aI2
asg20
I2
sg21
g58
sg23
I00
sba(iMAG
Car
p751
(dp752
g10
(lp753
I5
aI4
asg12
g62
sg14
(lp754
sg16
g17
sg18
(lp755
I4
aI4
asg20
I2
sg21
g126
(g127
(S'S1'
p756
I0
I1
tp757
Rp758
(I3
S'|'
p759
NNNI1
I1
I0
tp760
bg244
tp761
Rp762
sg23
I00
sba(iMAG
Car
p763
(dp764
g10
(lp765
I3
aI3
asg12
g69
sg14
(lp766
sg16
g17
sg18
(lp767
I1
aI3
asg20
I3
sg21
g596
sg23
I00
sba(iMAG
Car
p768
(dp769
g10
(lp770
I5
aI5
asg12
g76
sg14
(lp771
sg16
g17
sg18
(lp772
I3
aI5
asg20
I3
sg21
g715
sg23
I00
sbasg80
Nsg81
V..432.\u000a..432.\u000a1RR3..>\u000a1777..\u000a00..55\u000a...666\u000a
p773
sba(i__main__
Node
p774
(dp775
g3
Nsg4
(lp776
sg6
(lp777
(iMAG
Car
p778
(dp779
g10
(lp780
I0
aI1
asg12
g13
sg14
(lp781
sg16
g17
sg18
(lp782
I0
aI0
asg20
I2
sg21
g126
(g127
(S'S1'
p783
I0
I1
tp784
Rp785
(I3
S'|'
p786
NNNI1
I1
I0
tp787
bg502
tp788
Rp789
sg23
I00
sba(iMAG
Car
p790
(dp791
g10
(lp792
I3
aI2
asg12
g27
sg14
(lp793
sg16
g17
sg18
(lp794
I3
aI0
asg20
I3
sg21
g30
sg23
I00
sba(iMAG
Car
p795
(dp796
g10
(lp797
I4
aI1
asg12
g34
sg14
(lp798
sg16
g17
sg18
(lp799
I4
aI0
asg20
I2
sg21
g628
sg23
I00
sba(iMAG
Car
p800
(dp801
g10
(lp802
I2
aI1
asg12
g41
sg14
(lp803
sg16
g17
sg18
(lp804
I2
aI0
asg20
I2
sg21
g44
sg23
I00
sba(iMAG
Car
p805
(dp806
g10
(lp807
I1
aI4
asg12
g48
sg14
(lp808
sg16
g17
sg18
(lp809
I0
aI4
asg20
I2
sg21
g178
sg23
I00
sba(iMAG
Car
p810
(dp811
g10
(lp812
I2
aI2
asg12
g55
sg14
(lp813
sg16
g17
sg18
(lp814
I1
aI2
asg20
I2
sg21
g58
sg23
I00
sba(iMAG
Car
p815
(dp816
g10
(lp817
I5
aI4
asg12
g62
sg14
(lp818
sg16
g17
sg18
(lp819
I4
aI4
asg20
I2
sg21
g762
sg23
I00
sba(iMAG
Car
p820
(dp821
g10
(lp822
I3
aI3
asg12
g69
sg14
(lp823
sg16
g17
sg18
(lp824
I1
aI3
asg20
I3
sg21
g596
sg23
I00
sba(iMAG
Car
p825
(dp826
g10
(lp827
I5
aI5
asg12
g76
sg14
(lp828
sg16
g17
sg18
(lp829
I3
aI5
asg20
I3
sg21
g715
sg23
I00
sbasg80
Nsg81
V1.432.\u000a1.432.\u000a.RR3..>\u000a.777..\u000a00..55\u000a...666\u000a
p830
sba(i__main__
Node
p831
(dp832
g3
Nsg4
(lp833
sg6
(lp834
(iMAG
Car
p835
(dp836
g10
(lp837
I0
aI1
asg12
g13
sg14
(lp838
sg16
g17
sg18
(lp839
I0
aI0
asg20
I2
sg21
g789
sg23
I00
sba(iMAG
Car
p840
(dp841
g10
(lp842
I3
aI2
asg12
g27
sg14
(lp843
sg16
g17
sg18
(lp844
I3
aI0
asg20
I3
sg21
g30
sg23
I00
sba(iMAG
Car
p845
(dp846
g10
(lp847
I4
aI1
asg12
g34
sg14
(lp848
sg16
g17
sg18
(lp849
I4
aI0
asg20
I2
sg21
g628
sg23
I00
sba(iMAG
Car
p850
(dp851
g10
(lp852
I2
aI1
asg12
g41
sg14
(lp853
sg16
g17
sg18
(lp854
I2
aI0
asg20
I2
sg21
g44
sg23
I00
sba(iMAG
Car
p855
(dp856
g10
(lp857
I1
aI4
asg12
g48
sg14
(lp858
sg16
g17
sg18
(lp859
I0
aI4
asg20
I2
sg21
g178
sg23
I00
sba(iMAG
Car
p860
(dp861
g10
(lp862
I2
aI2
asg12
g55
sg14
(lp863
sg16
g17
sg18
(lp864
I1
aI2
asg20
I2
sg21
g58
sg23
I00
sba(iMAG
Car
p865
(dp866
g10
(lp867
I5
aI4
asg12
g62
sg14
(lp868
sg16
g17
sg18
(lp869
I4
aI4
asg20
I2
sg21
g762
sg23
I00
sba(iMAG
Car
p870
(dp871
g10
(lp872
I2
aI3
asg12
g69
sg14
(lp873
sg16
g17
sg18
(lp874
I0
aI3
asg20
I3
sg21
g126
(g127
(S'S1'
p875
I0
I1
tp876
Rp877
(I3
S'|'
p878
NNNI1
I1
I0
tp879
bg133
tp880
Rp881
sg23
I00
sba(iMAG
Car
p882
(dp883
g10
(lp884
I5
aI5
asg12
g76
sg14
(lp885
sg16
g17
sg18
(lp886
I3
aI5
asg20
I3
sg21
g715
sg23
I00
sbasg80
Nsg81
V1.432.\u000a1.432.\u000a.RR3..>\u000a777...\u000a00..55\u000a...666\u000a
p887
sba(i__main__
Node
p888
(dp889
g3
Nsg4
(lp890
sg6
(lp891
(iMAG
Car
p892
(dp893
g10
(lp894
I0
aI1
asg12
g13
sg14
(lp895
sg16
g17
sg18
(lp896
I0
aI0
asg20
I2
sg21
g789
sg23
I00
sba(iMAG
Car
p897
(dp898
g10
(lp899
I3
aI4
asg12
g27
sg14
(lp900
sg16
g17
sg18
(lp901
I3
aI2
asg20
I3
sg21
g126
(g127
(S'S1'
p902
I0
I1
tp903
Rp904
(I3
S'|'
p905
NNNI1
I1
I0
tp906
bS'3'
p907
tp908
Rp909
sg23
I00
sba(iMAG
Car
p910
(dp911
g10
(lp912
I4
aI1
asg12
g34
sg14
(lp913
sg16
g17
sg18
(lp914
I4
aI0
asg20
I2
sg21
g628
sg23
I00
sba(iMAG
Car
p915
(dp916
g10
(lp917
I2
aI1
asg12
g41
sg14
(lp918
sg16
g17
sg18
(lp919
I2
aI0
asg20
I2
sg21
g44
sg23
I00
sba(iMAG
Car
p920
(dp921
g10
(lp922
I1
aI4
asg12
g48
sg14
(lp923
sg16
g17
sg18
(lp924
I0
aI4
asg20
I2
sg21
g178
sg23
I00
sba(iMAG
Car
p925
(dp926
g10
(lp927
I2
aI2
asg12
g55
sg14
(lp928
sg16
g17
sg18
(lp929
I1
aI2
asg20
I2
sg21
g58
sg23
I00
sba(iMAG
Car
p930
(dp931
g10
(lp932
I5
aI4
asg12
g62
sg14
(lp933
sg16
g17
sg18
(lp934
I4
aI4
asg20
I2
sg21
g762
sg23
I00
sba(iMAG
Car
p935
(dp936
g10
(lp937
I2
aI3
asg12
g69
sg14
(lp938
sg16
g17
sg18
(lp939
I0
aI3
asg20
I3
sg21
g881
sg23
I00
sba(iMAG
Car
p940
(dp941
g10
(lp942
I5
aI5
asg12
g76
sg14
(lp943
sg16
g17
sg18
(lp944
I3
aI5
asg20
I3
sg21
g715
sg23
I00
sbasg80
Nsg81
V1.4.2.\u000a1.4.2.\u000a.RR3..>\u000a7773..\u000a00.355\u000a...666\u000a
p945
sba(i__main__
Node
p946
(dp947
g3
Nsg4
(lp948
sg6
(lp949
(iMAG
Car
p950
(dp951
g10
(lp952
I0
aI1
asg12
g13
sg14
(lp953
sg16
g17
sg18
(lp954
I0
aI0
asg20
I2
sg21
g789
sg23
I00
sba(iMAG
Car
p955
(dp956
g10
(lp957
I3
aI4
asg12
g27
sg14
(lp958
sg16
g17
sg18
(lp959
I3
aI2
asg20
I3
sg21
g909
sg23
I00
sba(iMAG
Car
p960
(dp961
g10
(lp962
I4
aI1
asg12
g34
sg14
(lp963
sg16
g17
sg18
(lp964
I4
aI0
asg20
I2
sg21
g628
sg23
I00
sba(iMAG
Car
p965
(dp966
g10
(lp967
I2
aI1
asg12
g41
sg14
(lp968
sg16
g17
sg18
(lp969
I2
aI0
asg20
I2
sg21
g44
sg23
I00
sba(iMAG
Car
p970
(dp971
g10
(lp972
I1
aI4
asg12
g48
sg14
(lp973
sg16
g17
sg18
(lp974
I0
aI4
asg20
I2
sg21
g178
sg23
I00
sba(iMAG
Car
p975
(dp976
g10
(lp977
I2
aI2
asg12
g55
sg14
(lp978
sg16
g17
sg18
(lp979
I1
aI2
asg20
I2
sg21
g58
sg23
I00
sba(iMAG
Car
p980
(dp981
g10
(lp982
I5
aI4
asg12
g62
sg14
(lp983
sg16
g17
sg18
(lp984
I4
aI4
asg20
I2
sg21
g762
sg23
I00
sba(iMAG
Car
p985
(dp986
g10
(lp987
I2
aI3
asg12
g69
sg14
(lp988
sg16
g17
sg18
(lp989
I0
aI3
asg20
I3
sg21
g881
sg23
I00
sba(iMAG
Car
p990
(dp991
g10
(lp992
I2
aI5
asg12
g76
sg14
(lp993
sg16
g17
sg18
(lp994
I0
aI5
asg20
I3
sg21
g126
(g127
(S'S1'
p995
I0
I1
tp996
Rp997
(I3
S'|'
p998
NNNI1
I1
I0
tp999
bg312
tp1000
Rp1001
sg23
I00
sbasg80
Nsg81
V1.4.2.\u000a1.4.2.\u000a.RR3..>\u000a7773..\u000a00.355\u000a666...\u000a
p1002
sba(i__main__
Node
p1003
(dp1004
g3
Nsg4
(lp1005
sg6
(lp1006
(iMAG
Car
p1007
(dp1008
g10
(lp1009
I0
aI1
asg12
g13
sg14
(lp1010
sg16
g17
sg18
(lp1011
I0
aI0
asg20
I2
sg21
g789
sg23
I00
sba(iMAG
Car
p1012
(dp1013
g10
(lp1014
I3
aI5
asg12
g27
sg14
(lp1015
sg16
g17
sg18
(lp1016
I3
aI3
asg20
I3
sg21
g126
(g127
(S'S1'
p1017
I0
I1
tp1018
Rp1019
(I3
S'|'
p1020
NNNI1
I1
I0
tp1021
bg907
tp1022
Rp1023
sg23
I00
sba(iMAG
Car
p1024
(dp1025
g10
(lp1026
I4
aI1
asg12
g34
sg14
(lp1027
sg16
g17
sg18
(lp1028
I4
aI0
asg20
I2
sg21
g628
sg23
I00
sba(iMAG
Car
p1029
(dp1030
g10
(lp1031
I2
aI1
asg12
g41
sg14
(lp1032
sg16
g17
sg18
(lp1033
I2
aI0
asg20
I2
sg21
g44
sg23
I00
sba(iMAG
Car
p1034
(dp1035
g10
(lp1036
I1
aI4
asg12
g48
sg14
(lp1037
sg16
g17
sg18
(lp1038
I0
aI4
asg20
I2
sg21
g178
sg23
I00
sba(iMAG
Car
p1039
(dp1040
g10
(lp1041
I2
aI2
asg12
g55
sg14
(lp1042
sg16
g17
sg18
(lp1043
I1
aI2
asg20
I2
sg21
g58
sg23
I00
sba(iMAG
Car
p1044
(dp1045
g10
(lp1046
I5
aI4
asg12
g62
sg14
(lp1047
sg16
g17
sg18
(lp1048
I4
aI4
asg20
I2
sg21
g762
sg23
I00
sba(iMAG
Car
p1049
(dp1050
g10
(lp1051
I2
aI3
asg12
g69
sg14
(lp1052
sg16
g17
sg18
(lp1053
I0
aI3
asg20
I3
sg21
g881
sg23
I00
sba(iMAG
Car
p1054
(dp1055
g10
(lp1056
I2
aI5
asg12
g76
sg14
(lp1057
sg16
g17
sg18
(lp1058
I0
aI5
asg20
I3
sg21
g1001
sg23
I00
sbasg80
Nsg81
V1.4.2.\u000a1.4.2.\u000a.RR...>\u000a7773..\u000a00.355\u000a6663..\u000a
p1059
sba(i__main__
Node
p1060
(dp1061
g3
Nsg4
(lp1062
sg6
(lp1063
(iMAG
Car
p1064
(dp1065
g10
(lp1066
I0
aI4
asg12
Vvertical
p1067
sg14
(lp1068
sg16
Vprb38725
p1069
sg18
(lp1070
I0
aI3
asg20
I2
sg21
V1
p1071
sg23
I00
sba(iMAG
Car
p1072
(dp1073
g10
(lp1074
I3
aI4
asg12
Vvertical
p1075
sg14
(lp1076
sg16
g1069
sg18
(lp1077
I3
aI2
asg20
I3
sg21
V0
p1078
sg23
I00
sba(iMAG
Car
p1079
(dp1080
g10
(lp1081
I5
aI3
asg12
Vvertical
p1082
sg14
(lp1083
sg16
g1069
sg18
(lp1084
I5
aI1
asg20
I3
sg21
V3
p1085
sg23
I00
sba(iMAG
Car
p1086
(dp1087
g10
(lp1088
I2
aI3
asg12
Vvertical
p1089
sg14
(lp1090
sg16
g1069
sg18
(lp1091
I2
aI1
asg20
I3
sg21
V5
p1092
sg23
I00
sba(iMAG
Car
p1093
(dp1094
g10
(lp1095
I2
aI4
asg12
Vhorizontal
p1096
sg14
(lp1097
sg16
g1069
sg18
(lp1098
I1
aI4
asg20
I2
sg21
V2
p1099
sg23
I00
sba(iMAG
Car
p1100
(dp1101
g10
(lp1102
I1
aI2
asg12
Vhorizontal
p1103
sg14
(lp1104
sg16
g1069
sg18
(lp1105
I0
aI2
asg20
I2
sg21
Vr
p1106
sg23
I00
sba(iMAG
Car
p1107
(dp1108
g10
(lp1109
I2
aI0
asg12
Vhorizontal
p1110
sg14
(lp1111
sg16
g1069
sg18
(lp1112
I1
aI0
asg20
I2
sg21
V4
p1113
sg23
I00
sba(iMAG
Car
p1114
(dp1115
g10
(lp1116
I5
aI0
asg12
Vhorizontal
p1117
sg14
(lp1118
sg16
g1069
sg18
(lp1119
I4
aI0
asg20
I2
sg21
V7
p1120
sg23
I00
sba(iMAG
Car
p1121
(dp1122
g10
(lp1123
I4
aI5
asg12
Vhorizontal
p1124
sg14
(lp1125
sg16
g1069
sg18
(lp1126
I3
aI5
asg20
I2
sg21
V6
p1127
sg23
I00
sbasg80
Nsg81
Nsba(i__main__
Node
p1128
(dp1129
g3
Nsg4
(lp1130
sg6
(lp1131
(iMAG
Car
p1132
(dp1133
g10
(lp1134
I0
aI4
asg12
g1067
sg14
(lp1135
sg16
g1069
sg18
(lp1136
I0
aI3
asg20
I2
sg21
g1071
sg23
I00
sba(iMAG
Car
p1137
(dp1138
g10
(lp1139
I3
aI4
asg12
g1075
sg14
(lp1140
sg16
g1069
sg18
(lp1141
I3
aI2
asg20
I3
sg21
g1078
sg23
I00
sba(iMAG
Car
p1142
(dp1143
g10
(lp1144
I5
aI3
asg12
g1082
sg14
(lp1145
sg16
g1069
sg18
(lp1146
I5
aI1
asg20
I3
sg21
g1085
sg23
I00
sba(iMAG
Car
p1147
(dp1148
g10
(lp1149
I2
aI3
asg12
g1089
sg14
(lp1150
sg16
g1069
sg18
(lp1151
I2
aI1
asg20
I3
sg21
g1092
sg23
I00
sba(iMAG
Car
p1152
(dp1153
g10
(lp1154
I2
aI4
asg12
g1096
sg14
(lp1155
sg16
g1069
sg18
(lp1156
I1
aI4
asg20
I2
sg21
g1099
sg23
I00
sba(iMAG
Car
p1157
(dp1158
g10
(lp1159
I1
aI2
asg12
g1103
sg14
(lp1160
sg16
g1069
sg18
(lp1161
I0
aI2
asg20
I2
sg21
g1106
sg23
I00
sba(iMAG
Car
p1162
(dp1163
g10
(lp1164
I2
aI0
asg12
g1110
sg14
(lp1165
sg16
g1069
sg18
(lp1166
I1
aI0
asg20
I2
sg21
g1113
sg23
I00
sba(iMAG
Car
p1167
(dp1168
g10
(lp1169
I5
aI0
asg12
g1117
sg14
(lp1170
sg16
g1069
sg18
(lp1171
I4
aI0
asg20
I2
sg21
g1120
sg23
I00
sba(iMAG
Car
p1172
(dp1173
g10
(lp1174
I1
aI5
asg12
g1124
sg14
(lp1175
sg16
g1069
sg18
(lp1176
I0
aI5
asg20
I2
sg21
g126
(g127
(S'S1'
p1177
I0
I1
tp1178
Rp1179
(I3
S'|'
p1180
NNNI1
I1
I0
tp1181
bg312
tp1182
Rp1183
sg23
I00
sbasg80
Nsg81
V.44.77\u000a..5..3\u000aRR50.3>\u000a1.50.3\u000a1220..\u000a66....\u000a
p1184
sba(i__main__
Node
p1185
(dp1186
g3
Nsg4
(lp1187
sg6
(lp1188
(iMAG
Car
p1189
(dp1190
g10
(lp1191
I0
aI4
asg12
g1067
sg14
(lp1192
sg16
g1069
sg18
(lp1193
I0
aI3
asg20
I2
sg21
g1071
sg23
I00
sba(iMAG
Car
p1194
(dp1195
g10
(lp1196
I3
aI3
asg12
g1075
sg14
(lp1197
sg16
g1069
sg18
(lp1198
I3
aI1
asg20
I3
sg21
g126
(g127
(S'S1'
p1199
I0
I1
tp1200
Rp1201
(I3
S'|'
p1202
NNNI1
I1
I0
tp1203
bg176
tp1204
Rp1205
sg23
I00
sba(iMAG
Car
p1206
(dp1207
g10
(lp1208
I5
aI3
asg12
g1082
sg14
(lp1209
sg16
g1069
sg18
(lp1210
I5
aI1
asg20
I3
sg21
g1085
sg23
I00
sba(iMAG
Car
p1211
(dp1212
g10
(lp1213
I2
aI3
asg12
g1089
sg14
(lp1214
sg16
g1069
sg18
(lp1215
I2
aI1
asg20
I3
sg21
g1092
sg23
I00
sba(iMAG
Car
p1216
(dp1217
g10
(lp1218
I2
aI4
asg12
g1096
sg14
(lp1219
sg16
g1069
sg18
(lp1220
I1
aI4
asg20
I2
sg21
g1099
sg23
I00
sba(iMAG
Car
p1221
(dp1222
g10
(lp1223
I1
aI2
asg12
g1103
sg14
(lp1224
sg16
g1069
sg18
(lp1225
I0
aI2
asg20
I2
sg21
g1106
sg23
I00
sba(iMAG
Car
p1226
(dp1227
g10
(lp1228
I2
aI0
asg12
g1110
sg14
(lp1229
sg16
g1069
sg18
(lp1230
I1
aI0
asg20
I2
sg21
g1113
sg23
I00
sba(iMAG
Car
p1231
(dp1232
g10
(lp1233
I5
aI0
asg12
g1117
sg14
(lp1234
sg16
g1069
sg18
(lp1235
I4
aI0
asg20
I2
sg21
g1120
sg23
I00
sba(iMAG
Car
p1236
(dp1237
g10
(lp1238
I1
aI5
asg12
g1124
sg14
(lp1239
sg16
g1069
sg18
(lp1240
I0
aI5
asg20
I2
sg21
g1183
sg23
I00
sbasg80
Nsg81
V.44.77\u000a..50.3\u000aRR50.3>\u000a1.50.3\u000a122...\u000a66....\u000a
p1241
sba(i__main__
Node
p1242
(dp1243
g3
Nsg4
(lp1244
sg6
(lp1245
(iMAG
Car
p1246
(dp1247
g10
(lp1248
I0
aI4
asg12
g1067
sg14
(lp1249
sg16
g1069
sg18
(lp1250
I0
aI3
asg20
I2
sg21
g1071
sg23
I00
sba(iMAG
Car
p1251
(dp1252
g10
(lp1253
I3
aI3
asg12
g1075
sg14
(lp1254
sg16
g1069
sg18
(lp1255
I3
aI1
asg20
I3
sg21
g1205
sg23
I00
sba(iMAG
Car
p1256
(dp1257
g10
(lp1258
I5
aI3
asg12
g1082
sg14
(lp1259
sg16
g1069
sg18
(lp1260
I5
aI1
asg20
I3
sg21
g1085
sg23
I00
sba(iMAG
Car
p1261
(dp1262
g10
(lp1263
I2
aI3
asg12
g1089
sg14
(lp1264
sg16
g1069
sg18
(lp1265
I2
aI1
asg20
I3
sg21
g1092
sg23
I00
sba(iMAG
Car
p1266
(dp1267
g10
(lp1268
I5
aI4
asg12
g1096
sg14
(lp1269
sg16
g1069
sg18
(lp1270
I4
aI4
asg20
I2
sg21
g126
(g127
(S'S1'
p1271
I0
I1
tp1272
Rp1273
(I3
S'|'
p1274
NNNI1
I1
I0
tp1275
bg340
tp1276
Rp1277
sg23
I00
sba(iMAG
Car
p1278
(dp1279
g10
(lp1280
I1
aI2
asg12
g1103
sg14
(lp1281
sg16
g1069
sg18
(lp1282
I0
aI2
asg20
I2
sg21
g1106
sg23
I00
sba(iMAG
Car
p1283
(dp1284
g10
(lp1285
I2
aI0
asg12
g1110
sg14
(lp1286
sg16
g1069
sg18
(lp1287
I1
aI0
asg20
I2
sg21
g1113
sg23
I00
sba(iMAG
Car
p1288
(dp1289
g10
(lp1290
I5
aI0
asg12
g1117
sg14
(lp1291
sg16
g1069
sg18
(lp1292
I4
aI0
asg20
I2
sg21
g1120
sg23
I00
sba(iMAG
Car
p1293
(dp1294
g10
(lp1295
I1
aI5
asg12
g1124
sg14
(lp1296
sg16
g1069
sg18
(lp1297
I0
aI5
asg20
I2
sg21
g1183
sg23
I00
sbasg80
Nsg81
V.44.77\u000a..50.3\u000aRR50.3>\u000a1.50.3\u000a1...22\u000a66....\u000a
p1298
sba(i__main__
Node
p1299
(dp1300
g3
Nsg4
(lp1301
sg6
(lp1302
(iMAG
Car
p1303
(dp1304
g10
(lp1305
I0
aI4
asg12
g1067
sg14
(lp1306
sg16
g1069
sg18
(lp1307
I0
aI3
asg20
I2
sg21
g1071
sg23
I00
sba(iMAG
Car
p1308
(dp1309
g10
(lp1310
I3
aI3
asg12
g1075
sg14
(lp1311
sg16
g1069
sg18
(lp1312
I3
aI1
asg20
I3
sg21
g1205
sg23
I00
sba(iMAG
Car
p1313
(dp1314
g10
(lp1315
I5
aI3
asg12
g1082
sg14
(lp1316
sg16
g1069
sg18
(lp1317
I5
aI1
asg20
I3
sg21
g1085
sg23
I00
sba(iMAG
Car
p1318
(dp1319
g10
(lp1320
I2
aI5
asg12
g1089
sg14
(lp1321
sg16
g1069
sg18
(lp1322
I2
aI3
asg20
I3
sg21
g126
(g127
(S'S1'
p1323
I0
I1
tp1324
Rp1325
(I3
S'|'
p1326
NNNI1
I1
I0
tp1327
bg244
tp1328
Rp1329
sg23
I00
sba(iMAG
Car
p1330
(dp1331
g10
(lp1332
I5
aI4
asg12
g1096
sg14
(lp1333
sg16
g1069
sg18
(lp1334
I4
aI4
asg20
I2
sg21
g1277
sg23
I00
sba(iMAG
Car
p1335
(dp1336
g10
(lp1337
I1
aI2
asg12
g1103
sg14
(lp1338
sg16
g1069
sg18
(lp1339
I0
aI2
asg20
I2
sg21
g1106
sg23
I00
sba(iMAG
Car
p1340
(dp1341
g10
(lp1342
I2
aI0
asg12
g1110
sg14
(lp1343
sg16
g1069
sg18
(lp1344
I1
aI0
asg20
I2
sg21
g1113
sg23
I00
sba(iMAG
Car
p1345
(dp1346
g10
(lp1347
I5
aI0
asg12
g1117
sg14
(lp1348
sg16
g1069
sg18
(lp1349
I4
aI0
asg20
I2
sg21
g1120
sg23
I00
sba(iMAG
Car
p1350
(dp1351
g10
(lp1352
I1
aI5
asg12
g1124
sg14
(lp1353
sg16
g1069
sg18
(lp1354
I0
aI5
asg20
I2
sg21
g1183
sg23
I00
sbasg80
Nsg81
V.44.77\u000a...0.3\u000aRR.0.3>\u000a1.50.3\u000a1.5.22\u000a665...\u000a
p1355
sba(i__main__
Node
p1356
(dp1357
g3
Nsg4
(lp1358
sg6
(lp1359
(iMAG
Car
p1360
(dp1361
g10
(lp1362
I0
aI4
asg12
g1067
sg14
(lp1363
sg16
g1069
sg18
(lp1364
I0
aI3
asg20
I2
sg21
g1071
sg23
I00
sba(iMAG
Car
p1365
(dp1366
g10
(lp1367
I3
aI5
asg12
g1075
sg14
(lp1368
sg16
g1069
sg18
(lp1369
I3
aI3
asg20
I3
sg21
g126
(g127
(S'S1'
p1370
I0
I1
tp1371
Rp1372
(I3
S'|'
p1373
NNNI1
I1
I0
tp1374
bg176
tp1375
Rp1376
sg23
I00
sba(iMAG
Car
p1377
(dp1378
g10
(lp1379
I5
aI3
asg12
g1082
sg14
(lp1380
sg16
g1069
sg18
(lp1381
I5
aI1
asg20
I3
sg21
g1085
sg23
I00
sba(iMAG
Car
p1382
(dp1383
g10
(lp1384
I2
aI5
asg12
g1089
sg14
(lp1385
sg16
g1069
sg18
(lp1386
I2
aI3
asg20
I3
sg21
g1329
sg23
I00
sba(iMAG
Car
p1387
(dp1388
g10
(lp1389
I5
aI4
asg12
g1096
sg14
(lp1390
sg16
g1069
sg18
(lp1391
I4
aI4
asg20
I2
sg21
g1277
sg23
I00
sba(iMAG
Car
p1392
(dp1393
g10
(lp1394
I1
aI2
asg12
g1103
sg14
(lp1395
sg16
g1069
sg18
(lp1396
I0
aI2
asg20
I2
sg21
g1106
sg23
I00
sba(iMAG
Car
p1397
(dp1398
g10
(lp1399
I2
aI0
asg12
g1110
sg14
(lp1400
sg16
g1069
sg18
(lp1401
I1
aI0
asg20
I2
sg21
g1113
sg23
I00
sba(iMAG
Car
p1402
(dp1403
g10
(lp1404
I5
aI0
asg12
g1117
sg14
(lp1405
sg16
g1069
sg18
(lp1406
I4
aI0
asg20
I2
sg21
g1120
sg23
I00
sba(iMAG
Car
p1407
(dp1408
g10
(lp1409
I1
aI5
asg12
g1124
sg14
(lp1410
sg16
g1069
sg18
(lp1411
I0
aI5
asg20
I2
sg21
g1183
sg23
I00
sbasg80
Nsg81
V.44.77\u000a.....3\u000aRR...3>\u000a1.50.3\u000a1.5022\u000a6650..\u000a
p1412
sba(i__main__
Node
p1413
(dp1414
g3
Nsg4
(lp1415
sg6
(lp1416
(iMAG
Car
p1417
(dp1418
g10
(lp1419
I0
aI4
asg12
g1067
sg14
(lp1420
sg16
g1069
sg18
(lp1421
I0
aI3
asg20
I2
sg21
g1071
sg23
I00
sba(iMAG
Car
p1422
(dp1423
g10
(lp1424
I3
aI5
asg12
g1075
sg14
(lp1425
sg16
g1069
sg18
(lp1426
I3
aI3
asg20
I3
sg21
g1376
sg23
I00
sba(iMAG
Car
p1427
(dp1428
g10
(lp1429
I5
aI3
asg12
g1082
sg14
(lp1430
sg16
g1069
sg18
(lp1431
I5
aI1
asg20
I3
sg21
g1085
sg23
I00
sba(iMAG
Car
p1432
(dp1433
g10
(lp1434
I2
aI5
asg12
g1089
sg14
(lp1435
sg16
g1069
sg18
(lp1436
I2
aI3
asg20
I3
sg21
g1329
sg23
I00
sba(iMAG
Car
p1437
(dp1438
g10
(lp1439
I5
aI4
asg12
g1096
sg14
(lp1440
sg16
g1069
sg18
(lp1441
I4
aI4
asg20
I2
sg21
g1277
sg23
I00
sba(iMAG
Car
p1442
(dp1443
g10
(lp1444
I1
aI2
asg12
g1103
sg14
(lp1445
sg16
g1069
sg18
(lp1446
I0
aI2
asg20
I2
sg21
g1106
sg23
I00
sba(iMAG
Car
p1447
(dp1448
g10
(lp1449
I1
aI0
asg12
g1110
sg14
(lp1450
sg16
g1069
sg18
(lp1451
I0
aI0
asg20
I2
sg21
g126
(g127
(S'S1'
p1452
I0
I1
tp1453
Rp1454
(I3
S'|'
p1455
NNNI1
I1
I0
tp1456
bS'4'
p1457
tp1458
Rp1459
sg23
I00
sba(iMAG
Car
p1460
(dp1461
g10
(lp1462
I5
aI0
asg12
g1117
sg14
(lp1463
sg16
g1069
sg18
(lp1464
I4
aI0
asg20
I2
sg21
g1120
sg23
I00
sba(iMAG
Car
p1465
(dp1466
g10
(lp1467
I1
aI5
asg12
g1124
sg14
(lp1468
sg16
g1069
sg18
(lp1469
I0
aI5
asg20
I2
sg21
g1183
sg23
I00
sbasg80
Nsg81
V44..77\u000a.....3\u000aRR...3>\u000a1.50.3\u000a1.5022\u000a6650..\u000a
p1470
sba(i__main__
Node
p1471
(dp1472
g3
Nsg4
(lp1473
sg6
(lp1474
(iMAG
Car
p1475
(dp1476
g10
(lp1477
I0
aI4
asg12
g1067
sg14
(lp1478
sg16
g1069
sg18
(lp1479
I0
aI3
asg20
I2
sg21
g1071
sg23
I00
sba(iMAG
Car
p1480
(dp1481
g10
(lp1482
I3
aI5
asg12
g1075
sg14
(lp1483
sg16
g1069
sg18
(lp1484
I3
aI3
asg20
I3
sg21
g1376
sg23
I00
sba(iMAG
Car
p1485
(dp1486
g10
(lp1487
I5
aI3
asg12
g1082
sg14
(lp1488
sg16
g1069
sg18
(lp1489
I5
aI1
asg20
I3
sg21
g1085
sg23
I00
sba(iMAG
Car
p1490
(dp1491
g10
(lp1492
I2
aI5
asg12
g1089
sg14
(lp1493
sg16
g1069
sg18
(lp1494
I2
aI3
asg20
I3
sg21
g1329
sg23
I00
sba(iMAG
Car
p1495
(dp1496
g10
(lp1497
I5
aI4
asg12
g1096
sg14
(lp1498
sg16
g1069
sg18
(lp1499
I4
aI4
asg20
I2
sg21
g1277
sg23
I00
sba(iMAG
Car
p1500
(dp1501
g10
(lp1502
I1
aI2
asg12
g1103
sg14
(lp1503
sg16
g1069
sg18
(lp1504
I0
aI2
asg20
I2
sg21
g1106
sg23
I00
sba(iMAG
Car
p1505
(dp1506
g10
(lp1507
I1
aI0
asg12
g1110
sg14
(lp1508
sg16
g1069
sg18
(lp1509
I0
aI0
asg20
I2
sg21
g1459
sg23
I00
sba(iMAG
Car
p1510
(dp1511
g10
(lp1512
I3
aI0
asg12
g1117
sg14
(lp1513
sg16
g1069
sg18
(lp1514
I2
aI0
asg20
I2
sg21
g126
(g127
(S'S1'
p1515
I0
I1
tp1516
Rp1517
(I3
S'|'
p1518
NNNI1
I1
I0
tp1519
bg133
tp1520
Rp1521
sg23
I00
sba(iMAG
Car
p1522
(dp1523
g10
(lp1524
I1
aI5
asg12
g1124
sg14
(lp1525
sg16
g1069
sg18
(lp1526
I0
aI5
asg20
I2
sg21
g1183
sg23
I00
sbasg80
Nsg81
V4477..\u000a.....3\u000aRR...3>\u000a1.50.3\u000a1.5022\u000a6650..\u000a
p1527
sba(i__main__
Node
p1528
(dp1529
g3
Nsg4
(lp1530
sg6
(lp1531
(iMAG
Car
p1532
(dp1533
g10
(lp1534
I0
aI4
asg12
g1067
sg14
(lp1535
sg16
g1069
sg18
(lp1536
I0
aI3
asg20
I2
sg21
g1071
sg23
I00
sba(iMAG
Car
p1537
(dp1538
g10
(lp1539
I3
aI5
asg12
g1075
sg14
(lp1540
sg16
g1069
sg18
(lp1541
I3
aI3
asg20
I3
sg21
g1376
sg23
I00
sba(iMAG
Car
p1542
(dp1543
g10
(lp1544
I5
aI2
asg12
g1082
sg14
(lp1545
sg16
g1069
sg18
(lp1546
I5
aI0
asg20
I3
sg21
g126
(g127
(S'S1'
p1547
I0
I1
tp1548
Rp1549
(I3
S'|'
p1550
NNNI1
I1
I0
tp1551
bg907
tp1552
Rp1553
sg23
I00
sba(iMAG
Car
p1554
(dp1555
g10
(lp1556
I2
aI5
asg12
g1089
sg14
(lp1557
sg16
g1069
sg18
(lp1558
I2
aI3
asg20
I3
sg21
g1329
sg23
I00
sba(iMAG
Car
p1559
(dp1560
g10
(lp1561
I5
aI4
asg12
g1096
sg14
(lp1562
sg16
g1069
sg18
(lp1563
I4
aI4
asg20
I2
sg21
g1277
sg23
I00
sba(iMAG
Car
p1564
(dp1565
g10
(lp1566
I1
aI2
asg12
g1103
sg14
(lp1567
sg16
g1069
sg18
(lp1568
I0
aI2
asg20
I2
sg21
g1106
sg23
I00
sba(iMAG
Car
p1569
(dp1570
g10
(lp1571
I1
aI0
asg12
g1110
sg14
(lp1572
sg16
g1069
sg18
(lp1573
I0
aI0
asg20
I2
sg21
g1459
sg23
I00
sba(iMAG
Car
p1574
(dp1575
g10
(lp1576
I3
aI0
asg12
g1117
sg14
(lp1577
sg16
g1069
sg18
(lp1578
I2
aI0
asg20
I2
sg21
g1521
sg23
I00
sba(iMAG
Car
p1579
(dp1580
g10
(lp1581
I1
aI5
asg12
g1124
sg14
(lp1582
sg16
g1069
sg18
(lp1583
I0
aI5
asg20
I2
sg21
g1183
sg23
I00
sbasg80
Nsg81
V4477.3\u000a.....3\u000aRR...3>\u000a1.50..\u000a1.5022\u000a6650..\u000a
p1584
sba(i__main__
Node
p1585
(dp1586
g3
Nsg4
(lp1587
sg6
(lp1588
(iMAG
Car
p1589
(dp1590
g10
(lp1591
I0
aI4
asg12
g1067
sg14
(lp1592
sg16
g1069
sg18
(lp1593
I0
aI3
asg20
I2
sg21
g1071
sg23
I00
sba(iMAG
Car
p1594
(dp1595
g10
(lp1596
I3
aI5
asg12
g1075
sg14
(lp1597
sg16
g1069
sg18
(lp1598
I3
aI3
asg20
I3
sg21
g1376
sg23
I00
sba(iMAG
Car
p1599
(dp1600
g10
(lp1601
I5
aI2
asg12
g1082
sg14
(lp1602
sg16
g1069
sg18
(lp1603
I5
aI0
asg20
I3
sg21
g1553
sg23
I00
sba(iMAG
Car
p1604
(dp1605
g10
(lp1606
I2
aI5
asg12
g1089
sg14
(lp1607
sg16
g1069
sg18
(lp1608
I2
aI3
asg20
I3
sg21
g1329
sg23
I00
sba(iMAG
Car
p1609
(dp1610
g10
(lp1611
I5
aI4
asg12
g1096
sg14
(lp1612
sg16
g1069
sg18
(lp1613
I4
aI4
asg20
I2
sg21
g1277
sg23
I00
sba(iMAG
Car
p1614
(dp1615
g10
(lp1616
I4
aI2
asg12
g1103
sg14
(lp1617
sg16
g1069
sg18
(lp1618
I3
aI2
asg20
I2
sg21
g126
(g127
(S'S1'
p1619
I0
I1
tp1620
Rp1621
(I3
S'|'
p1622
NNNI1
I1
I0
tp1623
bS'r'
p1624
tp1625
Rp1626
sg23
I00
sba(iMAG
Car
p1627
(dp1628
g10
(lp1629
I1
aI0
asg12
g1110
sg14
(lp1630
sg16
g1069
sg18
(lp1631
I0
aI0
asg20
I2
sg21
g1459
sg23
I00
sba(iMAG
Car
p1632
(dp1633
g10
(lp1634
I3
aI0
asg12
g1117
sg14
(lp1635
sg16
g1069
sg18
(lp1636
I2
aI0
asg20
I2
sg21
g1521
sg23
I00
sba(iMAG
Car
p1637
(dp1638
g10
(lp1639
I1
aI5
asg12
g1124
sg14
(lp1640
sg16
g1069
sg18
(lp1641
I0
aI5
asg20
I2
sg21
g1183
sg23
I00
sbasg80
Nsg81
V4477.3\u000a.....3\u000a...RR3>\u000a1.50..\u000a1.5022\u000a6650..\u000a
p1642
sba(i__main__
Node
p1643
(dp1644
g3
Nsg4
(lp1645
sg6
(lp1646
(iMAG
Car
p1647
(dp1648
g10
(lp1649
I0
aI2
asg12
g1067
sg14
(lp1650
sg16
g1069
sg18
(lp1651
I0
aI1
asg20
I2
sg21
g126
(g127
(S'S1'
p1652
I0
I1
tp1653
Rp1654
(I3
S'|'
p1655
NNNI1
I1
I0
tp1656
bg502
tp1657
Rp1658
sg23
I00
sba(iMAG
Car
p1659
(dp1660
g10
(lp1661
I3
aI5
asg12
g1075
sg14
(lp1662
sg16
g1069
sg18
(lp1663
I3
aI3
asg20
I3
sg21
g1376
sg23
I00
sba(iMAG
Car
p1664
(dp1665
g10
(lp1666
I5
aI2
asg12
g1082
sg14
(lp1667
sg16
g1069
sg18
(lp1668
I5
aI0
asg20
I3
sg21
g1553
sg23
I00
sba(iMAG
Car
p1669
(dp1670
g10
(lp1671
I2
aI5
asg12
g1089
sg14
(lp1672
sg16
g1069
sg18
(lp1673
I2
aI3
asg20
I3
sg21
g1329
sg23
I00
sba(iMAG
Car
p1674
(dp1675
g10
(lp1676
I5
aI4
asg12
g1096
sg14
(lp1677
sg16
g1069
sg18
(lp1678
I4
aI4
asg20
I2
sg21
g1277
sg23
I00
sba(iMAG
Car
p1679
(dp1680
g10
(lp1681
I4
aI2
asg12
g1103
sg14
(lp1682
sg16
g1069
sg18
(lp1683
I3
aI2
asg20
I2
sg21
g1626
sg23
I00
sba(iMAG
Car
p1684
(dp1685
g10
(lp1686
I1
aI0
asg12
g1110
sg14
(lp1687
sg16
g1069
sg18
(lp1688
I0
aI0
asg20
I2
sg21
g1459
sg23
I00
sba(iMAG
Car
p1689
(dp1690
g10
(lp1691
I3
aI0
asg12
g1117
sg14
(lp1692
sg16
g1069
sg18
(lp1693
I2
aI0
asg20
I2
sg21
g1521
sg23
I00
sba(iMAG
Car
p1694
(dp1695
g10
(lp1696
I1
aI5
asg12
g1124
sg14
(lp1697
sg16
g1069
sg18
(lp1698
I0
aI5
asg20
I2
sg21
g1183
sg23
I00
sbasg80
Nsg81
S'4477.3\n1....3\n1..RR3>\n..50..\n..5022\n6650..\n'
p1699
sba(i__main__
Node
p1700
(dp1701
g3
Nsg4
(lp1702
sg6
(lp1703
(iMAG
Car
p1704
(dp1705
g10
(lp1706
I0
aI2
asg12
g1067
sg14
(lp1707
sg16
g1069
sg18
(lp1708
I0
aI1
asg20
I2
sg21
g1658
sg23
I00
sba(iMAG
Car
p1709
(dp1710
g10
(lp1711
I3
aI5
asg12
g1075
sg14
(lp1712
sg16
g1069
sg18
(lp1713
I3
aI3
asg20
I3
sg21
g1376
sg23
I00
sba(iMAG
Car
p1714
(dp1715
g10
(lp1716
I5
aI2
asg12
g1082
sg14
(lp1717
sg16
g1069
sg18
(lp1718
I5
aI0
asg20
I3
sg21
g1553
sg23
I00
sba(iMAG
Car
p1719
(dp1720
g10
(lp1721
I2
aI3
asg12
g1089
sg14
(lp1722
sg16
g1069
sg18
(lp1723
I2
aI1
asg20
I3
sg21
g126
(g127
(S'S1'
p1724
I0
I1
tp1725
Rp1726
(I3
S'|'
p1727
NNNI1
I1
I0
tp1728
bg244
tp1729
Rp1730
sg23
I00
sba(iMAG
Car
p1731
(dp1732
g10
(lp1733
I5
aI4
asg12
g1096
sg14
(lp1734
sg16
g1069
sg18
(lp1735
I4
aI4
asg20
I2
sg21
g1277
sg23
I00
sba(iMAG
Car
p1736
(dp1737
g10
(lp1738
I4
aI2
asg12
g1103
sg14
(lp1739
sg16
g1069
sg18
(lp1740
I3
aI2
asg20
I2
sg21
g1626
sg23
I00
sba(iMAG
Car
p1741
(dp1742
g10
(lp1743
I1
aI0
asg12
g1110
sg14
(lp1744
sg16
g1069
sg18
(lp1745
I0
aI0
asg20
I2
sg21
g1459
sg23
I00
sba(iMAG
Car
p1746
(dp1747
g10
(lp1748
I3
aI0
asg12
g1117
sg14
(lp1749
sg16
g1069
sg18
(lp1750
I2
aI0
asg20
I2
sg21
g1521
sg23
I00
sba(iMAG
Car
p1751
(dp1752
g10
(lp1753
I1
aI5
asg12
g1124
sg14
(lp1754
sg16
g1069
sg18
(lp1755
I0
aI5
asg20
I2
sg21
g1183
sg23
I00
sbasg80
Nsg81
S'4477.3\n1.5..3\n1.5RR3>\n..50..\n...022\n66.0..\n'
p1756
sba(i__main__
Node
p1757
(dp1758
g3
Nsg4
(lp1759
sg6
(lp1760
(iMAG
Car
p1761
(dp1762
g10
(lp1763
I0
aI2
asg12
g1067
sg14
(lp1764
sg16
g1069
sg18
(lp1765
I0
aI1
asg20
I2
sg21
g1658
sg23
I00
sba(iMAG
Car
p1766
(dp1767
g10
(lp1768
I3
aI5
asg12
g1075
sg14
(lp1769
sg16
g1069
sg18
(lp1770
I3
aI3
asg20
I3
sg21
g1376
sg23
I00
sba(iMAG
Car
p1771
(dp1772
g10
(lp1773
I5
aI2
asg12
g1082
sg14
(lp1774
sg16
g1069
sg18
(lp1775
I5
aI0
asg20
I3
sg21
g1553
sg23
I00
sba(iMAG
Car
p1776
(dp1777
g10
(lp1778
I2
aI3
asg12
g1089
sg14
(lp1779
sg16
g1069
sg18
(lp1780
I2
aI1
asg20
I3
sg21
g1730
sg23
I00
sba(iMAG
Car
p1781
(dp1782
g10
(lp1783
I5
aI4
asg12
g1096
sg14
(lp1784
sg16
g1069
sg18
(lp1785
I4
aI4
asg20
I2
sg21
g1277
sg23
I00
sba(iMAG
Car
p1786
(dp1787
g10
(lp1788
I4
aI2
asg12
g1103
sg14
(lp1789
sg16
g1069
sg18
(lp1790
I3
aI2
asg20
I2
sg21
g1626
sg23
I00
sba(iMAG
Car
p1791
(dp1792
g10
(lp1793
I1
aI0
asg12
g1110
sg14
(lp1794
sg16
g1069
sg18
(lp1795
I0
aI0
asg20
I2
sg21
g1459
sg23
I00
sba(iMAG
Car
p1796
(dp1797
g10
(lp1798
I3
aI0
asg12
g1117
sg14
(lp1799
sg16
g1069
sg18
(lp1800
I2
aI0
asg20
I2
sg21
g1521
sg23
I00
sba(iMAG
Car
p1801
(dp1802
g10
(lp1803
I2
aI5
asg12
g1124
sg14
(lp1804
sg16
g1069
sg18
(lp1805
I1
aI5
asg20
I2
sg21
g126
(g127
(S'S1'
p1806
I0
I1
tp1807
Rp1808
(I3
S'|'
p1809
NNNI1
I1
I0
tp1810
bg312
tp1811
Rp1812
sg23
I00
sbasg80
Nsg81
S'4477.3\n1.5..3\n1.5RR3>\n..50..\n...022\n.660..\n'
p1813
sba(i__main__
Node
p1814
(dp1815
g3
Nsg4
(lp1816
sg6
(lp1817
(iMAG
Car
p1818
(dp1819
g10
(lp1820
I0
aI5
asg12
g1067
sg14
(lp1821
sg16
g1069
sg18
(lp1822
I0
aI4
asg20
I2
sg21
g126
(g127
(S'S1'
p1823
I0
I1
tp1824
Rp1825
(I3
S'|'
p1826
NNNI1
I1
I0
tp1827
bg502
tp1828
Rp1829
sg23
I00
sba(iMAG
Car
p1830
(dp1831
g10
(lp1832
I3
aI5
asg12
g1075
sg14
(lp1833
sg16
g1069
sg18
(lp1834
I3
aI3
asg20
I3
sg21
g1376
sg23
I00
sba(iMAG
Car
p1835
(dp1836
g10
(lp1837
I5
aI2
asg12
g1082
sg14
(lp1838
sg16
g1069
sg18
(lp1839
I5
aI0
asg20
I3
sg21
g1553
sg23
I00
sba(iMAG
Car
p1840
(dp1841
g10
(lp1842
I2
aI3
asg12
g1089
sg14
(lp1843
sg16
g1069
sg18
(lp1844
I2
aI1
asg20
I3
sg21
g1730
sg23
I00
sba(iMAG
Car
p1845
(dp1846
g10
(lp1847
I5
aI4
asg12
g1096
sg14
(lp1848
sg16
g1069
sg18
(lp1849
I4
aI4
asg20
I2
sg21
g1277
sg23
I00
sba(iMAG
Car
p1850
(dp1851
g10
(lp1852
I4
aI2
asg12
g1103
sg14
(lp1853
sg16
g1069
sg18
(lp1854
I3
aI2
asg20
I2
sg21
g1626
sg23
I00
sba(iMAG
Car
p1855
(dp1856
g10
(lp1857
I1
aI0
asg12
g1110
sg14
(lp1858
sg16
g1069
sg18
(lp1859
I0
aI0
asg20
I2
sg21
g1459
sg23
I00
sba(iMAG
Car
p1860
(dp1861
g10
(lp1862
I3
aI0
asg12
g1117
sg14
(lp1863
sg16
g1069
sg18
(lp1864
I2
aI0
asg20
I2
sg21
g1521
sg23
I00
sba(iMAG
Car
p1865
(dp1866
g10
(lp1867
I2
aI5
asg12
g1124
sg14
(lp1868
sg16
g1069
sg18
(lp1869
I1
aI5
asg20
I2
sg21
g1812
sg23
I00
sbasg80
Nsg81
S'4477.3\n..5..3\n..5RR3>\n..50..\n1..022\n1660..\n'
p1870
sba(i__main__
Node
p1871
(dp1872
g3
Nsg4
(lp1873
sg6
(lp1874
(iMAG
Car
p1875
(dp1876
g10
(lp1877
I0
aI5
asg12
g1067
sg14
(lp1878
sg16
g1069
sg18
(lp1879
I0
aI4
asg20
I2
sg21
g1829
sg23
I00
sba(iMAG
Car
p1880
(dp1881
g10
(lp1882
I3
aI5
asg12
g1075
sg14
(lp1883
sg16
g1069
sg18
(lp1884
I3
aI3
asg20
I3
sg21
g1376
sg23
I00
sba(iMAG
Car
p1885
(dp1886
g10
(lp1887
I5
aI2
asg12
g1082
sg14
(lp1888
sg16
g1069
sg18
(lp1889
I5
aI0
asg20
I3
sg21
g1553
sg23
I00
sba(iMAG
Car
p1890
(dp1891
g10
(lp1892
I2
aI4
asg12
g1089
sg14
(lp1893
sg16
g1069
sg18
(lp1894
I2
aI2
asg20
I3
sg21
g126
(g127
(S'S1'
p1895
I0
I1
tp1896
Rp1897
(I3
S'|'
p1898
NNNI1
I1
I0
tp1899
bg244
tp1900
Rp1901
sg23
I00
sba(iMAG
Car
p1902
(dp1903
g10
(lp1904
I5
aI4
asg12
g1096
sg14
(lp1905
sg16
g1069
sg18
(lp1906
I4
aI4
asg20
I2
sg21
g1277
sg23
I00
sba(iMAG
Car
p1907
(dp1908
g10
(lp1909
I4
aI2
asg12
g1103
sg14
(lp1910
sg16
g1069
sg18
(lp1911
I3
aI2
asg20
I2
sg21
g1626
sg23
I00
sba(iMAG
Car
p1912
(dp1913
g10
(lp1914
I1
aI0
asg12
g1110
sg14
(lp1915
sg16
g1069
sg18
(lp1916
I0
aI0
asg20
I2
sg21
g1459
sg23
I00
sba(iMAG
Car
p1917
(dp1918
g10
(lp1919
I3
aI0
asg12
g1117
sg14
(lp1920
sg16
g1069
sg18
(lp1921
I2
aI0
asg20
I2
sg21
g1521
sg23
I00
sba(iMAG
Car
p1922
(dp1923
g10
(lp1924
I2
aI5
asg12
g1124
sg14
(lp1925
sg16
g1069
sg18
(lp1926
I1
aI5
asg20
I2
sg21
g1812
sg23
I00
sbasg80
Nsg81
S'4477.3\n.....3\n..5RR3>\n..50..\n1.5022\n1660..\n'
p1927
sba(i__main__
Node
p1928
(dp1929
g3
Nsg4
(lp1930
sg6
(lp1931
(iMAG
Car
p1932
(dp1933
g10
(lp1934
I0
aI5
asg12
g1067
sg14
(lp1935
sg16
g1069
sg18
(lp1936
I0
aI4
asg20
I2
sg21
g1829
sg23
I00
sba(iMAG
Car
p1937
(dp1938
g10
(lp1939
I3
aI5
asg12
g1075
sg14
(lp1940
sg16
g1069
sg18
(lp1941
I3
aI3
asg20
I3
sg21
g1376
sg23
I00
sba(iMAG
Car
p1942
(dp1943
g10
(lp1944
I5
aI3
asg12
g1082
sg14
(lp1945
sg16
g1069
sg18
(lp1946
I5
aI1
asg20
I3
sg21
g126
(g127
(S'S1'
p1947
I0
I1
tp1948
Rp1949
(I3
S'|'
p1950
NNNI1
I1
I0
tp1951
bg907
tp1952
Rp1953
sg23
I00
sba(iMAG
Car
p1954
(dp1955
g10
(lp1956
I2
aI4
asg12
g1089
sg14
(lp1957
sg16
g1069
sg18
(lp1958
I2
aI2
asg20
I3
sg21
g1901
sg23
I00
sba(iMAG
Car
p1959
(dp1960
g10
(lp1961
I5
aI4
asg12
g1096
sg14
(lp1962
sg16
g1069
sg18
(lp1963
I4
aI4
asg20
I2
sg21
g1277
sg23
I00
sba(iMAG
Car
p1964
(dp1965
g10
(lp1966
I4
aI2
asg12
g1103
sg14
(lp1967
sg16
g1069
sg18
(lp1968
I3
aI2
asg20
I2
sg21
g1626
sg23
I00
sba(iMAG
Car
p1969
(dp1970
g10
(lp1971
I1
aI0
asg12
g1110
sg14
(lp1972
sg16
g1069
sg18
(lp1973
I0
aI0
asg20
I2
sg21
g1459
sg23
I00
sba(iMAG
Car
p1974
(dp1975
g10
(lp1976
I3
aI0
asg12
g1117
sg14
(lp1977
sg16
g1069
sg18
(lp1978
I2
aI0
asg20
I2
sg21
g1521
sg23
I00
sba(iMAG
Car
p1979
(dp1980
g10
(lp1981
I2
aI5
asg12
g1124
sg14
(lp1982
sg16
g1069
sg18
(lp1983
I1
aI5
asg20
I2
sg21
g1812
sg23
I00
sbasg80
Nsg81
S'4477..\n.....3\n..5RR3>\n..50.3\n1.5022\n1660..\n'
p1984
sba(i__main__
Node
p1985
(dp1986
g3
Nsg4
(lp1987
sg6
(lp1988
(iMAG
Car
p1989
(dp1990
g10
(lp1991
I0
aI2
asg12
g1067
sg14
(lp1992
sg16
g1069
sg18
(lp1993
I0
aI1
asg20
I2
sg21
g126
(g127
(S'S1'
p1994
I0
I1
tp1995
Rp1996
(I3
S'|'
p1997
NNNI1
I1
I0
tp1998
bg502
tp1999
Rp2000
sg23
I00
sba(iMAG
Car
p2001
(dp2002
g10
(lp2003
I3
aI5
asg12
g1075
sg14
(lp2004
sg16
g1069
sg18
(lp2005
I3
aI3
asg20
I3
sg21
g1376
sg23
I00
sba(iMAG
Car
p2006
(dp2007
g10
(lp2008
I5
aI3
asg12
g1082
sg14
(lp2009
sg16
g1069
sg18
(lp2010
I5
aI1
asg20
I3
sg21
g1953
sg23
I00
sba(iMAG
Car
p2011
(dp2012
g10
(lp2013
I2
aI4
asg12
g1089
sg14
(lp2014
sg16
g1069
sg18
(lp2015
I2
aI2
asg20
I3
sg21
g1901
sg23
I00
sba(iMAG
Car
p2016
(dp2017
g10
(lp2018
I5
aI4
asg12
g1096
sg14
(lp2019
sg16
g1069
sg18
(lp2020
I4
aI4
asg20
I2
sg21
g1277
sg23
I00
sba(iMAG
Car
p2021
(dp2022
g10
(lp2023
I4
aI2
asg12
g1103
sg14
(lp2024
sg16
g1069
sg18
(lp2025
I3
aI2
asg20
I2
sg21
g1626
sg23
I00
sba(iMAG
Car
p2026
(dp2027
g10
(lp2028
I1
aI0
asg12
g1110
sg14
(lp2029
sg16
g1069
sg18
(lp2030
I0
aI0
asg20
I2
sg21
g1459
sg23
I00
sba(iMAG
Car
p2031
(dp2032
g10
(lp2033
I3
aI0
asg12
g1117
sg14
(lp2034
sg16
g1069
sg18
(lp2035
I2
aI0
asg20
I2
sg21
g1521
sg23
I00
sba(iMAG
Car
p2036
(dp2037
g10
(lp2038
I2
aI5
asg12
g1124
sg14
(lp2039
sg16
g1069
sg18
(lp2040
I1
aI5
asg20
I2
sg21
g1812
sg23
I00
sbasg80
Nsg81
S'4477..\n1....3\n1.5RR3>\n..50.3\n..5022\n.660..\n'
p2041
sba(i__main__
Node
p2042
(dp2043
g3
Nsg4
(lp2044
sg6
(lp2045
(iMAG
Car
p2046
(dp2047
g10
(lp2048
I0
aI2
asg12
g1067
sg14
(lp2049
sg16
g1069
sg18
(lp2050
I0
aI1
asg20
I2
sg21
g2000
sg23
I00
sba(iMAG
Car
p2051
(dp2052
g10
(lp2053
I3
aI5
asg12
g1075
sg14
(lp2054
sg16
g1069
sg18
(lp2055
I3
aI3
asg20
I3
sg21
g1376
sg23
I00
sba(iMAG
Car
p2056
(dp2057
g10
(lp2058
I5
aI3
asg12
g1082
sg14
(lp2059
sg16
g1069
sg18
(lp2060
I5
aI1
asg20
I3
sg21
g1953
sg23
I00
sba(iMAG
Car
p2061
(dp2062
g10
(lp2063
I2
aI4
asg12
g1089
sg14
(lp2064
sg16
g1069
sg18
(lp2065
I2
aI2
asg20
I3
sg21
g1901
sg23
I00
sba(iMAG
Car
p2066
(dp2067
g10
(lp2068
I5
aI4
asg12
g1096
sg14
(lp2069
sg16
g1069
sg18
(lp2070
I4
aI4
asg20
I2
sg21
g1277
sg23
I00
sba(iMAG
Car
p2071
(dp2072
g10
(lp2073
I4
aI2
asg12
g1103
sg14
(lp2074
sg16
g1069
sg18
(lp2075
I3
aI2
asg20
I2
sg21
g1626
sg23
I00
sba(iMAG
Car
p2076
(dp2077
g10
(lp2078
I1
aI0
asg12
g1110
sg14
(lp2079
sg16
g1069
sg18
(lp2080
I0
aI0
asg20
I2
sg21
g1459
sg23
I00
sba(iMAG
Car
p2081
(dp2082
g10
(lp2083
I3
aI0
asg12
g1117
sg14
(lp2084
sg16
g1069
sg18
(lp2085
I2
aI0
asg20
I2
sg21
g1521
sg23
I00
sba(iMAG
Car
p2086
(dp2087
g10
(lp2088
I1
aI5
asg12
g1124
sg14
(lp2089
sg16
g1069
sg18
(lp2090
I0
aI5
asg20
I2
sg21
g126
(g127
(S'S1'
p2091
I0
I1
tp2092
Rp2093
(I3
S'|'
p2094
NNNI1
I1
I0
tp2095
bg312
tp2096
Rp2097
sg23
I00
sbasg80
Nsg81
S'4477..\n1....3\n1.5RR3>\n..50.3\n..5022\n66.0..\n'
p2098
sba(i__main__
Node
p2099
(dp2100
g3
Nsg4
(lp2101
sg6
(lp2102
(iMAG
Car
p2103
(dp2104
g10
(lp2105
I0
aI2
asg12
g1067
sg14
(lp2106
sg16
g1069
sg18
(lp2107
I0
aI1
asg20
I2
sg21
g2000
sg23
I00
sba(iMAG
Car
p2108
(dp2109
g10
(lp2110
I3
aI5
asg12
g1075
sg14
(lp2111
sg16
g1069
sg18
(lp2112
I3
aI3
asg20
I3
sg21
g1376
sg23
I00
sba(iMAG
Car
p2113
(dp2114
g10
(lp2115
I5
aI3
asg12
g1082
sg14
(lp2116
sg16
g1069
sg18
(lp2117
I5
aI1
asg20
I3
sg21
g1953
sg23
I00
sba(iMAG
Car
p2118
(dp2119
g10
(lp2120
I2
aI5
asg12
g1089
sg14
(lp2121
sg16
g1069
sg18
(lp2122
I2
aI3
asg20
I3
sg21
g126
(g127
(S'S1'
p2123
I0
I1
tp2124
Rp2125
(I3
S'|'
p2126
NNNI1
I1
I0
tp2127
bg244
tp2128
Rp2129
sg23
I00
sba(iMAG
Car
p2130
(dp2131
g10
(lp2132
I5
aI4
asg12
g1096
sg14
(lp2133
sg16
g1069
sg18
(lp2134
I4
aI4
asg20
I2
sg21
g1277
sg23
I00
sba(iMAG
Car
p2135
(dp2136
g10
(lp2137
I4
aI2
asg12
g1103
sg14
(lp2138
sg16
g1069
sg18
(lp2139
I3
aI2
asg20
I2
sg21
g1626
sg23
I00
sba(iMAG
Car
p2140
(dp2141
g10
(lp2142
I1
aI0
asg12
g1110
sg14
(lp2143
sg16
g1069
sg18
(lp2144
I0
aI0
asg20
I2
sg21
g1459
sg23
I00
sba(iMAG
Car
p2145
(dp2146
g10
(lp2147
I3
aI0
asg12
g1117
sg14
(lp2148
sg16
g1069
sg18
(lp2149
I2
aI0
asg20
I2
sg21
g1521
sg23
I00
sba(iMAG
Car
p2150
(dp2151
g10
(lp2152
I1
aI5
asg12
g1124
sg14
(lp2153
sg16
g1069
sg18
(lp2154
I0
aI5
asg20
I2
sg21
g2097
sg23
I00
sbasg80
Nsg81
S'4477..\n1....3\n1..RR3>\n..50.3\n..5022\n6650..\n'
p2155
sba(i__main__
Node
p2156
(dp2157
g3
Nsg4
(lp2158
sg6
(lp2159
(iMAG
Car
p2160
(dp2161
g10
(lp2162
I0
aI2
asg12
g1067
sg14
(lp2163
sg16
g1069
sg18
(lp2164
I0
aI1
asg20
I2
sg21
g2000
sg23
I00
sba(iMAG
Car
p2165
(dp2166
g10
(lp2167
I3
aI5
asg12
g1075
sg14
(lp2168
sg16
g1069
sg18
(lp2169
I3
aI3
asg20
I3
sg21
g1376
sg23
I00
sba(iMAG
Car
p2170
(dp2171
g10
(lp2172
I5
aI3
asg12
g1082
sg14
(lp2173
sg16
g1069
sg18
(lp2174
I5
aI1
asg20
I3
sg21
g1953
sg23
I00
sba(iMAG
Car
p2175
(dp2176
g10
(lp2177
I2
aI5
asg12
g1089
sg14
(lp2178
sg16
g1069
sg18
(lp2179
I2
aI3
asg20
I3
sg21
g2129
sg23
I00
sba(iMAG
Car
p2180
(dp2181
g10
(lp2182
I5
aI4
asg12
g1096
sg14
(lp2183
sg16
g1069
sg18
(lp2184
I4
aI4
asg20
I2
sg21
g1277
sg23
I00
sba(iMAG
Car
p2185
(dp2186
g10
(lp2187
I2
aI2
asg12
g1103
sg14
(lp2188
sg16
g1069
sg18
(lp2189
I1
aI2
asg20
I2
sg21
g126
(g127
(S'S1'
p2190
I0
I1
tp2191
Rp2192
(I3
S'|'
p2193
NNNI1
I1
I0
tp2194
bg1624
tp2195
Rp2196
sg23
I00
sba(iMAG
Car
p2197
(dp2198
g10
(lp2199
I1
aI0
asg12
g1110
sg14
(lp2200
sg16
g1069
sg18
(lp2201
I0
aI0
asg20
I2
sg21
g1459
sg23
I00
sba(iMAG
Car
p2202
(dp2203
g10
(lp2204
I3
aI0
asg12
g1117
sg14
(lp2205
sg16
g1069
sg18
(lp2206
I2
aI0
asg20
I2
sg21
g1521
sg23
I00
sba(iMAG
Car
p2207
(dp2208
g10
(lp2209
I1
aI5
asg12
g1124
sg14
(lp2210
sg16
g1069
sg18
(lp2211
I0
aI5
asg20
I2
sg21
g2097
sg23
I00
sbasg80
Nsg81
S'4477..\n1....3\n1RR..3>\n..50.3\n..5022\n6650..\n'
p2212
sba(i__main__
Node
p2213
(dp2214
g3
Nsg4
(lp2215
sg6
(lp2216
(iMAG
Car
p2217
(dp2218
g10
(lp2219
I0
aI2
asg12
g1067
sg14
(lp2220
sg16
g1069
sg18
(lp2221
I0
aI1
asg20
I2
sg21
g2000
sg23
I00
sba(iMAG
Car
p2222
(dp2223
g10
(lp2224
I3
aI3
asg12
g1075
sg14
(lp2225
sg16
g1069
sg18
(lp2226
I3
aI1
asg20
I3
sg21
g126
(g127
(S'S1'
p2227
I0
I1
tp2228
Rp2229
(I3
S'|'
p2230
NNNI1
I1
I0
tp2231
bg176
tp2232
Rp2233
sg23
I00
sba(iMAG
Car
p2234
(dp2235
g10
(lp2236
I5
aI3
asg12
g1082
sg14
(lp2237
sg16
g1069
sg18
(lp2238
I5
aI1
asg20
I3
sg21
g1953
sg23
I00
sba(iMAG
Car
p2239
(dp2240
g10
(lp2241
I2
aI5
asg12
g1089
sg14
(lp2242
sg16
g1069
sg18
(lp2243
I2
aI3
asg20
I3
sg21
g2129
sg23
I00
sba(iMAG
Car
p2244
(dp2245
g10
(lp2246
I5
aI4
asg12
g1096
sg14
(lp2247
sg16
g1069
sg18
(lp2248
I4
aI4
asg20
I2
sg21
g1277
sg23
I00
sba(iMAG
Car
p2249
(dp2250
g10
(lp2251
I2
aI2
asg12
g1103
sg14
(lp2252
sg16
g1069
sg18
(lp2253
I1
aI2
asg20
I2
sg21
g2196
sg23
I00
sba(iMAG
Car
p2254
(dp2255
g10
(lp2256
I1
aI0
asg12
g1110
sg14
(lp2257
sg16
g1069
sg18
(lp2258
I0
aI0
asg20
I2
sg21
g1459
sg23
I00
sba(iMAG
Car
p2259
(dp2260
g10
(lp2261
I3
aI0
asg12
g1117
sg14
(lp2262
sg16
g1069
sg18
(lp2263
I2
aI0
asg20
I2
sg21
g1521
sg23
I00
sba(iMAG
Car
p2264
(dp2265
g10
(lp2266
I1
aI5
asg12
g1124
sg14
(lp2267
sg16
g1069
sg18
(lp2268
I0
aI5
asg20
I2
sg21
g2097
sg23
I00
sbasg80
Nsg81
S'4477..\n1..0.3\n1RR0.3>\n..50.3\n..5.22\n665...\n'
p2269
sba(i__main__
Node
p2270
(dp2271
g3
Nsg4
(lp2272
sg6
(lp2273
(iMAG
Car
p2274
(dp2275
g10
(lp2276
I0
aI2
asg12
g1067
sg14
(lp2277
sg16
g1069
sg18
(lp2278
I0
aI1
asg20
I2
sg21
g2000
sg23
I00
sba(iMAG
Car
p2279
(dp2280
g10
(lp2281
I3
aI3
asg12
g1075
sg14
(lp2282
sg16
g1069
sg18
(lp2283
I3
aI1
asg20
I3
sg21
g2233
sg23
I00
sba(iMAG
Car
p2284
(dp2285
g10
(lp2286
I5
aI3
asg12
g1082
sg14
(lp2287
sg16
g1069
sg18
(lp2288
I5
aI1
asg20
I3
sg21
g1953
sg23
I00
sba(iMAG
Car
p2289
(dp2290
g10
(lp2291
I2
aI5
asg12
g1089
sg14
(lp2292
sg16
g1069
sg18
(lp2293
I2
aI3
asg20
I3
sg21
g2129
sg23
I00
sba(iMAG
Car
p2294
(dp2295
g10
(lp2296
I4
aI4
asg12
g1096
sg14
(lp2297
sg16
g1069
sg18
(lp2298
I3
aI4
asg20
I2
sg21
g126
(g127
(S'S1'
p2299
I0
I1
tp2300
Rp2301
(I3
S'|'
p2302
NNNI1
I1
I0
tp2303
bg340
tp2304
Rp2305
sg23
I00
sba(iMAG
Car
p2306
(dp2307
g10
(lp2308
I2
aI2
asg12
g1103
sg14
(lp2309
sg16
g1069
sg18
(lp2310
I1
aI2
asg20
I2
sg21
g2196
sg23
I00
sba(iMAG
Car
p2311
(dp2312
g10
(lp2313
I1
aI0
asg12
g1110
sg14
(lp2314
sg16
g1069
sg18
(lp2315
I0
aI0
asg20
I2
sg21
g1459
sg23
I00
sba(iMAG
Car
p2316
(dp2317
g10
(lp2318
I3
aI0
asg12
g1117
sg14
(lp2319
sg16
g1069
sg18
(lp2320
I2
aI0
asg20
I2
sg21
g1521
sg23
I00
sba(iMAG
Car
p2321
(dp2322
g10
(lp2323
I1
aI5
asg12
g1124
sg14
(lp2324
sg16
g1069
sg18
(lp2325
I0
aI5
asg20
I2
sg21
g2097
sg23
I00
sbasg80
Nsg81
S'4477..\n1..0.3\n1RR0.3>\n..50.3\n..522.\n665...\n'
p2326
sba(i__main__
Node
p2327
(dp2328
g3
Nsg4
(lp2329
sg6
(lp2330
(iMAG
Car
p2331
(dp2332
g10
(lp2333
I0
aI2
asg12
g1067
sg14
(lp2334
sg16
g1069
sg18
(lp2335
I0
aI1
asg20
I2
sg21
g2000
sg23
I00
sba(iMAG
Car
p2336
(dp2337
g10
(lp2338
I3
aI3
asg12
g1075
sg14
(lp2339
sg16
g1069
sg18
(lp2340
I3
aI1
asg20
I3
sg21
g2233
sg23
I00
sba(iMAG
Car
p2341
(dp2342
g10
(lp2343
I5
aI5
asg12
g1082
sg14
(lp2344
sg16
g1069
sg18
(lp2345
I5
aI3
asg20
I3
sg21
g126
(g127
(S'S1'
p2346
I0
I1
tp2347
Rp2348
(I3
S'|'
p2349
NNNI1
I1
I0
tp2350
bg907
tp2351
Rp2352
sg23
I00
sba(iMAG
Car
p2353
(dp2354
g10
(lp2355
I2
aI5
asg12
g1089
sg14
(lp2356
sg16
g1069
sg18
(lp2357
I2
aI3
asg20
I3
sg21
g2129
sg23
I00
sba(iMAG
Car
p2358
(dp2359
g10
(lp2360
I4
aI4
asg12
g1096
sg14
(lp2361
sg16
g1069
sg18
(lp2362
I3
aI4
asg20
I2
sg21
g2305
sg23
I00
sba(iMAG
Car
p2363
(dp2364
g10
(lp2365
I2
aI2
asg12
g1103
sg14
(lp2366
sg16
g1069
sg18
(lp2367
I1
aI2
asg20
I2
sg21
g2196
sg23
I00
sba(iMAG
Car
p2368
(dp2369
g10
(lp2370
I1
aI0
asg12
g1110
sg14
(lp2371
sg16
g1069
sg18
(lp2372
I0
aI0
asg20
I2
sg21
g1459
sg23
I00
sba(iMAG
Car
p2373
(dp2374
g10
(lp2375
I3
aI0
asg12
g1117
sg14
(lp2376
sg16
g1069
sg18
(lp2377
I2
aI0
asg20
I2
sg21
g1521
sg23
I00
sba(iMAG
Car
p2378
(dp2379
g10
(lp2380
I1
aI5
asg12
g1124
sg14
(lp2381
sg16
g1069
sg18
(lp2382
I0
aI5
asg20
I2
sg21
g2097
sg23
I00
sbasg80
Nsg81
S'4477..\n1..0..\n1RR0..>\n..50.3\n..5223\n665..3\n'
p2383
sba(i__main__
Node
p2384
(dp2385
g3
Nsg4
(lp2386
sg6
(lp2387
(iMAG
Car
p2388
(dp2389
g10
(lp2390
I0
aI2
asg12
g1067
sg14
(lp2391
sg16
g1069
sg18
(lp2392
I0
aI1
asg20
I2
sg21
g2000
sg23
I00
sba(iMAG
Car
p2393
(dp2394
g10
(lp2395
I3
aI3
asg12
g1075
sg14
(lp2396
sg16
g1069
sg18
(lp2397
I3
aI1
asg20
I3
sg21
g2233
sg23
I00
sba(iMAG
Car
p2398
(dp2399
g10
(lp2400
I5
aI5
asg12
g1082
sg14
(lp2401
sg16
g1069
sg18
(lp2402
I5
aI3
asg20
I3
sg21
g2352
sg23
I00
sba(iMAG
Car
p2403
(dp2404
g10
(lp2405
I2
aI5
asg12
g1089
sg14
(lp2406
sg16
g1069
sg18
(lp2407
I2
aI3
asg20
I3
sg21
g2129
sg23
I00
sba(iMAG
Car
p2408
(dp2409
g10
(lp2410
I4
aI4
asg12
g1096
sg14
(lp2411
sg16
g1069
sg18
(lp2412
I3
aI4
asg20
I2
sg21
g2305
sg23
I00
sba(iMAG
Car
p2413
(dp2414
g10
(lp2415
I2
aI2
asg12
g1103
sg14
(lp2416
sg16
g1069
sg18
(lp2417
I1
aI2
asg20
I2
sg21
g2196
sg23
I00
sba(iMAG
Car
p2418
(dp2419
g10
(lp2420
I1
aI0
asg12
g1110
sg14
(lp2421
sg16
g1069
sg18
(lp2422
I0
aI0
asg20
I2
sg21
g1459
sg23
I00
sba(iMAG
Car
p2423
(dp2424
g10
(lp2425
I5
aI0
asg12
g1117
sg14
(lp2426
sg16
g1069
sg18
(lp2427
I4
aI0
asg20
I2
sg21
g126
(g127
(S'S1'
p2428
I0
I1
tp2429
Rp2430
(I3
S'|'
p2431
NNNI1
I1
I0
tp2432
bg133
tp2433
Rp2434
sg23
I00
sba(iMAG
Car
p2435
(dp2436
g10
(lp2437
I1
aI5
asg12
g1124
sg14
(lp2438
sg16
g1069
sg18
(lp2439
I0
aI5
asg20
I2
sg21
g2097
sg23
I00
sbasg80
Nsg81
S'44..77\n1..0..\n1RR0..>\n..50.3\n..5223\n665..3\n'
p2440
sba(i__main__
Node
p2441
(dp2442
g3
Nsg4
(lp2443
sg6
(lp2444
(iMAG
Car
p2445
(dp2446
g10
(lp2447
I0
aI2
asg12
g1067
sg14
(lp2448
sg16
g1069
sg18
(lp2449
I0
aI1
asg20
I2
sg21
g2000
sg23
I00
sba(iMAG
Car
p2450
(dp2451
g10
(lp2452
I3
aI2
asg12
g1075
sg14
(lp2453
sg16
g1069
sg18
(lp2454
I3
aI0
asg20
I3
sg21
g126
(g127
(S'S1'
p2455
I0
I1
tp2456
Rp2457
(I3
S'|'
p2458
NNNI1
I1
I0
tp2459
bg176
tp2460
Rp2461
sg23
I00
sba(iMAG
Car
p2462
(dp2463
g10
(lp2464
I5
aI5
asg12
g1082
sg14
(lp2465
sg16
g1069
sg18
(lp2466
I5
aI3
asg20
I3
sg21
g2352
sg23
I00
sba(iMAG
Car
p2467
(dp2468
g10
(lp2469
I2
aI5
asg12
g1089
sg14
(lp2470
sg16
g1069
sg18
(lp2471
I2
aI3
asg20
I3
sg21
g2129
sg23
I00
sba(iMAG
Car
p2472
(dp2473
g10
(lp2474
I4
aI4
asg12
g1096
sg14
(lp2475
sg16
g1069
sg18
(lp2476
I3
aI4
asg20
I2
sg21
g2305
sg23
I00
sba(iMAG
Car
p2477
(dp2478
g10
(lp2479
I2
aI2
asg12
g1103
sg14
(lp2480
sg16
g1069
sg18
(lp2481
I1
aI2
asg20
I2
sg21
g2196
sg23
I00
sba(iMAG
Car
p2482
(dp2483
g10
(lp2484
I1
aI0
asg12
g1110
sg14
(lp2485
sg16
g1069
sg18
(lp2486
I0
aI0
asg20
I2
sg21
g1459
sg23
I00
sba(iMAG
Car
p2487
(dp2488
g10
(lp2489
I5
aI0
asg12
g1117
sg14
(lp2490
sg16
g1069
sg18
(lp2491
I4
aI0
asg20
I2
sg21
g2434
sg23
I00
sba(iMAG
Car
p2492
(dp2493
g10
(lp2494
I1
aI5
asg12
g1124
sg14
(lp2495
sg16
g1069
sg18
(lp2496
I0
aI5
asg20
I2
sg21
g2097
sg23
I00
sbasg80
Nsg81
S'44.077\n1..0..\n1RR0..>\n..5..3\n..5223\n665..3\n'
p2497
sba(i__main__
Node
p2498
(dp2499
g3
Nsg4
(lp2500
sg6
(lp2501
(iMAG
Car
p2502
(dp2503
g10
(lp2504
I0
aI2
asg12
g1067
sg14
(lp2505
sg16
g1069
sg18
(lp2506
I0
aI1
asg20
I2
sg21
g2000
sg23
I00
sba(iMAG
Car
p2507
(dp2508
g10
(lp2509
I3
aI2
asg12
g1075
sg14
(lp2510
sg16
g1069
sg18
(lp2511
I3
aI0
asg20
I3
sg21
g2461
sg23
I00
sba(iMAG
Car
p2512
(dp2513
g10
(lp2514
I5
aI5
asg12
g1082
sg14
(lp2515
sg16
g1069
sg18
(lp2516
I5
aI3
asg20
I3
sg21
g2352
sg23
I00
sba(iMAG
Car
p2517
(dp2518
g10
(lp2519
I2
aI5
asg12
g1089
sg14
(lp2520
sg16
g1069
sg18
(lp2521
I2
aI3
asg20
I3
sg21
g2129
sg23
I00
sba(iMAG
Car
p2522
(dp2523
g10
(lp2524
I4
aI4
asg12
g1096
sg14
(lp2525
sg16
g1069
sg18
(lp2526
I3
aI4
asg20
I2
sg21
g2305
sg23
I00
sba(iMAG
Car
p2527
(dp2528
g10
(lp2529
I2
aI2
asg12
g1103
sg14
(lp2530
sg16
g1069
sg18
(lp2531
I1
aI2
asg20
I2
sg21
g2196
sg23
I00
sba(iMAG
Car
p2532
(dp2533
g10
(lp2534
I2
aI0
asg12
g1110
sg14
(lp2535
sg16
g1069
sg18
(lp2536
I1
aI0
asg20
I2
sg21
g126
(g127
(S'S1'
p2537
I0
I1
tp2538
Rp2539
(I3
S'|'
p2540
NNNI1
I1
I0
tp2541
bg1457
tp2542
Rp2543
sg23
I00
sba(iMAG
Car
p2544
(dp2545
g10
(lp2546
I5
aI0
asg12
g1117
sg14
(lp2547
sg16
g1069
sg18
(lp2548
I4
aI0
asg20
I2
sg21
g2434
sg23
I00
sba(iMAG
Car
p2549
(dp2550
g10
(lp2551
I1
aI5
asg12
g1124
sg14
(lp2552
sg16
g1069
sg18
(lp2553
I0
aI5
asg20
I2
sg21
g2097
sg23
I00
sbasg80
Nsg81
S'.44077\n1..0..\n1RR0..>\n..5..3\n..5223\n665..3\n'
p2554
sba(i__main__
Node
p2555
(dp2556
g3
Nsg4
(lp2557
sg6
(lp2558
(iMAG
Car
p2559
(dp2560
g10
(lp2561
I0
aI1
asg12
g1067
sg14
(lp2562
sg16
g1069
sg18
(lp2563
I0
aI0
asg20
I2
sg21
g126
(g127
(S'S1'
p2564
I0
I1
tp2565
Rp2566
(I3
S'|'
p2567
NNNI1
I1
I0
tp2568
bg502
tp2569
Rp2570
sg23
I00
sba(iMAG
Car
p2571
(dp2572
g10
(lp2573
I3
aI2
asg12
g1075
sg14
(lp2574
sg16
g1069
sg18
(lp2575
I3
aI0
asg20
I3
sg21
g2461
sg23
I00
sba(iMAG
Car
p2576
(dp2577
g10
(lp2578
I5
aI5
asg12
g1082
sg14
(lp2579
sg16
g1069
sg18
(lp2580
I5
aI3
asg20
I3
sg21
g2352
sg23
I00
sba(iMAG
Car
p2581
(dp2582
g10
(lp2583
I2
aI5
asg12
g1089
sg14
(lp2584
sg16
g1069
sg18
(lp2585
I2
aI3
asg20
I3
sg21
g2129
sg23
I00
sba(iMAG
Car
p2586
(dp2587
g10
(lp2588
I4
aI4
asg12
g1096
sg14
(lp2589
sg16
g1069
sg18
(lp2590
I3
aI4
asg20
I2
sg21
g2305
sg23
I00
sba(iMAG
Car
p2591
(dp2592
g10
(lp2593
I2
aI2
asg12
g1103
sg14
(lp2594
sg16
g1069
sg18
(lp2595
I1
aI2
asg20
I2
sg21
g2196
sg23
I00
sba(iMAG
Car
p2596
(dp2597
g10
(lp2598
I2
aI0
asg12
g1110
sg14
(lp2599
sg16
g1069
sg18
(lp2600
I1
aI0
asg20
I2
sg21
g2543
sg23
I00
sba(iMAG
Car
p2601
(dp2602
g10
(lp2603
I5
aI0
asg12
g1117
sg14
(lp2604
sg16
g1069
sg18
(lp2605
I4
aI0
asg20
I2
sg21
g2434
sg23
I00
sba(iMAG
Car
p2606
(dp2607
g10
(lp2608
I1
aI5
asg12
g1124
sg14
(lp2609
sg16
g1069
sg18
(lp2610
I0
aI5
asg20
I2
sg21
g2097
sg23
I00
sbasg80
Nsg81
S'144077\n1..0..\n.RR0..>\n..5..3\n..5223\n665..3\n'
p2611
sba(i__main__
Node
p2612
(dp2613
g3
Nsg4
(lp2614
sg6
(lp2615
(iMAG
Car
p2616
(dp2617
g10
(lp2618
I0
aI1
asg12
g1067
sg14
(lp2619
sg16
g1069
sg18
(lp2620
I0
aI0
asg20
I2
sg21
g2570
sg23
I00
sba(iMAG
Car
p2621
(dp2622
g10
(lp2623
I3
aI2
asg12
g1075
sg14
(lp2624
sg16
g1069
sg18
(lp2625
I3
aI0
asg20
I3
sg21
g2461
sg23
I00
sba(iMAG
Car
p2626
(dp2627
g10
(lp2628
I5
aI5
asg12
g1082
sg14
(lp2629
sg16
g1069
sg18
(lp2630
I5
aI3
asg20
I3
sg21
g2352
sg23
I00
sba(iMAG
Car
p2631
(dp2632
g10
(lp2633
I2
aI5
asg12
g1089
sg14
(lp2634
sg16
g1069
sg18
(lp2635
I2
aI3
asg20
I3
sg21
g2129
sg23
I00
sba(iMAG
Car
p2636
(dp2637
g10
(lp2638
I4
aI4
asg12
g1096
sg14
(lp2639
sg16
g1069
sg18
(lp2640
I3
aI4
asg20
I2
sg21
g2305
sg23
I00
sba(iMAG
Car
p2641
(dp2642
g10
(lp2643
I1
aI2
asg12
g1103
sg14
(lp2644
sg16
g1069
sg18
(lp2645
I0
aI2
asg20
I2
sg21
g126
(g127
(S'S1'
p2646
I0
I1
tp2647
Rp2648
(I3
S'|'
p2649
NNNI1
I1
I0
tp2650
bg1624
tp2651
Rp2652
sg23
I00
sba(iMAG
Car
p2653
(dp2654
g10
(lp2655
I2
aI0
asg12
g1110
sg14
(lp2656
sg16
g1069
sg18
(lp2657
I1
aI0
asg20
I2
sg21
g2543
sg23
I00
sba(iMAG
Car
p2658
(dp2659
g10
(lp2660
I5
aI0
asg12
g1117
sg14
(lp2661
sg16
g1069
sg18
(lp2662
I4
aI0
asg20
I2
sg21
g2434
sg23
I00
sba(iMAG
Car
p2663
(dp2664
g10
(lp2665
I1
aI5
asg12
g1124
sg14
(lp2666
sg16
g1069
sg18
(lp2667
I0
aI5
asg20
I2
sg21
g2097
sg23
I00
sbasg80
Nsg81
S'144077\n1..0..\nRR.0..>\n..5..3\n..5223\n665..3\n'
p2668
sba(i__main__
Node
p2669
(dp2670
g3
Nsg4
(lp2671
sg6
(lp2672
(iMAG
Car
p2673
(dp2674
g10
(lp2675
I0
aI1
asg12
g1067
sg14
(lp2676
sg16
g1069
sg18
(lp2677
I0
aI0
asg20
I2
sg21
g2570
sg23
I00
sba(iMAG
Car
p2678
(dp2679
g10
(lp2680
I3
aI2
asg12
g1075
sg14
(lp2681
sg16
g1069
sg18
(lp2682
I3
aI0
asg20
I3
sg21
g2461
sg23
I00
sba(iMAG
Car
p2683
(dp2684
g10
(lp2685
I5
aI5
asg12
g1082
sg14
(lp2686
sg16
g1069
sg18
(lp2687
I5
aI3
asg20
I3
sg21
g2352
sg23
I00
sba(iMAG
Car
p2688
(dp2689
g10
(lp2690
I2
aI3
asg12
g1089
sg14
(lp2691
sg16
g1069
sg18
(lp2692
I2
aI1
asg20
I3
sg21
g126
(g127
(S'S1'
p2693
I0
I1
tp2694
Rp2695
(I3
S'|'
p2696
NNNI1
I1
I0
tp2697
bg244
tp2698
Rp2699
sg23
I00
sba(iMAG
Car
p2700
(dp2701
g10
(lp2702
I4
aI4
asg12
g1096
sg14
(lp2703
sg16
g1069
sg18
(lp2704
I3
aI4
asg20
I2
sg21
g2305
sg23
I00
sba(iMAG
Car
p2705
(dp2706
g10
(lp2707
I1
aI2
asg12
g1103
sg14
(lp2708
sg16
g1069
sg18
(lp2709
I0
aI2
asg20
I2
sg21
g2652
sg23
I00
sba(iMAG
Car
p2710
(dp2711
g10
(lp2712
I2
aI0
asg12
g1110
sg14
(lp2713
sg16
g1069
sg18
(lp2714
I1
aI0
asg20
I2
sg21
g2543
sg23
I00
sba(iMAG
Car
p2715
(dp2716
g10
(lp2717
I5
aI0
asg12
g1117
sg14
(lp2718
sg16
g1069
sg18
(lp2719
I4
aI0
asg20
I2
sg21
g2434
sg23
I00
sba(iMAG
Car
p2720
(dp2721
g10
(lp2722
I1
aI5
asg12
g1124
sg14
(lp2723
sg16
g1069
sg18
(lp2724
I0
aI5
asg20
I2
sg21
g2097
sg23
I00
sbasg80
Nsg81
S'144077\n1.50..\nRR50..>\n..5..3\n...223\n66...3\n'
p2725
sba(i__main__
Node
p2726
(dp2727
g3
Nsg4
(lp2728
sg6
(lp2729
(iMAG
Car
p2730
(dp2731
g10
(lp2732
I0
aI1
asg12
g1067
sg14
(lp2733
sg16
g1069
sg18
(lp2734
I0
aI0
asg20
I2
sg21
g2570
sg23
I00
sba(iMAG
Car
p2735
(dp2736
g10
(lp2737
I3
aI2
asg12
g1075
sg14
(lp2738
sg16
g1069
sg18
(lp2739
I3
aI0
asg20
I3
sg21
g2461
sg23
I00
sba(iMAG
Car
p2740
(dp2741
g10
(lp2742
I5
aI5
asg12
g1082
sg14
(lp2743
sg16
g1069
sg18
(lp2744
I5
aI3
asg20
I3
sg21
g2352
sg23
I00
sba(iMAG
Car
p2745
(dp2746
g10
(lp2747
I2
aI3
asg12
g1089
sg14
(lp2748
sg16
g1069
sg18
(lp2749
I2
aI1
asg20
I3
sg21
g2699
sg23
I00
sba(iMAG
Car
p2750
(dp2751
g10
(lp2752
I1
aI4
asg12
g1096
sg14
(lp2753
sg16
g1069
sg18
(lp2754
I0
aI4
asg20
I2
sg21
g126
(g127
(S'S1'
p2755
I0
I1
tp2756
Rp2757
(I3
S'|'
p2758
NNNI1
I1
I0
tp2759
bg340
tp2760
Rp2761
sg23
I00
sba(iMAG
Car
p2762
(dp2763
g10
(lp2764
I1
aI2
asg12
g1103
sg14
(lp2765
sg16
g1069
sg18
(lp2766
I0
aI2
asg20
I2
sg21
g2652
sg23
I00
sba(iMAG
Car
p2767
(dp2768
g10
(lp2769
I2
aI0
asg12
g1110
sg14
(lp2770
sg16
g1069
sg18
(lp2771
I1
aI0
asg20
I2
sg21
g2543
sg23
I00
sba(iMAG
Car
p2772
(dp2773
g10
(lp2774
I5
aI0
asg12
g1117
sg14
(lp2775
sg16
g1069
sg18
(lp2776
I4
aI0
asg20
I2
sg21
g2434
sg23
I00
sba(iMAG
Car
p2777
(dp2778
g10
(lp2779
I1
aI5
asg12
g1124
sg14
(lp2780
sg16
g1069
sg18
(lp2781
I0
aI5
asg20
I2
sg21
g2097
sg23
I00
sbasg80
Nsg81
S'144077\n1.50..\nRR50..>\n..5..3\n22...3\n66...3\n'
p2782
sba(i__main__
Node
p2783
(dp2784
g3
Nsg4
(lp2785
sg6
(lp2786
(iMAG
Car
p2787
(dp2788
g10
(lp2789
I0
aI1
asg12
g1067
sg14
(lp2790
sg16
g1069
sg18
(lp2791
I0
aI0
asg20
I2
sg21
g2570
sg23
I00
sba(iMAG
Car
p2792
(dp2793
g10
(lp2794
I3
aI5
asg12
g1075
sg14
(lp2795
sg16
g1069
sg18
(lp2796
I3
aI3
asg20
I3
sg21
g126
(g127
(S'S1'
p2797
I0
I1
tp2798
Rp2799
(I3
S'|'
p2800
NNNI1
I1
I0
tp2801
bg176
tp2802
Rp2803
sg23
I00
sba(iMAG
Car
p2804
(dp2805
g10
(lp2806
I5
aI5
asg12
g1082
sg14
(lp2807
sg16
g1069
sg18
(lp2808
I5
aI3
asg20
I3
sg21
g2352
sg23
I00
sba(iMAG
Car
p2809
(dp2810
g10
(lp2811
I2
aI3
asg12
g1089
sg14
(lp2812
sg16
g1069
sg18
(lp2813
I2
aI1
asg20
I3
sg21
g2699
sg23
I00
sba(iMAG
Car
p2814
(dp2815
g10
(lp2816
I1
aI4
asg12
g1096
sg14
(lp2817
sg16
g1069
sg18
(lp2818
I0
aI4
asg20
I2
sg21
g2761
sg23
I00
sba(iMAG
Car
p2819
(dp2820
g10
(lp2821
I1
aI2
asg12
g1103
sg14
(lp2822
sg16
g1069
sg18
(lp2823
I0
aI2
asg20
I2
sg21
g2652
sg23
I00
sba(iMAG
Car
p2824
(dp2825
g10
(lp2826
I2
aI0
asg12
g1110
sg14
(lp2827
sg16
g1069
sg18
(lp2828
I1
aI0
asg20
I2
sg21
g2543
sg23
I00
sba(iMAG
Car
p2829
(dp2830
g10
(lp2831
I5
aI0
asg12
g1117
sg14
(lp2832
sg16
g1069
sg18
(lp2833
I4
aI0
asg20
I2
sg21
g2434
sg23
I00
sba(iMAG
Car
p2834
(dp2835
g10
(lp2836
I1
aI5
asg12
g1124
sg14
(lp2837
sg16
g1069
sg18
(lp2838
I0
aI5
asg20
I2
sg21
g2097
sg23
I00
sbasg80
Nsg81
S'144.77\n1.5...\nRR5...>\n..50.3\n22.0.3\n66.0.3\n'
p2839
sba(i__main__
Node
p2840
(dp2841
g3
Nsg4
(lp2842
sg6
(lp2843
(iMAG
Car
p2844
(dp2845
g10
(lp2846
I0
aI1
asg12
g1067
sg14
(lp2847
sg16
g1069
sg18
(lp2848
I0
aI0
asg20
I2
sg21
g2570
sg23
I00
sba(iMAG
Car
p2849
(dp2850
g10
(lp2851
I3
aI5
asg12
g1075
sg14
(lp2852
sg16
g1069
sg18
(lp2853
I3
aI3
asg20
I3
sg21
g2803
sg23
I00
sba(iMAG
Car
p2854
(dp2855
g10
(lp2856
I5
aI5
asg12
g1082
sg14
(lp2857
sg16
g1069
sg18
(lp2858
I5
aI3
asg20
I3
sg21
g2352
sg23
I00
sba(iMAG
Car
p2859
(dp2860
g10
(lp2861
I2
aI5
asg12
g1089
sg14
(lp2862
sg16
g1069
sg18
(lp2863
I2
aI3
asg20
I3
sg21
g126
(g127
(S'S1'
p2864
I0
I1
tp2865
Rp2866
(I3
S'|'
p2867
NNNI1
I1
I0
tp2868
bg244
tp2869
Rp2870
sg23
I00
sba(iMAG
Car
p2871
(dp2872
g10
(lp2873
I1
aI4
asg12
g1096
sg14
(lp2874
sg16
g1069
sg18
(lp2875
I0
aI4
asg20
I2
sg21
g2761
sg23
I00
sba(iMAG
Car
p2876
(dp2877
g10
(lp2878
I1
aI2
asg12
g1103
sg14
(lp2879
sg16
g1069
sg18
(lp2880
I0
aI2
asg20
I2
sg21
g2652
sg23
I00
sba(iMAG
Car
p2881
(dp2882
g10
(lp2883
I2
aI0
asg12
g1110
sg14
(lp2884
sg16
g1069
sg18
(lp2885
I1
aI0
asg20
I2
sg21
g2543
sg23
I00
sba(iMAG
Car
p2886
(dp2887
g10
(lp2888
I5
aI0
asg12
g1117
sg14
(lp2889
sg16
g1069
sg18
(lp2890
I4
aI0
asg20
I2
sg21
g2434
sg23
I00
sba(iMAG
Car
p2891
(dp2892
g10
(lp2893
I1
aI5
asg12
g1124
sg14
(lp2894
sg16
g1069
sg18
(lp2895
I0
aI5
asg20
I2
sg21
g2097
sg23
I00
sbasg80
Nsg81
S'144.77\n1.....\nRR....>\n..50.3\n2250.3\n6650.3\n'
p2896
sba(i__main__
Node
p2897
(dp2898
g3
Nsg4
(lp2899
sg6
(lp2900
(iMAG
Car
p2901
(dp2902
g10
(lp2903
I5
aI2
asg12
Vvertical
p2904
sg14
(lp2905
sg16
Vprb38526
p2906
sg18
(lp2907
I5
aI1
asg20
I2
sg21
V1
p2908
sg23
I00
sba(iMAG
Car
p2909
(dp2910
g10
(lp2911
I4
aI4
asg12
Vvertical
p2912
sg14
(lp2913
sg16
g2906
sg18
(lp2914
I4
aI3
asg20
I2
sg21
V3
p2915
sg23
I00
sba(iMAG
Car
p2916
(dp2917
g10
(lp2918
I1
aI5
asg12
Vvertical
p2919
sg14
(lp2920
sg16
g2906
sg18
(lp2921
I1
aI4
asg20
I2
sg21
V5
p2922
sg23
I00
sba(iMAG
Car
p2923
(dp2924
g10
(lp2925
I3
aI3
asg12
Vvertical
p2926
sg14
(lp2927
sg16
g2906
sg18
(lp2928
I3
aI1
asg20
I3
sg21
V4
p2929
sg23
I00
sba(iMAG
Car
p2930
(dp2931
g10
(lp2932
I5
aI4
asg12
Vvertical
p2933
sg14
(lp2934
sg16
g2906
sg18
(lp2935
I5
aI3
asg20
I2
sg21
V7
p2936
sg23
I00
sba(iMAG
Car
p2937
(dp2938
g10
(lp2939
I3
aI0
asg12
Vhorizontal
p2940
sg14
(lp2941
sg16
g2906
sg18
(lp2942
I1
aI0
asg20
I3
sg21
V2
p2943
sg23
I00
sba(iMAG
Car
p2944
(dp2945
g10
(lp2946
I2
aI3
asg12
Vhorizontal
p2947
sg14
(lp2948
sg16
g2906
sg18
(lp2949
I1
aI3
asg20
I2
sg21
V0
p2950
sg23
I00
sba(iMAG
Car
p2951
(dp2952
g10
(lp2953
I2
aI2
asg12
Vhorizontal
p2954
sg14
(lp2955
sg16
g2906
sg18
(lp2956
I1
aI2
asg20
I2
sg21
Vr
p2957
sg23
I00
sba(iMAG
Car
p2958
(dp2959
g10
(lp2960
I4
aI5
asg12
Vhorizontal
p2961
sg14
(lp2962
sg16
g2906
sg18
(lp2963
I2
aI5
asg20
I3
sg21
V6
p2964
sg23
I00
sbasg80
Nsg81
Nsba(i__main__
Node
p2965
(dp2966
g3
Nsg4
(lp2967
sg6
(lp2968
(iMAG
Car
p2969
(dp2970
g10
(lp2971
I5
aI2
asg12
g2904
sg14
(lp2972
sg16
g2906
sg18
(lp2973
I5
aI1
asg20
I2
sg21
g2908
sg23
I00
sba(iMAG
Car
p2974
(dp2975
g10
(lp2976
I4
aI4
asg12
g2912
sg14
(lp2977
sg16
g2906
sg18
(lp2978
I4
aI3
asg20
I2
sg21
g2915
sg23
I00
sba(iMAG
Car
p2979
(dp2980
g10
(lp2981
I1
aI5
asg12
g2919
sg14
(lp2982
sg16
g2906
sg18
(lp2983
I1
aI4
asg20
I2
sg21
g2922
sg23
I00
sba(iMAG
Car
p2984
(dp2985
g10
(lp2986
I3
aI3
asg12
g2926
sg14
(lp2987
sg16
g2906
sg18
(lp2988
I3
aI1
asg20
I3
sg21
g2929
sg23
I00
sba(iMAG
Car
p2989
(dp2990
g10
(lp2991
I5
aI4
asg12
g2933
sg14
(lp2992
sg16
g2906
sg18
(lp2993
I5
aI3
asg20
I2
sg21
g2936
sg23
I00
sba(iMAG
Car
p2994
(dp2995
g10
(lp2996
I2
aI0
asg12
g2940
sg14
(lp2997
sg16
g2906
sg18
(lp2998
I0
aI0
asg20
I3
sg21
g126
(g127
(S'S1'
p2999
I0
I1
tp3000
Rp3001
(I3
S'|'
p3002
NNNI1
I1
I0
tp3003
bg340
tp3004
Rp3005
sg23
I00
sba(iMAG
Car
p3006
(dp3007
g10
(lp3008
I2
aI3
asg12
g2947
sg14
(lp3009
sg16
g2906
sg18
(lp3010
I1
aI3
asg20
I2
sg21
g2950
sg23
I00
sba(iMAG
Car
p3011
(dp3012
g10
(lp3013
I2
aI2
asg12
g2954
sg14
(lp3014
sg16
g2906
sg18
(lp3015
I1
aI2
asg20
I2
sg21
g2957
sg23
I00
sba(iMAG
Car
p3016
(dp3017
g10
(lp3018
I4
aI5
asg12
g2961
sg14
(lp3019
sg16
g2906
sg18
(lp3020
I2
aI5
asg20
I3
sg21
g2964
sg23
I00
sbasg80
Nsg81
V222...\u000a...4.1\u000a.RR4.1>\u000a.00437\u000a.5..37\u000a.5666.\u000a
p3021
sba(i__main__
Node
p3022
(dp3023
g3
Nsg4
(lp3024
sg6
(lp3025
(iMAG
Car
p3026
(dp3027
g10
(lp3028
I5
aI2
asg12
g2904
sg14
(lp3029
sg16
g2906
sg18
(lp3030
I5
aI1
asg20
I2
sg21
g2908
sg23
I00
sba(iMAG
Car
p3031
(dp3032
g10
(lp3033
I4
aI4
asg12
g2912
sg14
(lp3034
sg16
g2906
sg18
(lp3035
I4
aI3
asg20
I2
sg21
g2915
sg23
I00
sba(iMAG
Car
p3036
(dp3037
g10
(lp3038
I1
aI5
asg12
g2919
sg14
(lp3039
sg16
g2906
sg18
(lp3040
I1
aI4
asg20
I2
sg21
g2922
sg23
I00
sba(iMAG
Car
p3041
(dp3042
g10
(lp3043
I3
aI2
asg12
g2926
sg14
(lp3044
sg16
g2906
sg18
(lp3045
I3
aI0
asg20
I3
sg21
g126
(g127
(S'S1'
p3046
I0
I1
tp3047
Rp3048
(I3
S'|'
p3049
NNNI1
I1
I0
tp3050
bg1457
tp3051
Rp3052
sg23
I00
sba(iMAG
Car
p3053
(dp3054
g10
(lp3055
I5
aI4
asg12
g2933
sg14
(lp3056
sg16
g2906
sg18
(lp3057
I5
aI3
asg20
I2
sg21
g2936
sg23
I00
sba(iMAG
Car
p3058
(dp3059
g10
(lp3060
I2
aI0
asg12
g2940
sg14
(lp3061
sg16
g2906
sg18
(lp3062
I0
aI0
asg20
I3
sg21
g3005
sg23
I00
sba(iMAG
Car
p3063
(dp3064
g10
(lp3065
I2
aI3
asg12
g2947
sg14
(lp3066
sg16
g2906
sg18
(lp3067
I1
aI3
asg20
I2
sg21
g2950
sg23
I00
sba(iMAG
Car
p3068
(dp3069
g10
(lp3070
I2
aI2
asg12
g2954
sg14
(lp3071
sg16
g2906
sg18
(lp3072
I1
aI2
asg20
I2
sg21
g2957
sg23
I00
sba(iMAG
Car
p3073
(dp3074
g10
(lp3075
I4
aI5
asg12
g2961
sg14
(lp3076
sg16
g2906
sg18
(lp3077
I2
aI5
asg20
I3
sg21
g2964
sg23
I00
sbasg80
Nsg81
V2224..\u000a...4.1\u000a.RR4.1>\u000a.00.37\u000a.5..37\u000a.5666.\u000a
p3078
sba(i__main__
Node
p3079
(dp3080
g3
Nsg4
(lp3081
sg6
(lp3082
(iMAG
Car
p3083
(dp3084
g10
(lp3085
I5
aI2
asg12
g2904
sg14
(lp3086
sg16
g2906
sg18
(lp3087
I5
aI1
asg20
I2
sg21
g2908
sg23
I00
sba(iMAG
Car
p3088
(dp3089
g10
(lp3090
I4
aI4
asg12
g2912
sg14
(lp3091
sg16
g2906
sg18
(lp3092
I4
aI3
asg20
I2
sg21
g2915
sg23
I00
sba(iMAG
Car
p3093
(dp3094
g10
(lp3095
I1
aI5
asg12
g2919
sg14
(lp3096
sg16
g2906
sg18
(lp3097
I1
aI4
asg20
I2
sg21
g2922
sg23
I00
sba(iMAG
Car
p3098
(dp3099
g10
(lp3100
I3
aI2
asg12
g2926
sg14
(lp3101
sg16
g2906
sg18
(lp3102
I3
aI0
asg20
I3
sg21
g3052
sg23
I00
sba(iMAG
Car
p3103
(dp3104
g10
(lp3105
I5
aI4
asg12
g2933
sg14
(lp3106
sg16
g2906
sg18
(lp3107
I5
aI3
asg20
I2
sg21
g2936
sg23
I00
sba(iMAG
Car
p3108
(dp3109
g10
(lp3110
I2
aI0
asg12
g2940
sg14
(lp3111
sg16
g2906
sg18
(lp3112
I0
aI0
asg20
I3
sg21
g3005
sg23
I00
sba(iMAG
Car
p3113
(dp3114
g10
(lp3115
I3
aI3
asg12
g2947
sg14
(lp3116
sg16
g2906
sg18
(lp3117
I2
aI3
asg20
I2
sg21
g126
(g127
(S'S1'
p3118
I0
I1
tp3119
Rp3120
(I3
S'|'
p3121
NNNI1
I1
I0
tp3122
bg176
tp3123
Rp3124
sg23
I00
sba(iMAG
Car
p3125
(dp3126
g10
(lp3127
I2
aI2
asg12
g2954
sg14
(lp3128
sg16
g2906
sg18
(lp3129
I1
aI2
asg20
I2
sg21
g2957
sg23
I00
sba(iMAG
Car
p3130
(dp3131
g10
(lp3132
I4
aI5
asg12
g2961
sg14
(lp3133
sg16
g2906
sg18
(lp3134
I2
aI5
asg20
I3
sg21
g2964
sg23
I00
sbasg80
Nsg81
V2224..\u000a...4.1\u000a.RR4.1>\u000a..0037\u000a.5..37\u000a.5666.\u000a
p3135
sba(i__main__
Node
p3136
(dp3137
g3
Nsg4
(lp3138
sg6
(lp3139
(iMAG
Car
p3140
(dp3141
g10
(lp3142
I5
aI2
asg12
g2904
sg14
(lp3143
sg16
g2906
sg18
(lp3144
I5
aI1
asg20
I2
sg21
g2908
sg23
I00
sba(iMAG
Car
p3145
(dp3146
g10
(lp3147
I4
aI4
asg12
g2912
sg14
(lp3148
sg16
g2906
sg18
(lp3149
I4
aI3
asg20
I2
sg21
g2915
sg23
I00
sba(iMAG
Car
p3150
(dp3151
g10
(lp3152
I1
aI4
asg12
g2919
sg14
(lp3153
sg16
g2906
sg18
(lp3154
I1
aI3
asg20
I2
sg21
g126
(g127
(S'S1'
p3155
I0
I1
tp3156
Rp3157
(I3
S'|'
p3158
NNNI1
I1
I0
tp3159
bg244
tp3160
Rp3161
sg23
I00
sba(iMAG
Car
p3162
(dp3163
g10
(lp3164
I3
aI2
asg12
g2926
sg14
(lp3165
sg16
g2906
sg18
(lp3166
I3
aI0
asg20
I3
sg21
g3052
sg23
I00
sba(iMAG
Car
p3167
(dp3168
g10
(lp3169
I5
aI4
asg12
g2933
sg14
(lp3170
sg16
g2906
sg18
(lp3171
I5
aI3
asg20
I2
sg21
g2936
sg23
I00
sba(iMAG
Car
p3172
(dp3173
g10
(lp3174
I2
aI0
asg12
g2940
sg14
(lp3175
sg16
g2906
sg18
(lp3176
I0
aI0
asg20
I3
sg21
g3005
sg23
I00
sba(iMAG
Car
p3177
(dp3178
g10
(lp3179
I3
aI3
asg12
g2947
sg14
(lp3180
sg16
g2906
sg18
(lp3181
I2
aI3
asg20
I2
sg21
g3124
sg23
I00
sba(iMAG
Car
p3182
(dp3183
g10
(lp3184
I2
aI2
asg12
g2954
sg14
(lp3185
sg16
g2906
sg18
(lp3186
I1
aI2
asg20
I2
sg21
g2957
sg23
I00
sba(iMAG
Car
p3187
(dp3188
g10
(lp3189
I4
aI5
asg12
g2961
sg14
(lp3190
sg16
g2906
sg18
(lp3191
I2
aI5
asg20
I3
sg21
g2964
sg23
I00
sbasg80
Nsg81
V2224..\u000a...4.1\u000a.RR4.1>\u000a.50037\u000a.5..37\u000a..666.\u000a
p3192
sba(i__main__
Node
p3193
(dp3194
g3
Nsg4
(lp3195
sg6
(lp3196
(iMAG
Car
p3197
(dp3198
g10
(lp3199
I5
aI2
asg12
g2904
sg14
(lp3200
sg16
g2906
sg18
(lp3201
I5
aI1
asg20
I2
sg21
g2908
sg23
I00
sba(iMAG
Car
p3202
(dp3203
g10
(lp3204
I4
aI4
asg12
g2912
sg14
(lp3205
sg16
g2906
sg18
(lp3206
I4
aI3
asg20
I2
sg21
g2915
sg23
I00
sba(iMAG
Car
p3207
(dp3208
g10
(lp3209
I1
aI4
asg12
g2919
sg14
(lp3210
sg16
g2906
sg18
(lp3211
I1
aI3
asg20
I2
sg21
g3161
sg23
I00
sba(iMAG
Car
p3212
(dp3213
g10
(lp3214
I3
aI2
asg12
g2926
sg14
(lp3215
sg16
g2906
sg18
(lp3216
I3
aI0
asg20
I3
sg21
g3052
sg23
I00
sba(iMAG
Car
p3217
(dp3218
g10
(lp3219
I5
aI4
asg12
g2933
sg14
(lp3220
sg16
g2906
sg18
(lp3221
I5
aI3
asg20
I2
sg21
g2936
sg23
I00
sba(iMAG
Car
p3222
(dp3223
g10
(lp3224
I2
aI0
asg12
g2940
sg14
(lp3225
sg16
g2906
sg18
(lp3226
I0
aI0
asg20
I3
sg21
g3005
sg23
I00
sba(iMAG
Car
p3227
(dp3228
g10
(lp3229
I3
aI3
asg12
g2947
sg14
(lp3230
sg16
g2906
sg18
(lp3231
I2
aI3
asg20
I2
sg21
g3124
sg23
I00
sba(iMAG
Car
p3232
(dp3233
g10
(lp3234
I2
aI2
asg12
g2954
sg14
(lp3235
sg16
g2906
sg18
(lp3236
I1
aI2
asg20
I2
sg21
g2957
sg23
I00
sba(iMAG
Car
p3237
(dp3238
g10
(lp3239
I2
aI5
asg12
g2961
sg14
(lp3240
sg16
g2906
sg18
(lp3241
I0
aI5
asg20
I3
sg21
g126
(g127
(S'S1'
p3242
I0
I1
tp3243
Rp3244
(I3
S'|'
p3245
NNNI1
I1
I0
tp3246
bg312
tp3247
Rp3248
sg23
I00
sbasg80
Nsg81
V2224..\u000a...4.1\u000a.RR4.1>\u000a.50037\u000a.5..37\u000a666...\u000a
p3249
sba(i__main__
Node
p3250
(dp3251
g3
Nsg4
(lp3252
sg6
(lp3253
(iMAG
Car
p3254
(dp3255
g10
(lp3256
I5
aI2
asg12
g2904
sg14
(lp3257
sg16
g2906
sg18
(lp3258
I5
aI1
asg20
I2
sg21
g2908
sg23
I00
sba(iMAG
Car
p3259
(dp3260
g10
(lp3261
I4
aI5
asg12
g2912
sg14
(lp3262
sg16
g2906
sg18
(lp3263
I4
aI4
asg20
I2
sg21
g126
(g127
(S'S1'
p3264
I0
I1
tp3265
Rp3266
(I3
S'|'
p3267
NNNI1
I1
I0
tp3268
bg907
tp3269
Rp3270
sg23
I00
sba(iMAG
Car
p3271
(dp3272
g10
(lp3273
I1
aI4
asg12
g2919
sg14
(lp3274
sg16
g2906
sg18
(lp3275
I1
aI3
asg20
I2
sg21
g3161
sg23
I00
sba(iMAG
Car
p3276
(dp3277
g10
(lp3278
I3
aI2
asg12
g2926
sg14
(lp3279
sg16
g2906
sg18
(lp3280
I3
aI0
asg20
I3
sg21
g3052
sg23
I00
sba(iMAG
Car
p3281
(dp3282
g10
(lp3283
I5
aI4
asg12
g2933
sg14
(lp3284
sg16
g2906
sg18
(lp3285
I5
aI3
asg20
I2
sg21
g2936
sg23
I00
sba(iMAG
Car
p3286
(dp3287
g10
(lp3288
I2
aI0
asg12
g2940
sg14
(lp3289
sg16
g2906
sg18
(lp3290
I0
aI0
asg20
I3
sg21
g3005
sg23
I00
sba(iMAG
Car
p3291
(dp3292
g10
(lp3293
I3
aI3
asg12
g2947
sg14
(lp3294
sg16
g2906
sg18
(lp3295
I2
aI3
asg20
I2
sg21
g3124
sg23
I00
sba(iMAG
Car
p3296
(dp3297
g10
(lp3298
I2
aI2
asg12
g2954
sg14
(lp3299
sg16
g2906
sg18
(lp3300
I1
aI2
asg20
I2
sg21
g2957
sg23
I00
sba(iMAG
Car
p3301
(dp3302
g10
(lp3303
I2
aI5
asg12
g2961
sg14
(lp3304
sg16
g2906
sg18
(lp3305
I0
aI5
asg20
I3
sg21
g3248
sg23
I00
sbasg80
Nsg81
V2224..\u000a...4.1\u000a.RR4.1>\u000a.500.7\u000a.5..37\u000a666.3.\u000a
p3306
sba(i__main__
Node
p3307
(dp3308
g3
Nsg4
(lp3309
sg6
(lp3310
(iMAG
Car
p3311
(dp3312
g10
(lp3313
I5
aI2
asg12
g2904
sg14
(lp3314
sg16
g2906
sg18
(lp3315
I5
aI1
asg20
I2
sg21
g2908
sg23
I00
sba(iMAG
Car
p3316
(dp3317
g10
(lp3318
I4
aI5
asg12
g2912
sg14
(lp3319
sg16
g2906
sg18
(lp3320
I4
aI4
asg20
I2
sg21
g3270
sg23
I00
sba(iMAG
Car
p3321
(dp3322
g10
(lp3323
I1
aI4
asg12
g2919
sg14
(lp3324
sg16
g2906
sg18
(lp3325
I1
aI3
asg20
I2
sg21
g3161
sg23
I00
sba(iMAG
Car
p3326
(dp3327
g10
(lp3328
I3
aI2
asg12
g2926
sg14
(lp3329
sg16
g2906
sg18
(lp3330
I3
aI0
asg20
I3
sg21
g3052
sg23
I00
sba(iMAG
Car
p3331
(dp3332
g10
(lp3333
I5
aI5
asg12
g2933
sg14
(lp3334
sg16
g2906
sg18
(lp3335
I5
aI4
asg20
I2
sg21
g126
(g127
(S'S1'
p3336
I0
I1
tp3337
Rp3338
(I3
S'|'
p3339
NNNI1
I1
I0
tp3340
bg133
tp3341
Rp3342
sg23
I00
sba(iMAG
Car
p3343
(dp3344
g10
(lp3345
I2
aI0
asg12
g2940
sg14
(lp3346
sg16
g2906
sg18
(lp3347
I0
aI0
asg20
I3
sg21
g3005
sg23
I00
sba(iMAG
Car
p3348
(dp3349
g10
(lp3350
I3
aI3
asg12
g2947
sg14
(lp3351
sg16
g2906
sg18
(lp3352
I2
aI3
asg20
I2
sg21
g3124
sg23
I00
sba(iMAG
Car
p3353
(dp3354
g10
(lp3355
I2
aI2
asg12
g2954
sg14
(lp3356
sg16
g2906
sg18
(lp3357
I1
aI2
asg20
I2
sg21
g2957
sg23
I00
sba(iMAG
Car
p3358
(dp3359
g10
(lp3360
I2
aI5
asg12
g2961
sg14
(lp3361
sg16
g2906
sg18
(lp3362
I0
aI5
asg20
I3
sg21
g3248
sg23
I00
sbasg80
Nsg81
V2224..\u000a...4.1\u000a.RR4.1>\u000a.500..\u000a.5..37\u000a666.37\u000a
p3363
sba(i__main__
Node
p3364
(dp3365
g3
Nsg4
(lp3366
sg6
(lp3367
(iMAG
Car
p3368
(dp3369
g10
(lp3370
I5
aI1
asg12
g2904
sg14
(lp3371
sg16
g2906
sg18
(lp3372
I5
aI0
asg20
I2
sg21
g126
(g127
(S'S1'
p3373
I0
I1
tp3374
Rp3375
(I3
S'|'
p3376
NNNI1
I1
I0
tp3377
bg502
tp3378
Rp3379
sg23
I00
sba(iMAG
Car
p3380
(dp3381
g10
(lp3382
I4
aI5
asg12
g2912
sg14
(lp3383
sg16
g2906
sg18
(lp3384
I4
aI4
asg20
I2
sg21
g3270
sg23
I00
sba(iMAG
Car
p3385
(dp3386
g10
(lp3387
I1
aI4
asg12
g2919
sg14
(lp3388
sg16
g2906
sg18
(lp3389
I1
aI3
asg20
I2
sg21
g3161
sg23
I00
sba(iMAG
Car
p3390
(dp3391
g10
(lp3392
I3
aI2
asg12
g2926
sg14
(lp3393
sg16
g2906
sg18
(lp3394
I3
aI0
asg20
I3
sg21
g3052
sg23
I00
sba(iMAG
Car
p3395
(dp3396
g10
(lp3397
I5
aI5
asg12
g2933
sg14
(lp3398
sg16
g2906
sg18
(lp3399
I5
aI4
asg20
I2
sg21
g3342
sg23
I00
sba(iMAG
Car
p3400
(dp3401
g10
(lp3402
I2
aI0
asg12
g2940
sg14
(lp3403
sg16
g2906
sg18
(lp3404
I0
aI0
asg20
I3
sg21
g3005
sg23
I00
sba(iMAG
Car
p3405
(dp3406
g10
(lp3407
I3
aI3
asg12
g2947
sg14
(lp3408
sg16
g2906
sg18
(lp3409
I2
aI3
asg20
I2
sg21
g3124
sg23
I00
sba(iMAG
Car
p3410
(dp3411
g10
(lp3412
I2
aI2
asg12
g2954
sg14
(lp3413
sg16
g2906
sg18
(lp3414
I1
aI2
asg20
I2
sg21
g2957
sg23
I00
sba(iMAG
Car
p3415
(dp3416
g10
(lp3417
I2
aI5
asg12
g2961
sg14
(lp3418
sg16
g2906
sg18
(lp3419
I0
aI5
asg20
I3
sg21
g3248
sg23
I00
sbasg80
Nsg81
S'2224.1\n...4.1\n.RR4..>\n.500..\n.5..37\n666.37\n'
p3420
sba(i__main__
Node
p3421
(dp3422
g3
Nsg4
(lp3423
sg6
(lp3424
(iMAG
Car
p3425
(dp3426
g10
(lp3427
I5
aI1
asg12
g2904
sg14
(lp3428
sg16
g2906
sg18
(lp3429
I5
aI0
asg20
I2
sg21
g3379
sg23
I00
sba(iMAG
Car
p3430
(dp3431
g10
(lp3432
I4
aI5
asg12
g2912
sg14
(lp3433
sg16
g2906
sg18
(lp3434
I4
aI4
asg20
I2
sg21
g3270
sg23
I00
sba(iMAG
Car
p3435
(dp3436
g10
(lp3437
I1
aI4
asg12
g2919
sg14
(lp3438
sg16
g2906
sg18
(lp3439
I1
aI3
asg20
I2
sg21
g3161
sg23
I00
sba(iMAG
Car
p3440
(dp3441
g10
(lp3442
I3
aI2
asg12
g2926
sg14
(lp3443
sg16
g2906
sg18
(lp3444
I3
aI0
asg20
I3
sg21
g3052
sg23
I00
sba(iMAG
Car
p3445
(dp3446
g10
(lp3447
I5
aI5
asg12
g2933
sg14
(lp3448
sg16
g2906
sg18
(lp3449
I5
aI4
asg20
I2
sg21
g3342
sg23
I00
sba(iMAG
Car
p3450
(dp3451
g10
(lp3452
I2
aI0
asg12
g2940
sg14
(lp3453
sg16
g2906
sg18
(lp3454
I0
aI0
asg20
I3
sg21
g3005
sg23
I00
sba(iMAG
Car
p3455
(dp3456
g10
(lp3457
I5
aI3
asg12
g2947
sg14
(lp3458
sg16
g2906
sg18
(lp3459
I4
aI3
asg20
I2
sg21
g126
(g127
(S'S1'
p3460
I0
I1
tp3461
Rp3462
(I3
S'|'
p3463
NNNI1
I1
I0
tp3464
bg176
tp3465
Rp3466
sg23
I00
sba(iMAG
Car
p3467
(dp3468
g10
(lp3469
I2
aI2
asg12
g2954
sg14
(lp3470
sg16
g2906
sg18
(lp3471
I1
aI2
asg20
I2
sg21
g2957
sg23
I00
sba(iMAG
Car
p3472
(dp3473
g10
(lp3474
I2
aI5
asg12
g2961
sg14
(lp3475
sg16
g2906
sg18
(lp3476
I0
aI5
asg20
I3
sg21
g3248
sg23
I00
sbasg80
Nsg81
S'2224.1\n...4.1\n.RR4..>\n.5..00\n.5..37\n666.37\n'
p3477
sba(i__main__
Node
p3478
(dp3479
g3
Nsg4
(lp3480
sg6
(lp3481
(iMAG
Car
p3482
(dp3483
g10
(lp3484
I5
aI1
asg12
g2904
sg14
(lp3485
sg16
g2906
sg18
(lp3486
I5
aI0
asg20
I2
sg21
g3379
sg23
I00
sba(iMAG
Car
p3487
(dp3488
g10
(lp3489
I4
aI5
asg12
g2912
sg14
(lp3490
sg16
g2906
sg18
(lp3491
I4
aI4
asg20
I2
sg21
g3270
sg23
I00
sba(iMAG
Car
p3492
(dp3493
g10
(lp3494
I1
aI4
asg12
g2919
sg14
(lp3495
sg16
g2906
sg18
(lp3496
I1
aI3
asg20
I2
sg21
g3161
sg23
I00
sba(iMAG
Car
p3497
(dp3498
g10
(lp3499
I3
aI5
asg12
g2926
sg14
(lp3500
sg16
g2906
sg18
(lp3501
I3
aI3
asg20
I3
sg21
g126
(g127
(S'S1'
p3502
I0
I1
tp3503
Rp3504
(I3
S'|'
p3505
NNNI1
I1
I0
tp3506
bg1457
tp3507
Rp3508
sg23
I00
sba(iMAG
Car
p3509
(dp3510
g10
(lp3511
I5
aI5
asg12
g2933
sg14
(lp3512
sg16
g2906
sg18
(lp3513
I5
aI4
asg20
I2
sg21
g3342
sg23
I00
sba(iMAG
Car
p3514
(dp3515
g10
(lp3516
I2
aI0
asg12
g2940
sg14
(lp3517
sg16
g2906
sg18
(lp3518
I0
aI0
asg20
I3
sg21
g3005
sg23
I00
sba(iMAG
Car
p3519
(dp3520
g10
(lp3521
I5
aI3
asg12
g2947
sg14
(lp3522
sg16
g2906
sg18
(lp3523
I4
aI3
asg20
I2
sg21
g3466
sg23
I00
sba(iMAG
Car
p3524
(dp3525
g10
(lp3526
I2
aI2
asg12
g2954
sg14
(lp3527
sg16
g2906
sg18
(lp3528
I1
aI2
asg20
I2
sg21
g2957
sg23
I00
sba(iMAG
Car
p3529
(dp3530
g10
(lp3531
I2
aI5
asg12
g2961
sg14
(lp3532
sg16
g2906
sg18
(lp3533
I0
aI5
asg20
I3
sg21
g3248
sg23
I00
sbasg80
Nsg81
S'222..1\n.....1\n.RR...>\n.5.400\n.5.437\n666437\n'
p3534
sba(i__main__
Node
p3535
(dp3536
g3
Nsg4
(lp3537
sg6
(lp3538
(iMAG
Car
p3539
(dp3540
g10
(lp3541
I5
aI2
asg12
Vvertical
p3542
sg14
(lp3543
sg16
Vprb29585
p3544
sg18
(lp3545
I5
aI0
asg20
I3
sg21
V1
p3546
sg23
I00
sba(iMAG
Car
p3547
(dp3548
g10
(lp3549
I0
aI2
asg12
Vvertical
p3550
sg14
(lp3551
sg16
g3544
sg18
(lp3552
I0
aI1
asg20
I2
sg21
V0
p3553
sg23
I00
sba(iMAG
Car
p3554
(dp3555
g10
(lp3556
I1
aI4
asg12
Vvertical
p3557
sg14
(lp3558
sg16
g3544
sg18
(lp3559
I1
aI3
asg20
I2
sg21
V2
p3560
sg23
I00
sba(iMAG
Car
p3561
(dp3562
g10
(lp3563
I2
aI4
asg12
Vvertical
p3564
sg14
(lp3565
sg16
g3544
sg18
(lp3566
I2
aI3
asg20
I2
sg21
V4
p3567
sg23
I00
sba(iMAG
Car
p3568
(dp3569
g10
(lp3570
I3
aI4
asg12
Vvertical
p3571
sg14
(lp3572
sg16
g3544
sg18
(lp3573
I3
aI2
asg20
I3
sg21
V7
p3574
sg23
I00
sba(iMAG
Car
p3575
(dp3576
g10
(lp3577
I5
aI5
asg12
Vhorizontal
p3578
sg14
(lp3579
sg16
g3544
sg18
(lp3580
I4
aI5
asg20
I2
sg21
V3
p3581
sg23
I00
sba(iMAG
Car
p3582
(dp3583
g10
(lp3584
I2
aI2
asg12
Vhorizontal
p3585
sg14
(lp3586
sg16
g3544
sg18
(lp3587
I1
aI2
asg20
I2
sg21
Vr
p3588
sg23
I00
sba(iMAG
Car
p3589
(dp3590
g10
(lp3591
I4
aI0
asg12
Vhorizontal
p3592
sg14
(lp3593
sg16
g3544
sg18
(lp3594
I2
aI0
asg20
I3
sg21
V5
p3595
sg23
I00
sba(iMAG
Car
p3596
(dp3597
g10
(lp3598
I5
aI4
asg12
Vhorizontal
p3599
sg14
(lp3600
sg16
g3544
sg18
(lp3601
I4
aI4
asg20
I2
sg21
V6
p3602
sg23
I00
sbasg80
Nsg81
Nsba(i__main__
Node
p3603
(dp3604
g3
Nsg4
(lp3605
sg6
(lp3606
(iMAG
Car
p3607
(dp3608
g10
(lp3609
I5
aI2
asg12
g3542
sg14
(lp3610
sg16
g3544
sg18
(lp3611
I5
aI0
asg20
I3
sg21
g3546
sg23
I00
sba(iMAG
Car
p3612
(dp3613
g10
(lp3614
I0
aI2
asg12
g3550
sg14
(lp3615
sg16
g3544
sg18
(lp3616
I0
aI1
asg20
I2
sg21
g3553
sg23
I00
sba(iMAG
Car
p3617
(dp3618
g10
(lp3619
I1
aI5
asg12
g3557
sg14
(lp3620
sg16
g3544
sg18
(lp3621
I1
aI4
asg20
I2
sg21
g126
(g127
(S'S1'
p3622
I0
I1
tp3623
Rp3624
(I3
S'|'
p3625
NNNI1
I1
I0
tp3626
bg340
tp3627
Rp3628
sg23
I00
sba(iMAG
Car
p3629
(dp3630
g10
(lp3631
I2
aI4
asg12
g3564
sg14
(lp3632
sg16
g3544
sg18
(lp3633
I2
aI3
asg20
I2
sg21
g3567
sg23
I00
sba(iMAG
Car
p3634
(dp3635
g10
(lp3636
I3
aI4
asg12
g3571
sg14
(lp3637
sg16
g3544
sg18
(lp3638
I3
aI2
asg20
I3
sg21
g3574
sg23
I00
sba(iMAG
Car
p3639
(dp3640
g10
(lp3641
I5
aI5
asg12
g3578
sg14
(lp3642
sg16
g3544
sg18
(lp3643
I4
aI5
asg20
I2
sg21
g3581
sg23
I00
sba(iMAG
Car
p3644
(dp3645
g10
(lp3646
I2
aI2
asg12
g3585
sg14
(lp3647
sg16
g3544
sg18
(lp3648
I1
aI2
asg20
I2
sg21
g3588
sg23
I00
sba(iMAG
Car
p3649
(dp3650
g10
(lp3651
I4
aI0
asg12
g3592
sg14
(lp3652
sg16
g3544
sg18
(lp3653
I2
aI0
asg20
I3
sg21
g3595
sg23
I00
sba(iMAG
Car
p3654
(dp3655
g10
(lp3656
I5
aI4
asg12
g3599
sg14
(lp3657
sg16
g3544
sg18
(lp3658
I4
aI4
asg20
I2
sg21
g3602
sg23
I00
sbasg80
Nsg81
V..5551\u000a0....1\u000a0RR7.1>\u000a..47..\u000a.24766\u000a.2..33\u000a
p3659
sba(i__main__
Node
p3660
(dp3661
g3
Nsg4
(lp3662
sg6
(lp3663
(iMAG
Car
p3664
(dp3665
g10
(lp3666
I5
aI2
asg12
g3542
sg14
(lp3667
sg16
g3544
sg18
(lp3668
I5
aI0
asg20
I3
sg21
g3546
sg23
I00
sba(iMAG
Car
p3669
(dp3670
g10
(lp3671
I0
aI2
asg12
g3550
sg14
(lp3672
sg16
g3544
sg18
(lp3673
I0
aI1
asg20
I2
sg21
g3553
sg23
I00
sba(iMAG
Car
p3674
(dp3675
g10
(lp3676
I1
aI5
asg12
g3557
sg14
(lp3677
sg16
g3544
sg18
(lp3678
I1
aI4
asg20
I2
sg21
g3628
sg23
I00
sba(iMAG
Car
p3679
(dp3680
g10
(lp3681
I2
aI5
asg12
g3564
sg14
(lp3682
sg16
g3544
sg18
(lp3683
I2
aI4
asg20
I2
sg21
g126
(g127
(S'S1'
p3684
I0
I1
tp3685
Rp3686
(I3
S'|'
p3687
NNNI1
I1
I0
tp3688
bg1457
tp3689
Rp3690
sg23
I00
sba(iMAG
Car
p3691
(dp3692
g10
(lp3693
I3
aI4
asg12
g3571
sg14
(lp3694
sg16
g3544
sg18
(lp3695
I3
aI2
asg20
I3
sg21
g3574
sg23
I00
sba(iMAG
Car
p3696
(dp3697
g10
(lp3698
I5
aI5
asg12
g3578
sg14
(lp3699
sg16
g3544
sg18
(lp3700
I4
aI5
asg20
I2
sg21
g3581
sg23
I00
sba(iMAG
Car
p3701
(dp3702
g10
(lp3703
I2
aI2
asg12
g3585
sg14
(lp3704
sg16
g3544
sg18
(lp3705
I1
aI2
asg20
I2
sg21
g3588
sg23
I00
sba(iMAG
Car
p3706
(dp3707
g10
(lp3708
I4
aI0
asg12
g3592
sg14
(lp3709
sg16
g3544
sg18
(lp3710
I2
aI0
asg20
I3
sg21
g3595
sg23
I00
sba(iMAG
Car
p3711
(dp3712
g10
(lp3713
I5
aI4
asg12
g3599
sg14
(lp3714
sg16
g3544
sg18
(lp3715
I4
aI4
asg20
I2
sg21
g3602
sg23
I00
sbasg80
Nsg81
V..5551\u000a0....1\u000a0RR7.1>\u000a...7..\u000a.24766\u000a.24.33\u000a
p3716
sba(i__main__
Node
p3717
(dp3718
g3
Nsg4
(lp3719
sg6
(lp3720
(iMAG
Car
p3721
(dp3722
g10
(lp3723
I5
aI2
asg12
g3542
sg14
(lp3724
sg16
g3544
sg18
(lp3725
I5
aI0
asg20
I3
sg21
g3546
sg23
I00
sba(iMAG
Car
p3726
(dp3727
g10
(lp3728
I0
aI2
asg12
g3550
sg14
(lp3729
sg16
g3544
sg18
(lp3730
I0
aI1
asg20
I2
sg21
g3553
sg23
I00
sba(iMAG
Car
p3731
(dp3732
g10
(lp3733
I1
aI5
asg12
g3557
sg14
(lp3734
sg16
g3544
sg18
(lp3735
I1
aI4
asg20
I2
sg21
g3628
sg23
I00
sba(iMAG
Car
p3736
(dp3737
g10
(lp3738
I2
aI5
asg12
g3564
sg14
(lp3739
sg16
g3544
sg18
(lp3740
I2
aI4
asg20
I2
sg21
g3690
sg23
I00
sba(iMAG
Car
p3741
(dp3742
g10
(lp3743
I3
aI3
asg12
g3571
sg14
(lp3744
sg16
g3544
sg18
(lp3745
I3
aI1
asg20
I3
sg21
g126
(g127
(S'S1'
p3746
I0
I1
tp3747
Rp3748
(I3
S'|'
p3749
NNNI1
I1
I0
tp3750
bg133
tp3751
Rp3752
sg23
I00
sba(iMAG
Car
p3753
(dp3754
g10
(lp3755
I5
aI5
asg12
g3578
sg14
(lp3756
sg16
g3544
sg18
(lp3757
I4
aI5
asg20
I2
sg21
g3581
sg23
I00
sba(iMAG
Car
p3758
(dp3759
g10
(lp3760
I2
aI2
asg12
g3585
sg14
(lp3761
sg16
g3544
sg18
(lp3762
I1
aI2
asg20
I2
sg21
g3588
sg23
I00
sba(iMAG
Car
p3763
(dp3764
g10
(lp3765
I4
aI0
asg12
g3592
sg14
(lp3766
sg16
g3544
sg18
(lp3767
I2
aI0
asg20
I3
sg21
g3595
sg23
I00
sba(iMAG
Car
p3768
(dp3769
g10
(lp3770
I5
aI4
asg12
g3599
sg14
(lp3771
sg16
g3544
sg18
(lp3772
I4
aI4
asg20
I2
sg21
g3602
sg23
I00
sbasg80
Nsg81
V..5551\u000a0..7.1\u000a0RR7.1>\u000a...7..\u000a.24.66\u000a.24.33\u000a
p3773
sba(i__main__
Node
p3774
(dp3775
g3
Nsg4
(lp3776
sg6
(lp3777
(iMAG
Car
p3778
(dp3779
g10
(lp3780
I5
aI2
asg12
g3542
sg14
(lp3781
sg16
g3544
sg18
(lp3782
I5
aI0
asg20
I3
sg21
g3546
sg23
I00
sba(iMAG
Car
p3783
(dp3784
g10
(lp3785
I0
aI2
asg12
g3550
sg14
(lp3786
sg16
g3544
sg18
(lp3787
I0
aI1
asg20
I2
sg21
g3553
sg23
I00
sba(iMAG
Car
p3788
(dp3789
g10
(lp3790
I1
aI5
asg12
g3557
sg14
(lp3791
sg16
g3544
sg18
(lp3792
I1
aI4
asg20
I2
sg21
g3628
sg23
I00
sba(iMAG
Car
p3793
(dp3794
g10
(lp3795
I2
aI4
asg12
g3564
sg14
(lp3796
sg16
g3544
sg18
(lp3797
I2
aI3
asg20
I2
sg21
g126
(g127
(S'S1'
p3798
I0
I1
tp3799
Rp3800
(I3
S'|'
p3801
NNNI1
I1
I0
tp3802
bg1457
tp3803
Rp3804
sg23
I00
sba(iMAG
Car
p3805
(dp3806
g10
(lp3807
I3
aI3
asg12
g3571
sg14
(lp3808
sg16
g3544
sg18
(lp3809
I3
aI1
asg20
I3
sg21
g3752
sg23
I00
sba(iMAG
Car
p3810
(dp3811
g10
(lp3812
I5
aI5
asg12
g3578
sg14
(lp3813
sg16
g3544
sg18
(lp3814
I4
aI5
asg20
I2
sg21
g3581
sg23
I00
sba(iMAG
Car
p3815
(dp3816
g10
(lp3817
I2
aI2
asg12
g3585
sg14
(lp3818
sg16
g3544
sg18
(lp3819
I1
aI2
asg20
I2
sg21
g3588
sg23
I00
sba(iMAG
Car
p3820
(dp3821
g10
(lp3822
I4
aI0
asg12
g3592
sg14
(lp3823
sg16
g3544
sg18
(lp3824
I2
aI0
asg20
I3
sg21
g3595
sg23
I00
sba(iMAG
Car
p3825
(dp3826
g10
(lp3827
I5
aI4
asg12
g3599
sg14
(lp3828
sg16
g3544
sg18
(lp3829
I4
aI4
asg20
I2
sg21
g3602
sg23
I00
sbasg80
Nsg81
V..5551\u000a0..7.1\u000a0RR7.1>\u000a..47..\u000a.24.66\u000a.2..33\u000a
p3830
sba(i__main__
Node
p3831
(dp3832
g3
Nsg4
(lp3833
sg6
(lp3834
(iMAG
Car
p3835
(dp3836
g10
(lp3837
I5
aI2
asg12
g3542
sg14
(lp3838
sg16
g3544
sg18
(lp3839
I5
aI0
asg20
I3
sg21
g3546
sg23
I00
sba(iMAG
Car
p3840
(dp3841
g10
(lp3842
I0
aI2
asg12
g3550
sg14
(lp3843
sg16
g3544
sg18
(lp3844
I0
aI1
asg20
I2
sg21
g3553
sg23
I00
sba(iMAG
Car
p3845
(dp3846
g10
(lp3847
I1
aI4
asg12
g3557
sg14
(lp3848
sg16
g3544
sg18
(lp3849
I1
aI3
asg20
I2
sg21
g126
(g127
(S'S1'
p3850
I0
I1
tp3851
Rp3852
(I3
S'|'
p3853
NNNI1
I1
I0
tp3854
bg340
tp3855
Rp3856
sg23
I00
sba(iMAG
Car
p3857
(dp3858
g10
(lp3859
I2
aI4
asg12
g3564
sg14
(lp3860
sg16
g3544
sg18
(lp3861
I2
aI3
asg20
I2
sg21
g3804
sg23
I00
sba(iMAG
Car
p3862
(dp3863
g10
(lp3864
I3
aI3
asg12
g3571
sg14
(lp3865
sg16
g3544
sg18
(lp3866
I3
aI1
asg20
I3
sg21
g3752
sg23
I00
sba(iMAG
Car
p3867
(dp3868
g10
(lp3869
I5
aI5
asg12
g3578
sg14
(lp3870
sg16
g3544
sg18
(lp3871
I4
aI5
asg20
I2
sg21
g3581
sg23
I00
sba(iMAG
Car
p3872
(dp3873
g10
(lp3874
I2
aI2
asg12
g3585
sg14
(lp3875
sg16
g3544
sg18
(lp3876
I1
aI2
asg20
I2
sg21
g3588
sg23
I00
sba(iMAG
Car
p3877
(dp3878
g10
(lp3879
I4
aI0
asg12
g3592
sg14
(lp3880
sg16
g3544
sg18
(lp3881
I2
aI0
asg20
I3
sg21
g3595
sg23
I00
sba(iMAG
Car
p3882
(dp3883
g10
(lp3884
I5
aI4
asg12
g3599
sg14
(lp3885
sg16
g3544
sg18
(lp3886
I4
aI4
asg20
I2
sg21
g3602
sg23
I00
sbasg80
Nsg81
V..5551\u000a0..7.1\u000a0RR7.1>\u000a.247..\u000a.24.66\u000a....33\u000a
p3887
sba(i__main__
Node
p3888
(dp3889
g3
Nsg4
(lp3890
sg6
(lp3891
(iMAG
Car
p3892
(dp3893
g10
(lp3894
I5
aI2
asg12
g3542
sg14
(lp3895
sg16
g3544
sg18
(lp3896
I5
aI0
asg20
I3
sg21
g3546
sg23
I00
sba(iMAG
Car
p3897
(dp3898
g10
(lp3899
I0
aI2
asg12
g3550
sg14
(lp3900
sg16
g3544
sg18
(lp3901
I0
aI1
asg20
I2
sg21
g3553
sg23
I00
sba(iMAG
Car
p3902
(dp3903
g10
(lp3904
I1
aI4
asg12
g3557
sg14
(lp3905
sg16
g3544
sg18
(lp3906
I1
aI3
asg20
I2
sg21
g3856
sg23
I00
sba(iMAG
Car
p3907
(dp3908
g10
(lp3909
I2
aI4
asg12
g3564
sg14
(lp3910
sg16
g3544
sg18
(lp3911
I2
aI3
asg20
I2
sg21
g3804
sg23
I00
sba(iMAG
Car
p3912
(dp3913
g10
(lp3914
I3
aI3
asg12
g3571
sg14
(lp3915
sg16
g3544
sg18
(lp3916
I3
aI1
asg20
I3
sg21
g3752
sg23
I00
sba(iMAG
Car
p3917
(dp3918
g10
(lp3919
I5
aI5
asg12
g3578
sg14
(lp3920
sg16
g3544
sg18
(lp3921
I4
aI5
asg20
I2
sg21
g3581
sg23
I00
sba(iMAG
Car
p3922
(dp3923
g10
(lp3924
I2
aI2
asg12
g3585
sg14
(lp3925
sg16
g3544
sg18
(lp3926
I1
aI2
asg20
I2
sg21
g3588
sg23
I00
sba(iMAG
Car
p3927
(dp3928
g10
(lp3929
I4
aI0
asg12
g3592
sg14
(lp3930
sg16
g3544
sg18
(lp3931
I2
aI0
asg20
I3
sg21
g3595
sg23
I00
sba(iMAG
Car
p3932
(dp3933
g10
(lp3934
I4
aI4
asg12
g3599
sg14
(lp3935
sg16
g3544
sg18
(lp3936
I3
aI4
asg20
I2
sg21
g126
(g127
(S'S1'
p3937
I0
I1
tp3938
Rp3939
(I3
S'|'
p3940
NNNI1
I1
I0
tp3941
bg312
tp3942
Rp3943
sg23
I00
sbasg80
Nsg81
V..5551\u000a0..7.1\u000a0RR7.1>\u000a.247..\u000a.2466.\u000a....33\u000a
p3944
sba(i__main__
Node
p3945
(dp3946
g3
Nsg4
(lp3947
sg6
(lp3948
(iMAG
Car
p3949
(dp3950
g10
(lp3951
I5
aI2
asg12
g3542
sg14
(lp3952
sg16
g3544
sg18
(lp3953
I5
aI0
asg20
I3
sg21
g3546
sg23
I00
sba(iMAG
Car
p3954
(dp3955
g10
(lp3956
I0
aI2
asg12
g3550
sg14
(lp3957
sg16
g3544
sg18
(lp3958
I0
aI1
asg20
I2
sg21
g3553
sg23
I00
sba(iMAG
Car
p3959
(dp3960
g10
(lp3961
I1
aI4
asg12
g3557
sg14
(lp3962
sg16
g3544
sg18
(lp3963
I1
aI3
asg20
I2
sg21
g3856
sg23
I00
sba(iMAG
Car
p3964
(dp3965
g10
(lp3966
I2
aI4
asg12
g3564
sg14
(lp3967
sg16
g3544
sg18
(lp3968
I2
aI3
asg20
I2
sg21
g3804
sg23
I00
sba(iMAG
Car
p3969
(dp3970
g10
(lp3971
I3
aI3
asg12
g3571
sg14
(lp3972
sg16
g3544
sg18
(lp3973
I3
aI1
asg20
I3
sg21
g3752
sg23
I00
sba(iMAG
Car
p3974
(dp3975
g10
(lp3976
I1
aI5
asg12
g3578
sg14
(lp3977
sg16
g3544
sg18
(lp3978
I0
aI5
asg20
I2
sg21
g126
(g127
(S'S1'
p3979
I0
I1
tp3980
Rp3981
(I3
S'|'
p3982
NNNI1
I1
I0
tp3983
bg907
tp3984
Rp3985
sg23
I00
sba(iMAG
Car
p3986
(dp3987
g10
(lp3988
I2
aI2
asg12
g3585
sg14
(lp3989
sg16
g3544
sg18
(lp3990
I1
aI2
asg20
I2
sg21
g3588
sg23
I00
sba(iMAG
Car
p3991
(dp3992
g10
(lp3993
I4
aI0
asg12
g3592
sg14
(lp3994
sg16
g3544
sg18
(lp3995
I2
aI0
asg20
I3
sg21
g3595
sg23
I00
sba(iMAG
Car
p3996
(dp3997
g10
(lp3998
I4
aI4
asg12
g3599
sg14
(lp3999
sg16
g3544
sg18
(lp4000
I3
aI4
asg20
I2
sg21
g3943
sg23
I00
sbasg80
Nsg81
V..5551\u000a0..7.1\u000a0RR7.1>\u000a.247..\u000a.2466.\u000a33....\u000a
p4001
sba(i__main__
Node
p4002
(dp4003
g3
Nsg4
(lp4004
sg6
(lp4005
(iMAG
Car
p4006
(dp4007
g10
(lp4008
I5
aI5
asg12
g3542
sg14
(lp4009
sg16
g3544
sg18
(lp4010
I5
aI3
asg20
I3
sg21
g126
(g127
(S'S1'
p4011
I0
I1
tp4012
Rp4013
(I3
S'|'
p4014
NNNI1
I1
I0
tp4015
bg502
tp4016
Rp4017
sg23
I00
sba(iMAG
Car
p4018
(dp4019
g10
(lp4020
I0
aI2
asg12
g3550
sg14
(lp4021
sg16
g3544
sg18
(lp4022
I0
aI1
asg20
I2
sg21
g3553
sg23
I00
sba(iMAG
Car
p4023
(dp4024
g10
(lp4025
I1
aI4
asg12
g3557
sg14
(lp4026
sg16
g3544
sg18
(lp4027
I1
aI3
asg20
I2
sg21
g3856
sg23
I00
sba(iMAG
Car
p4028
(dp4029
g10
(lp4030
I2
aI4
asg12
g3564
sg14
(lp4031
sg16
g3544
sg18
(lp4032
I2
aI3
asg20
I2
sg21
g3804
sg23
I00
sba(iMAG
Car
p4033
(dp4034
g10
(lp4035
I3
aI3
asg12
g3571
sg14
(lp4036
sg16
g3544
sg18
(lp4037
I3
aI1
asg20
I3
sg21
g3752
sg23
I00
sba(iMAG
Car
p4038
(dp4039
g10
(lp4040
I1
aI5
asg12
g3578
sg14
(lp4041
sg16
g3544
sg18
(lp4042
I0
aI5
asg20
I2
sg21
g3985
sg23
I00
sba(iMAG
Car
p4043
(dp4044
g10
(lp4045
I2
aI2
asg12
g3585
sg14
(lp4046
sg16
g3544
sg18
(lp4047
I1
aI2
asg20
I2
sg21
g3588
sg23
I00
sba(iMAG
Car
p4048
(dp4049
g10
(lp4050
I4
aI0
asg12
g3592
sg14
(lp4051
sg16
g3544
sg18
(lp4052
I2
aI0
asg20
I3
sg21
g3595
sg23
I00
sba(iMAG
Car
p4053
(dp4054
g10
(lp4055
I4
aI4
asg12
g3599
sg14
(lp4056
sg16
g3544
sg18
(lp4057
I3
aI4
asg20
I2
sg21
g3943
sg23
I00
sbasg80
Nsg81
V..555.\u000a0..7..\u000a0RR7..>\u000a.247.1\u000a.24661\u000a33...1\u000a
p4058
sba(i__main__
Node
p4059
(dp4060
g3
Nsg4
(lp4061
sg6
(lp4062
(iMAG
Car
p4063
(dp4064
g10
(lp4065
I5
aI5
asg12
g3542
sg14
(lp4066
sg16
g3544
sg18
(lp4067
I5
aI3
asg20
I3
sg21
g4017
sg23
I00
sba(iMAG
Car
p4068
(dp4069
g10
(lp4070
I0
aI2
asg12
g3550
sg14
(lp4071
sg16
g3544
sg18
(lp4072
I0
aI1
asg20
I2
sg21
g3553
sg23
I00
sba(iMAG
Car
p4073
(dp4074
g10
(lp4075
I1
aI4
asg12
g3557
sg14
(lp4076
sg16
g3544
sg18
(lp4077
I1
aI3
asg20
I2
sg21
g3856
sg23
I00
sba(iMAG
Car
p4078
(dp4079
g10
(lp4080
I2
aI4
asg12
g3564
sg14
(lp4081
sg16
g3544
sg18
(lp4082
I2
aI3
asg20
I2
sg21
g3804
sg23
I00
sba(iMAG
Car
p4083
(dp4084
g10
(lp4085
I3
aI3
asg12
g3571
sg14
(lp4086
sg16
g3544
sg18
(lp4087
I3
aI1
asg20
I3
sg21
g3752
sg23
I00
sba(iMAG
Car
p4088
(dp4089
g10
(lp4090
I1
aI5
asg12
g3578
sg14
(lp4091
sg16
g3544
sg18
(lp4092
I0
aI5
asg20
I2
sg21
g3985
sg23
I00
sba(iMAG
Car
p4093
(dp4094
g10
(lp4095
I2
aI2
asg12
g3585
sg14
(lp4096
sg16
g3544
sg18
(lp4097
I1
aI2
asg20
I2
sg21
g3588
sg23
I00
sba(iMAG
Car
p4098
(dp4099
g10
(lp4100
I2
aI0
asg12
g3592
sg14
(lp4101
sg16
g3544
sg18
(lp4102
I0
aI0
asg20
I3
sg21
g126
(g127
(S'S1'
p4103
I0
I1
tp4104
Rp4105
(I3
S'|'
p4106
NNNI1
I1
I0
tp4107
bg244
tp4108
Rp4109
sg23
I00
sba(iMAG
Car
p4110
(dp4111
g10
(lp4112
I4
aI4
asg12
g3599
sg14
(lp4113
sg16
g3544
sg18
(lp4114
I3
aI4
asg20
I2
sg21
g3943
sg23
I00
sbasg80
Nsg81
V555...\u000a0..7..\u000a0RR7..>\u000a.247.1\u000a.24661\u000a33...1\u000a
p4115
sba(i__main__
Node
p4116
(dp4117
g3
Nsg4
(lp4118
sg6
(lp4119
(iMAG
Car
p4120
(dp4121
g10
(lp4122
I5
aI5
asg12
g3542
sg14
(lp4123
sg16
g3544
sg18
(lp4124
I5
aI3
asg20
I3
sg21
g4017
sg23
I00
sba(iMAG
Car
p4125
(dp4126
g10
(lp4127
I0
aI2
asg12
g3550
sg14
(lp4128
sg16
g3544
sg18
(lp4129
I0
aI1
asg20
I2
sg21
g3553
sg23
I00
sba(iMAG
Car
p4130
(dp4131
g10
(lp4132
I1
aI4
asg12
g3557
sg14
(lp4133
sg16
g3544
sg18
(lp4134
I1
aI3
asg20
I2
sg21
g3856
sg23
I00
sba(iMAG
Car
p4135
(dp4136
g10
(lp4137
I2
aI4
asg12
g3564
sg14
(lp4138
sg16
g3544
sg18
(lp4139
I2
aI3
asg20
I2
sg21
g3804
sg23
I00
sba(iMAG
Car
p4140
(dp4141
g10
(lp4142
I3
aI2
asg12
g3571
sg14
(lp4143
sg16
g3544
sg18
(lp4144
I3
aI0
asg20
I3
sg21
g126
(g127
(S'S1'
p4145
I0
I1
tp4146
Rp4147
(I3
S'|'
p4148
NNNI1
I1
I0
tp4149
bg133
tp4150
Rp4151
sg23
I00
sba(iMAG
Car
p4152
(dp4153
g10
(lp4154
I1
aI5
asg12
g3578
sg14
(lp4155
sg16
g3544
sg18
(lp4156
I0
aI5
asg20
I2
sg21
g3985
sg23
I00
sba(iMAG
Car
p4157
(dp4158
g10
(lp4159
I2
aI2
asg12
g3585
sg14
(lp4160
sg16
g3544
sg18
(lp4161
I1
aI2
asg20
I2
sg21
g3588
sg23
I00
sba(iMAG
Car
p4162
(dp4163
g10
(lp4164
I2
aI0
asg12
g3592
sg14
(lp4165
sg16
g3544
sg18
(lp4166
I0
aI0
asg20
I3
sg21
g4109
sg23
I00
sba(iMAG
Car
p4167
(dp4168
g10
(lp4169
I4
aI4
asg12
g3599
sg14
(lp4170
sg16
g3544
sg18
(lp4171
I3
aI4
asg20
I2
sg21
g3943
sg23
I00
sbasg80
Nsg81
V5557..\u000a0..7..\u000a0RR7..>\u000a.24..1\u000a.24661\u000a33...1\u000a
p4172
sba(i__main__
Node
p4173
(dp4174
g3
Nsg4
(lp4175
sg6
(lp4176
(iMAG
Car
p4177
(dp4178
g10
(lp4179
I5
aI5
asg12
g3542
sg14
(lp4180
sg16
g3544
sg18
(lp4181
I5
aI3
asg20
I3
sg21
g4017
sg23
I00
sba(iMAG
Car
p4182
(dp4183
g10
(lp4184
I0
aI2
asg12
g3550
sg14
(lp4185
sg16
g3544
sg18
(lp4186
I0
aI1
asg20
I2
sg21
g3553
sg23
I00
sba(iMAG
Car
p4187
(dp4188
g10
(lp4189
I1
aI4
asg12
g3557
sg14
(lp4190
sg16
g3544
sg18
(lp4191
I1
aI3
asg20
I2
sg21
g3856
sg23
I00
sba(iMAG
Car
p4192
(dp4193
g10
(lp4194
I2
aI5
asg12
g3564
sg14
(lp4195
sg16
g3544
sg18
(lp4196
I2
aI4
asg20
I2
sg21
g126
(g127
(S'S1'
p4197
I0
I1
tp4198
Rp4199
(I3
S'|'
p4200
NNNI1
I1
I0
tp4201
bg1457
tp4202
Rp4203
sg23
I00
sba(iMAG
Car
p4204
(dp4205
g10
(lp4206
I3
aI2
asg12
g3571
sg14
(lp4207
sg16
g3544
sg18
(lp4208
I3
aI0
asg20
I3
sg21
g4151
sg23
I00
sba(iMAG
Car
p4209
(dp4210
g10
(lp4211
I1
aI5
asg12
g3578
sg14
(lp4212
sg16
g3544
sg18
(lp4213
I0
aI5
asg20
I2
sg21
g3985
sg23
I00
sba(iMAG
Car
p4214
(dp4215
g10
(lp4216
I2
aI2
asg12
g3585
sg14
(lp4217
sg16
g3544
sg18
(lp4218
I1
aI2
asg20
I2
sg21
g3588
sg23
I00
sba(iMAG
Car
p4219
(dp4220
g10
(lp4221
I2
aI0
asg12
g3592
sg14
(lp4222
sg16
g3544
sg18
(lp4223
I0
aI0
asg20
I3
sg21
g4109
sg23
I00
sba(iMAG
Car
p4224
(dp4225
g10
(lp4226
I4
aI4
asg12
g3599
sg14
(lp4227
sg16
g3544
sg18
(lp4228
I3
aI4
asg20
I2
sg21
g3943
sg23
I00
sbasg80
Nsg81
V5557..\u000a0..7..\u000a0RR7..>\u000a.2...1\u000a.24661\u000a334..1\u000a
p4229
sba(i__main__
Node
p4230
(dp4231
g3
Nsg4
(lp4232
sg6
(lp4233
(iMAG
Car
p4234
(dp4235
g10
(lp4236
I5
aI2
asg12
g3542
sg14
(lp4237
sg16
g3544
sg18
(lp4238
I5
aI0
asg20
I3
sg21
g126
(g127
(S'S1'
p4239
I0
I1
tp4240
Rp4241
(I3
S'|'
p4242
NNNI1
I1
I0
tp4243
bg502
tp4244
Rp4245
sg23
I00
sba(iMAG
Car
p4246
(dp4247
g10
(lp4248
I0
aI2
asg12
g3550
sg14
(lp4249
sg16
g3544
sg18
(lp4250
I0
aI1
asg20
I2
sg21
g3553
sg23
I00
sba(iMAG
Car
p4251
(dp4252
g10
(lp4253
I1
aI4
asg12
g3557
sg14
(lp4254
sg16
g3544
sg18
(lp4255
I1
aI3
asg20
I2
sg21
g3856
sg23
I00
sba(iMAG
Car
p4256
(dp4257
g10
(lp4258
I2
aI5
asg12
g3564
sg14
(lp4259
sg16
g3544
sg18
(lp4260
I2
aI4
asg20
I2
sg21
g4203
sg23
I00
sba(iMAG
Car
p4261
(dp4262
g10
(lp4263
I3
aI2
asg12
g3571
sg14
(lp4264
sg16
g3544
sg18
(lp4265
I3
aI0
asg20
I3
sg21
g4151
sg23
I00
sba(iMAG
Car
p4266
(dp4267
g10
(lp4268
I1
aI5
asg12
g3578
sg14
(lp4269
sg16
g3544
sg18
(lp4270
I0
aI5
asg20
I2
sg21
g3985
sg23
I00
sba(iMAG
Car
p4271
(dp4272
g10
(lp4273
I2
aI2
asg12
g3585
sg14
(lp4274
sg16
g3544
sg18
(lp4275
I1
aI2
asg20
I2
sg21
g3588
sg23
I00
sba(iMAG
Car
p4276
(dp4277
g10
(lp4278
I2
aI0
asg12
g3592
sg14
(lp4279
sg16
g3544
sg18
(lp4280
I0
aI0
asg20
I3
sg21
g4109
sg23
I00
sba(iMAG
Car
p4281
(dp4282
g10
(lp4283
I4
aI4
asg12
g3599
sg14
(lp4284
sg16
g3544
sg18
(lp4285
I3
aI4
asg20
I2
sg21
g3943
sg23
I00
sbasg80
Nsg81
V5557.1\u000a0..7.1\u000a0RR7.1>\u000a.2....\u000a.2466.\u000a334...\u000a
p4286
sba(i__main__
Node
p4287
(dp4288
g3
Nsg4
(lp4289
sg6
(lp4290
(iMAG
Car
p4291
(dp4292
g10
(lp4293
I5
aI2
asg12
g3542
sg14
(lp4294
sg16
g3544
sg18
(lp4295
I5
aI0
asg20
I3
sg21
g4245
sg23
I00
sba(iMAG
Car
p4296
(dp4297
g10
(lp4298
I0
aI2
asg12
g3550
sg14
(lp4299
sg16
g3544
sg18
(lp4300
I0
aI1
asg20
I2
sg21
g3553
sg23
I00
sba(iMAG
Car
p4301
(dp4302
g10
(lp4303
I1
aI4
asg12
g3557
sg14
(lp4304
sg16
g3544
sg18
(lp4305
I1
aI3
asg20
I2
sg21
g3856
sg23
I00
sba(iMAG
Car
p4306
(dp4307
g10
(lp4308
I2
aI5
asg12
g3564
sg14
(lp4309
sg16
g3544
sg18
(lp4310
I2
aI4
asg20
I2
sg21
g4203
sg23
I00
sba(iMAG
Car
p4311
(dp4312
g10
(lp4313
I3
aI2
asg12
g3571
sg14
(lp4314
sg16
g3544
sg18
(lp4315
I3
aI0
asg20
I3
sg21
g4151
sg23
I00
sba(iMAG
Car
p4316
(dp4317
g10
(lp4318
I1
aI5
asg12
g3578
sg14
(lp4319
sg16
g3544
sg18
(lp4320
I0
aI5
asg20
I2
sg21
g3985
sg23
I00
sba(iMAG
Car
p4321
(dp4322
g10
(lp4323
I2
aI2
asg12
g3585
sg14
(lp4324
sg16
g3544
sg18
(lp4325
I1
aI2
asg20
I2
sg21
g3588
sg23
I00
sba(iMAG
Car
p4326
(dp4327
g10
(lp4328
I2
aI0
asg12
g3592
sg14
(lp4329
sg16
g3544
sg18
(lp4330
I0
aI0
asg20
I3
sg21
g4109
sg23
I00
sba(iMAG
Car
p4331
(dp4332
g10
(lp4333
I5
aI4
asg12
g3599
sg14
(lp4334
sg16
g3544
sg18
(lp4335
I4
aI4
asg20
I2
sg21
g126
(g127
(S'S1'
p4336
I0
I1
tp4337
Rp4338
(I3
S'|'
p4339
NNNI1
I1
I0
tp4340
bg312
tp4341
Rp4342
sg23
I00
sbasg80
Nsg81
V5557.1\u000a0..7.1\u000a0RR7.1>\u000a.2....\u000a.24.66\u000a334...\u000a
p4343
sba(i__main__
Node
p4344
(dp4345
g3
Nsg4
(lp4346
sg6
(lp4347
(iMAG
Car
p4348
(dp4349
g10
(lp4350
I5
aI2
asg12
g3542
sg14
(lp4351
sg16
g3544
sg18
(lp4352
I5
aI0
asg20
I3
sg21
g4245
sg23
I00
sba(iMAG
Car
p4353
(dp4354
g10
(lp4355
I0
aI2
asg12
g3550
sg14
(lp4356
sg16
g3544
sg18
(lp4357
I0
aI1
asg20
I2
sg21
g3553
sg23
I00
sba(iMAG
Car
p4358
(dp4359
g10
(lp4360
I1
aI4
asg12
g3557
sg14
(lp4361
sg16
g3544
sg18
(lp4362
I1
aI3
asg20
I2
sg21
g3856
sg23
I00
sba(iMAG
Car
p4363
(dp4364
g10
(lp4365
I2
aI5
asg12
g3564
sg14
(lp4366
sg16
g3544
sg18
(lp4367
I2
aI4
asg20
I2
sg21
g4203
sg23
I00
sba(iMAG
Car
p4368
(dp4369
g10
(lp4370
I3
aI5
asg12
g3571
sg14
(lp4371
sg16
g3544
sg18
(lp4372
I3
aI3
asg20
I3
sg21
g126
(g127
(S'S1'
p4373
I0
I1
tp4374
Rp4375
(I3
S'|'
p4376
NNNI1
I1
I0
tp4377
bg133
tp4378
Rp4379
sg23
I00
sba(iMAG
Car
p4380
(dp4381
g10
(lp4382
I1
aI5
asg12
g3578
sg14
(lp4383
sg16
g3544
sg18
(lp4384
I0
aI5
asg20
I2
sg21
g3985
sg23
I00
sba(iMAG
Car
p4385
(dp4386
g10
(lp4387
I2
aI2
asg12
g3585
sg14
(lp4388
sg16
g3544
sg18
(lp4389
I1
aI2
asg20
I2
sg21
g3588
sg23
I00
sba(iMAG
Car
p4390
(dp4391
g10
(lp4392
I2
aI0
asg12
g3592
sg14
(lp4393
sg16
g3544
sg18
(lp4394
I0
aI0
asg20
I3
sg21
g4109
sg23
I00
sba(iMAG
Car
p4395
(dp4396
g10
(lp4397
I5
aI4
asg12
g3599
sg14
(lp4398
sg16
g3544
sg18
(lp4399
I4
aI4
asg20
I2
sg21
g4342
sg23
I00
sbasg80
Nsg81
V555..1\u000a0....1\u000a0RR..1>\u000a.2.7..\u000a.24766\u000a3347..\u000a
p4400
sba(i__main__
Node
p4401
(dp4402
g3
Nsg4
(lp4403
sg6
(lp4404
(iMAG
Car
p4405
(dp4406
g10
(lp4407
I5
aI2
asg12
g3542
sg14
(lp4408
sg16
g3544
sg18
(lp4409
I5
aI0
asg20
I3
sg21
g4245
sg23
I00
sba(iMAG
Car
p4410
(dp4411
g10
(lp4412
I0
aI2
asg12
g3550
sg14
(lp4413
sg16
g3544
sg18
(lp4414
I0
aI1
asg20
I2
sg21
g3553
sg23
I00
sba(iMAG
Car
p4415
(dp4416
g10
(lp4417
I1
aI4
asg12
g3557
sg14
(lp4418
sg16
g3544
sg18
(lp4419
I1
aI3
asg20
I2
sg21
g3856
sg23
I00
sba(iMAG
Car
p4420
(dp4421
g10
(lp4422
I2
aI5
asg12
g3564
sg14
(lp4423
sg16
g3544
sg18
(lp4424
I2
aI4
asg20
I2
sg21
g4203
sg23
I00
sba(iMAG
Car
p4425
(dp4426
g10
(lp4427
I3
aI5
asg12
g3571
sg14
(lp4428
sg16
g3544
sg18
(lp4429
I3
aI3
asg20
I3
sg21
g4379
sg23
I00
sba(iMAG
Car
p4430
(dp4431
g10
(lp4432
I1
aI5
asg12
g3578
sg14
(lp4433
sg16
g3544
sg18
(lp4434
I0
aI5
asg20
I2
sg21
g3985
sg23
I00
sba(iMAG
Car
p4435
(dp4436
g10
(lp4437
I4
aI2
asg12
g3585
sg14
(lp4438
sg16
g3544
sg18
(lp4439
I3
aI2
asg20
I2
sg21
g126
(g127
(S'S1'
p4440
I0
I1
tp4441
Rp4442
(I3
S'|'
p4443
NNNI1
I1
I0
tp4444
bg1624
tp4445
Rp4446
sg23
I00
sba(iMAG
Car
p4447
(dp4448
g10
(lp4449
I2
aI0
asg12
g3592
sg14
(lp4450
sg16
g3544
sg18
(lp4451
I0
aI0
asg20
I3
sg21
g4109
sg23
I00
sba(iMAG
Car
p4452
(dp4453
g10
(lp4454
I5
aI4
asg12
g3599
sg14
(lp4455
sg16
g3544
sg18
(lp4456
I4
aI4
asg20
I2
sg21
g4342
sg23
I00
sbasg80
Nsg81
V555..1\u000a0....1\u000a0..RR1>\u000a.2.7..\u000a.24766\u000a3347..\u000a
p4457
sba(i__main__
Node
p4458
(dp4459
g3
Nsg4
(lp4460
sg6
(lp4461
(iMAG
Car
p4462
(dp4463
g10
(lp4464
I5
aI2
asg12
g3542
sg14
(lp4465
sg16
g3544
sg18
(lp4466
I5
aI0
asg20
I3
sg21
g4245
sg23
I00
sba(iMAG
Car
p4467
(dp4468
g10
(lp4469
I0
aI2
asg12
g3550
sg14
(lp4470
sg16
g3544
sg18
(lp4471
I0
aI1
asg20
I2
sg21
g3553
sg23
I00
sba(iMAG
Car
p4472
(dp4473
g10
(lp4474
I1
aI2
asg12
g3557
sg14
(lp4475
sg16
g3544
sg18
(lp4476
I1
aI1
asg20
I2
sg21
g126
(g127
(S'S1'
p4477
I0
I1
tp4478
Rp4479
(I3
S'|'
p4480
NNNI1
I1
I0
tp4481
bg340
tp4482
Rp4483
sg23
I00
sba(iMAG
Car
p4484
(dp4485
g10
(lp4486
I2
aI5
asg12
g3564
sg14
(lp4487
sg16
g3544
sg18
(lp4488
I2
aI4
asg20
I2
sg21
g4203
sg23
I00
sba(iMAG
Car
p4489
(dp4490
g10
(lp4491
I3
aI5
asg12
g3571
sg14
(lp4492
sg16
g3544
sg18
(lp4493
I3
aI3
asg20
I3
sg21
g4379
sg23
I00
sba(iMAG
Car
p4494
(dp4495
g10
(lp4496
I1
aI5
asg12
g3578
sg14
(lp4497
sg16
g3544
sg18
(lp4498
I0
aI5
asg20
I2
sg21
g3985
sg23
I00
sba(iMAG
Car
p4499
(dp4500
g10
(lp4501
I4
aI2
asg12
g3585
sg14
(lp4502
sg16
g3544
sg18
(lp4503
I3
aI2
asg20
I2
sg21
g4446
sg23
I00
sba(iMAG
Car
p4504
(dp4505
g10
(lp4506
I2
aI0
asg12
g3592
sg14
(lp4507
sg16
g3544
sg18
(lp4508
I0
aI0
asg20
I3
sg21
g4109
sg23
I00
sba(iMAG
Car
p4509
(dp4510
g10
(lp4511
I5
aI4
asg12
g3599
sg14
(lp4512
sg16
g3544
sg18
(lp4513
I4
aI4
asg20
I2
sg21
g4342
sg23
I00
sbasg80
Nsg81
V555..1\u000a02...1\u000a02.RR1>\u000a...7..\u000a..4766\u000a3347..\u000a
p4514
sba(i__main__
Node
p4515
(dp4516
g3
Nsg4
(lp4517
sg6
(lp4518
(iMAG
Car
p4519
(dp4520
g10
(lp4521
I5
aI2
asg12
g3542
sg14
(lp4522
sg16
g3544
sg18
(lp4523
I5
aI0
asg20
I3
sg21
g4245
sg23
I00
sba(iMAG
Car
p4524
(dp4525
g10
(lp4526
I0
aI2
asg12
g3550
sg14
(lp4527
sg16
g3544
sg18
(lp4528
I0
aI1
asg20
I2
sg21
g3553
sg23
I00
sba(iMAG
Car
p4529
(dp4530
g10
(lp4531
I1
aI2
asg12
g3557
sg14
(lp4532
sg16
g3544
sg18
(lp4533
I1
aI1
asg20
I2
sg21
g4483
sg23
I00
sba(iMAG
Car
p4534
(dp4535
g10
(lp4536
I2
aI2
asg12
g3564
sg14
(lp4537
sg16
g3544
sg18
(lp4538
I2
aI1
asg20
I2
sg21
g126
(g127
(S'S1'
p4539
I0
I1
tp4540
Rp4541
(I3
S'|'
p4542
NNNI1
I1
I0
tp4543
bg1457
tp4544
Rp4545
sg23
I00
sba(iMAG
Car
p4546
(dp4547
g10
(lp4548
I3
aI5
asg12
g3571
sg14
(lp4549
sg16
g3544
sg18
(lp4550
I3
aI3
asg20
I3
sg21
g4379
sg23
I00
sba(iMAG
Car
p4551
(dp4552
g10
(lp4553
I1
aI5
asg12
g3578
sg14
(lp4554
sg16
g3544
sg18
(lp4555
I0
aI5
asg20
I2
sg21
g3985
sg23
I00
sba(iMAG
Car
p4556
(dp4557
g10
(lp4558
I4
aI2
asg12
g3585
sg14
(lp4559
sg16
g3544
sg18
(lp4560
I3
aI2
asg20
I2
sg21
g4446
sg23
I00
sba(iMAG
Car
p4561
(dp4562
g10
(lp4563
I2
aI0
asg12
g3592
sg14
(lp4564
sg16
g3544
sg18
(lp4565
I0
aI0
asg20
I3
sg21
g4109
sg23
I00
sba(iMAG
Car
p4566
(dp4567
g10
(lp4568
I5
aI4
asg12
g3599
sg14
(lp4569
sg16
g3544
sg18
(lp4570
I4
aI4
asg20
I2
sg21
g4342
sg23
I00
sbasg80
Nsg81
V555..1\u000a024..1\u000a024RR1>\u000a...7..\u000a...766\u000a33.7..\u000a
p4571
sba(i__main__
Node
p4572
(dp4573
g3
Nsg4
(lp4574
sg6
(lp4575
(iMAG
Car
p4576
(dp4577
g10
(lp4578
I5
aI3
asg12
g3542
sg14
(lp4579
sg16
g3544
sg18
(lp4580
I5
aI1
asg20
I3
sg21
g126
(g127
(S'S1'
p4581
I0
I1
tp4582
Rp4583
(I3
S'|'
p4584
NNNI1
I1
I0
tp4585
bg502
tp4586
Rp4587
sg23
I00
sba(iMAG
Car
p4588
(dp4589
g10
(lp4590
I0
aI2
asg12
g3550
sg14
(lp4591
sg16
g3544
sg18
(lp4592
I0
aI1
asg20
I2
sg21
g3553
sg23
I00
sba(iMAG
Car
p4593
(dp4594
g10
(lp4595
I1
aI2
asg12
g3557
sg14
(lp4596
sg16
g3544
sg18
(lp4597
I1
aI1
asg20
I2
sg21
g4483
sg23
I00
sba(iMAG
Car
p4598
(dp4599
g10
(lp4600
I2
aI2
asg12
g3564
sg14
(lp4601
sg16
g3544
sg18
(lp4602
I2
aI1
asg20
I2
sg21
g4545
sg23
I00
sba(iMAG
Car
p4603
(dp4604
g10
(lp4605
I3
aI5
asg12
g3571
sg14
(lp4606
sg16
g3544
sg18
(lp4607
I3
aI3
asg20
I3
sg21
g4379
sg23
I00
sba(iMAG
Car
p4608
(dp4609
g10
(lp4610
I1
aI5
asg12
g3578
sg14
(lp4611
sg16
g3544
sg18
(lp4612
I0
aI5
asg20
I2
sg21
g3985
sg23
I00
sba(iMAG
Car
p4613
(dp4614
g10
(lp4615
I4
aI2
asg12
g3585
sg14
(lp4616
sg16
g3544
sg18
(lp4617
I3
aI2
asg20
I2
sg21
g4446
sg23
I00
sba(iMAG
Car
p4618
(dp4619
g10
(lp4620
I2
aI0
asg12
g3592
sg14
(lp4621
sg16
g3544
sg18
(lp4622
I0
aI0
asg20
I3
sg21
g4109
sg23
I00
sba(iMAG
Car
p4623
(dp4624
g10
(lp4625
I5
aI4
asg12
g3599
sg14
(lp4626
sg16
g3544
sg18
(lp4627
I4
aI4
asg20
I2
sg21
g4342
sg23
I00
sbasg80
Nsg81
V555...\u000a024..1\u000a024RR1>\u000a...7.1\u000a...766\u000a33.7..\u000a
p4628
sba(i__main__
Node
p4629
(dp4630
g3
Nsg4
(lp4631
sg6
(lp4632
(iMAG
Car
p4633
(dp4634
g10
(lp4635
I5
aI3
asg12
g3542
sg14
(lp4636
sg16
g3544
sg18
(lp4637
I5
aI1
asg20
I3
sg21
g4587
sg23
I00
sba(iMAG
Car
p4638
(dp4639
g10
(lp4640
I0
aI2
asg12
g3550
sg14
(lp4641
sg16
g3544
sg18
(lp4642
I0
aI1
asg20
I2
sg21
g3553
sg23
I00
sba(iMAG
Car
p4643
(dp4644
g10
(lp4645
I1
aI2
asg12
g3557
sg14
(lp4646
sg16
g3544
sg18
(lp4647
I1
aI1
asg20
I2
sg21
g4483
sg23
I00
sba(iMAG
Car
p4648
(dp4649
g10
(lp4650
I2
aI5
asg12
g3564
sg14
(lp4651
sg16
g3544
sg18
(lp4652
I2
aI4
asg20
I2
sg21
g126
(g127
(S'S1'
p4653
I0
I1
tp4654
Rp4655
(I3
S'|'
p4656
NNNI1
I1
I0
tp4657
bg1457
tp4658
Rp4659
sg23
I00
sba(iMAG
Car
p4660
(dp4661
g10
(lp4662
I3
aI5
asg12
g3571
sg14
(lp4663
sg16
g3544
sg18
(lp4664
I3
aI3
asg20
I3
sg21
g4379
sg23
I00
sba(iMAG
Car
p4665
(dp4666
g10
(lp4667
I1
aI5
asg12
g3578
sg14
(lp4668
sg16
g3544
sg18
(lp4669
I0
aI5
asg20
I2
sg21
g3985
sg23
I00
sba(iMAG
Car
p4670
(dp4671
g10
(lp4672
I4
aI2
asg12
g3585
sg14
(lp4673
sg16
g3544
sg18
(lp4674
I3
aI2
asg20
I2
sg21
g4446
sg23
I00
sba(iMAG
Car
p4675
(dp4676
g10
(lp4677
I2
aI0
asg12
g3592
sg14
(lp4678
sg16
g3544
sg18
(lp4679
I0
aI0
asg20
I3
sg21
g4109
sg23
I00
sba(iMAG
Car
p4680
(dp4681
g10
(lp4682
I5
aI4
asg12
g3599
sg14
(lp4683
sg16
g3544
sg18
(lp4684
I4
aI4
asg20
I2
sg21
g4342
sg23
I00
sbasg80
Nsg81
V555...\u000a02...1\u000a02.RR1>\u000a...7.1\u000a..4766\u000a3347..\u000a
p4685
sba(i__main__
Node
p4686
(dp4687
g3
Nsg4
(lp4688
sg6
(lp4689
(iMAG
Car
p4690
(dp4691
g10
(lp4692
I5
aI3
asg12
g3542
sg14
(lp4693
sg16
g3544
sg18
(lp4694
I5
aI1
asg20
I3
sg21
g4587
sg23
I00
sba(iMAG
Car
p4695
(dp4696
g10
(lp4697
I0
aI2
asg12
g3550
sg14
(lp4698
sg16
g3544
sg18
(lp4699
I0
aI1
asg20
I2
sg21
g3553
sg23
I00
sba(iMAG
Car
p4700
(dp4701
g10
(lp4702
I1
aI4
asg12
g3557
sg14
(lp4703
sg16
g3544
sg18
(lp4704
I1
aI3
asg20
I2
sg21
g126
(g127
(S'S1'
p4705
I0
I1
tp4706
Rp4707
(I3
S'|'
p4708
NNNI1
I1
I0
tp4709
bg340
tp4710
Rp4711
sg23
I00
sba(iMAG
Car
p4712
(dp4713
g10
(lp4714
I2
aI5
asg12
g3564
sg14
(lp4715
sg16
g3544
sg18
(lp4716
I2
aI4
asg20
I2
sg21
g4659
sg23
I00
sba(iMAG
Car
p4717
(dp4718
g10
(lp4719
I3
aI5
asg12
g3571
sg14
(lp4720
sg16
g3544
sg18
(lp4721
I3
aI3
asg20
I3
sg21
g4379
sg23
I00
sba(iMAG
Car
p4722
(dp4723
g10
(lp4724
I1
aI5
asg12
g3578
sg14
(lp4725
sg16
g3544
sg18
(lp4726
I0
aI5
asg20
I2
sg21
g3985
sg23
I00
sba(iMAG
Car
p4727
(dp4728
g10
(lp4729
I4
aI2
asg12
g3585
sg14
(lp4730
sg16
g3544
sg18
(lp4731
I3
aI2
asg20
I2
sg21
g4446
sg23
I00
sba(iMAG
Car
p4732
(dp4733
g10
(lp4734
I2
aI0
asg12
g3592
sg14
(lp4735
sg16
g3544
sg18
(lp4736
I0
aI0
asg20
I3
sg21
g4109
sg23
I00
sba(iMAG
Car
p4737
(dp4738
g10
(lp4739
I5
aI4
asg12
g3599
sg14
(lp4740
sg16
g3544
sg18
(lp4741
I4
aI4
asg20
I2
sg21
g4342
sg23
I00
sbasg80
Nsg81
V555...\u000a0....1\u000a0..RR1>\u000a.2.7.1\u000a.24766\u000a3347..\u000a
p4742
sba(i__main__
Node
p4743
(dp4744
g3
Nsg4
(lp4745
sg6
(lp4746
(iMAG
Car
p4747
(dp4748
g10
(lp4749
I5
aI3
asg12
g3542
sg14
(lp4750
sg16
g3544
sg18
(lp4751
I5
aI1
asg20
I3
sg21
g4587
sg23
I00
sba(iMAG
Car
p4752
(dp4753
g10
(lp4754
I0
aI4
asg12
g3550
sg14
(lp4755
sg16
g3544
sg18
(lp4756
I0
aI3
asg20
I2
sg21
g126
(g127
(S'S1'
p4757
I0
I1
tp4758
Rp4759
(I3
S'|'
p4760
NNNI1
I1
I0
tp4761
bg176
tp4762
Rp4763
sg23
I00
sba(iMAG
Car
p4764
(dp4765
g10
(lp4766
I1
aI4
asg12
g3557
sg14
(lp4767
sg16
g3544
sg18
(lp4768
I1
aI3
asg20
I2
sg21
g4711
sg23
I00
sba(iMAG
Car
p4769
(dp4770
g10
(lp4771
I2
aI5
asg12
g3564
sg14
(lp4772
sg16
g3544
sg18
(lp4773
I2
aI4
asg20
I2
sg21
g4659
sg23
I00
sba(iMAG
Car
p4774
(dp4775
g10
(lp4776
I3
aI5
asg12
g3571
sg14
(lp4777
sg16
g3544
sg18
(lp4778
I3
aI3
asg20
I3
sg21
g4379
sg23
I00
sba(iMAG
Car
p4779
(dp4780
g10
(lp4781
I1
aI5
asg12
g3578
sg14
(lp4782
sg16
g3544
sg18
(lp4783
I0
aI5
asg20
I2
sg21
g3985
sg23
I00
sba(iMAG
Car
p4784
(dp4785
g10
(lp4786
I4
aI2
asg12
g3585
sg14
(lp4787
sg16
g3544
sg18
(lp4788
I3
aI2
asg20
I2
sg21
g4446
sg23
I00
sba(iMAG
Car
p4789
(dp4790
g10
(lp4791
I2
aI0
asg12
g3592
sg14
(lp4792
sg16
g3544
sg18
(lp4793
I0
aI0
asg20
I3
sg21
g4109
sg23
I00
sba(iMAG
Car
p4794
(dp4795
g10
(lp4796
I5
aI4
asg12
g3599
sg14
(lp4797
sg16
g3544
sg18
(lp4798
I4
aI4
asg20
I2
sg21
g4342
sg23
I00
sbasg80
Nsg81
S'555...\n.....1\n...RR1>\n02.7.1\n024766\n3347..\n'
p4799
sba(i__main__
Node
p4800
(dp4801
g3
Nsg4
(lp4802
sg6
(lp4803
(iMAG
Car
p4804
(dp4805
g10
(lp4806
I5
aI3
asg12
g3542
sg14
(lp4807
sg16
g3544
sg18
(lp4808
I5
aI1
asg20
I3
sg21
g4587
sg23
I00
sba(iMAG
Car
p4809
(dp4810
g10
(lp4811
I0
aI4
asg12
g3550
sg14
(lp4812
sg16
g3544
sg18
(lp4813
I0
aI3
asg20
I2
sg21
g4763
sg23
I00
sba(iMAG
Car
p4814
(dp4815
g10
(lp4816
I1
aI4
asg12
g3557
sg14
(lp4817
sg16
g3544
sg18
(lp4818
I1
aI3
asg20
I2
sg21
g4711
sg23
I00
sba(iMAG
Car
p4819
(dp4820
g10
(lp4821
I2
aI5
asg12
g3564
sg14
(lp4822
sg16
g3544
sg18
(lp4823
I2
aI4
asg20
I2
sg21
g4659
sg23
I00
sba(iMAG
Car
p4824
(dp4825
g10
(lp4826
I3
aI5
asg12
g3571
sg14
(lp4827
sg16
g3544
sg18
(lp4828
I3
aI3
asg20
I3
sg21
g4379
sg23
I00
sba(iMAG
Car
p4829
(dp4830
g10
(lp4831
I1
aI5
asg12
g3578
sg14
(lp4832
sg16
g3544
sg18
(lp4833
I0
aI5
asg20
I2
sg21
g3985
sg23
I00
sba(iMAG
Car
p4834
(dp4835
g10
(lp4836
I1
aI2
asg12
g3585
sg14
(lp4837
sg16
g3544
sg18
(lp4838
I0
aI2
asg20
I2
sg21
g126
(g127
(S'S1'
p4839
I0
I1
tp4840
Rp4841
(I3
S'|'
p4842
NNNI1
I1
I0
tp4843
bg1624
tp4844
Rp4845
sg23
I00
sba(iMAG
Car
p4846
(dp4847
g10
(lp4848
I2
aI0
asg12
g3592
sg14
(lp4849
sg16
g3544
sg18
(lp4850
I0
aI0
asg20
I3
sg21
g4109
sg23
I00
sba(iMAG
Car
p4851
(dp4852
g10
(lp4853
I5
aI4
asg12
g3599
sg14
(lp4854
sg16
g3544
sg18
(lp4855
I4
aI4
asg20
I2
sg21
g4342
sg23
I00
sbasg80
Nsg81
S'555...\n.....1\nRR...1>\n02.7.1\n024766\n3347..\n'
p4856
sba(i__main__
Node
p4857
(dp4858
g3
Nsg4
(lp4859
sg6
(lp4860
(iMAG
Car
p4861
(dp4862
g10
(lp4863
I5
aI3
asg12
g3542
sg14
(lp4864
sg16
g3544
sg18
(lp4865
I5
aI1
asg20
I3
sg21
g4587
sg23
I00
sba(iMAG
Car
p4866
(dp4867
g10
(lp4868
I0
aI4
asg12
g3550
sg14
(lp4869
sg16
g3544
sg18
(lp4870
I0
aI3
asg20
I2
sg21
g4763
sg23
I00
sba(iMAG
Car
p4871
(dp4872
g10
(lp4873
I1
aI4
asg12
g3557
sg14
(lp4874
sg16
g3544
sg18
(lp4875
I1
aI3
asg20
I2
sg21
g4711
sg23
I00
sba(iMAG
Car
p4876
(dp4877
g10
(lp4878
I2
aI5
asg12
g3564
sg14
(lp4879
sg16
g3544
sg18
(lp4880
I2
aI4
asg20
I2
sg21
g4659
sg23
I00
sba(iMAG
Car
p4881
(dp4882
g10
(lp4883
I3
aI2
asg12
g3571
sg14
(lp4884
sg16
g3544
sg18
(lp4885
I3
aI0
asg20
I3
sg21
g126
(g127
(S'S1'
p4886
I0
I1
tp4887
Rp4888
(I3
S'|'
p4889
NNNI1
I1
I0
tp4890
bg133
tp4891
Rp4892
sg23
I00
sba(iMAG
Car
p4893
(dp4894
g10
(lp4895
I1
aI5
asg12
g3578
sg14
(lp4896
sg16
g3544
sg18
(lp4897
I0
aI5
asg20
I2
sg21
g3985
sg23
I00
sba(iMAG
Car
p4898
(dp4899
g10
(lp4900
I1
aI2
asg12
g3585
sg14
(lp4901
sg16
g3544
sg18
(lp4902
I0
aI2
asg20
I2
sg21
g4845
sg23
I00
sba(iMAG
Car
p4903
(dp4904
g10
(lp4905
I2
aI0
asg12
g3592
sg14
(lp4906
sg16
g3544
sg18
(lp4907
I0
aI0
asg20
I3
sg21
g4109
sg23
I00
sba(iMAG
Car
p4908
(dp4909
g10
(lp4910
I5
aI4
asg12
g3599
sg14
(lp4911
sg16
g3544
sg18
(lp4912
I4
aI4
asg20
I2
sg21
g4342
sg23
I00
sbasg80
Nsg81
S'5557..\n...7.1\nRR.7.1>\n02...1\n024.66\n334...\n'
p4913
sba(i__main__
Node
p4914
(dp4915
g3
Nsg4
(lp4916
sg6
(lp4917
(iMAG
Car
p4918
(dp4919
g10
(lp4920
I5
aI3
asg12
g3542
sg14
(lp4921
sg16
g3544
sg18
(lp4922
I5
aI1
asg20
I3
sg21
g4587
sg23
I00
sba(iMAG
Car
p4923
(dp4924
g10
(lp4925
I0
aI4
asg12
g3550
sg14
(lp4926
sg16
g3544
sg18
(lp4927
I0
aI3
asg20
I2
sg21
g4763
sg23
I00
sba(iMAG
Car
p4928
(dp4929
g10
(lp4930
I1
aI4
asg12
g3557
sg14
(lp4931
sg16
g3544
sg18
(lp4932
I1
aI3
asg20
I2
sg21
g4711
sg23
I00
sba(iMAG
Car
p4933
(dp4934
g10
(lp4935
I2
aI5
asg12
g3564
sg14
(lp4936
sg16
g3544
sg18
(lp4937
I2
aI4
asg20
I2
sg21
g4659
sg23
I00
sba(iMAG
Car
p4938
(dp4939
g10
(lp4940
I3
aI2
asg12
g3571
sg14
(lp4941
sg16
g3544
sg18
(lp4942
I3
aI0
asg20
I3
sg21
g4892
sg23
I00
sba(iMAG
Car
p4943
(dp4944
g10
(lp4945
I1
aI5
asg12
g3578
sg14
(lp4946
sg16
g3544
sg18
(lp4947
I0
aI5
asg20
I2
sg21
g3985
sg23
I00
sba(iMAG
Car
p4948
(dp4949
g10
(lp4950
I1
aI2
asg12
g3585
sg14
(lp4951
sg16
g3544
sg18
(lp4952
I0
aI2
asg20
I2
sg21
g4845
sg23
I00
sba(iMAG
Car
p4953
(dp4954
g10
(lp4955
I2
aI0
asg12
g3592
sg14
(lp4956
sg16
g3544
sg18
(lp4957
I0
aI0
asg20
I3
sg21
g4109
sg23
I00
sba(iMAG
Car
p4958
(dp4959
g10
(lp4960
I4
aI4
asg12
g3599
sg14
(lp4961
sg16
g3544
sg18
(lp4962
I3
aI4
asg20
I2
sg21
g126
(g127
(S'S1'
p4963
I0
I1
tp4964
Rp4965
(I3
S'|'
p4966
NNNI1
I1
I0
tp4967
bg312
tp4968
Rp4969
sg23
I00
sbasg80
Nsg81
S'5557..\n...7.1\nRR.7.1>\n02...1\n02466.\n334...\n'
p4970
sba(i__main__
Node
p4971
(dp4972
g3
Nsg4
(lp4973
sg6
(lp4974
(iMAG
Car
p4975
(dp4976
g10
(lp4977
I5
aI5
asg12
g3542
sg14
(lp4978
sg16
g3544
sg18
(lp4979
I5
aI3
asg20
I3
sg21
g126
(g127
(S'S1'
p4980
I0
I1
tp4981
Rp4982
(I3
S'|'
p4983
NNNI1
I1
I0
tp4984
bg502
tp4985
Rp4986
sg23
I00
sba(iMAG
Car
p4987
(dp4988
g10
(lp4989
I0
aI4
asg12
g3550
sg14
(lp4990
sg16
g3544
sg18
(lp4991
I0
aI3
asg20
I2
sg21
g4763
sg23
I00
sba(iMAG
Car
p4992
(dp4993
g10
(lp4994
I1
aI4
asg12
g3557
sg14
(lp4995
sg16
g3544
sg18
(lp4996
I1
aI3
asg20
I2
sg21
g4711
sg23
I00
sba(iMAG
Car
p4997
(dp4998
g10
(lp4999
I2
aI5
asg12
g3564
sg14
(lp5000
sg16
g3544
sg18
(lp5001
I2
aI4
asg20
I2
sg21
g4659
sg23
I00
sba(iMAG
Car
p5002
(dp5003
g10
(lp5004
I3
aI2
asg12
g3571
sg14
(lp5005
sg16
g3544
sg18
(lp5006
I3
aI0
asg20
I3
sg21
g4892
sg23
I00
sba(iMAG
Car
p5007
(dp5008
g10
(lp5009
I1
aI5
asg12
g3578
sg14
(lp5010
sg16
g3544
sg18
(lp5011
I0
aI5
asg20
I2
sg21
g3985
sg23
I00
sba(iMAG
Car
p5012
(dp5013
g10
(lp5014
I1
aI2
asg12
g3585
sg14
(lp5015
sg16
g3544
sg18
(lp5016
I0
aI2
asg20
I2
sg21
g4845
sg23
I00
sba(iMAG
Car
p5017
(dp5018
g10
(lp5019
I2
aI0
asg12
g3592
sg14
(lp5020
sg16
g3544
sg18
(lp5021
I0
aI0
asg20
I3
sg21
g4109
sg23
I00
sba(iMAG
Car
p5022
(dp5023
g10
(lp5024
I4
aI4
asg12
g3599
sg14
(lp5025
sg16
g3544
sg18
(lp5026
I3
aI4
asg20
I2
sg21
g4969
sg23
I00
sbasg80
Nsg81
S'5557..\n...7..\nRR.7..>\n02...1\n024661\n334..1\n'
p5027
sba(i__main__
Node
p5028
(dp5029
g3
Nsg4
(lp5030
sg6
(lp5031
(iMAG
Car
p5032
(dp5033
g10
(lp5034
I5
aI5
asg12
g3542
sg14
(lp5035
sg16
g3544
sg18
(lp5036
I5
aI3
asg20
I3
sg21
g4986
sg23
I00
sba(iMAG
Car
p5037
(dp5038
g10
(lp5039
I0
aI4
asg12
g3550
sg14
(lp5040
sg16
g3544
sg18
(lp5041
I0
aI3
asg20
I2
sg21
g4763
sg23
I00
sba(iMAG
Car
p5042
(dp5043
g10
(lp5044
I1
aI4
asg12
g3557
sg14
(lp5045
sg16
g3544
sg18
(lp5046
I1
aI3
asg20
I2
sg21
g4711
sg23
I00
sba(iMAG
Car
p5047
(dp5048
g10
(lp5049
I2
aI2
asg12
g3564
sg14
(lp5050
sg16
g3544
sg18
(lp5051
I2
aI1
asg20
I2
sg21
g126
(g127
(S'S1'
p5052
I0
I1
tp5053
Rp5054
(I3
S'|'
p5055
NNNI1
I1
I0
tp5056
bg1457
tp5057
Rp5058
sg23
I00
sba(iMAG
Car
p5059
(dp5060
g10
(lp5061
I3
aI2
asg12
g3571
sg14
(lp5062
sg16
g3544
sg18
(lp5063
I3
aI0
asg20
I3
sg21
g4892
sg23
I00
sba(iMAG
Car
p5064
(dp5065
g10
(lp5066
I1
aI5
asg12
g3578
sg14
(lp5067
sg16
g3544
sg18
(lp5068
I0
aI5
asg20
I2
sg21
g3985
sg23
I00
sba(iMAG
Car
p5069
(dp5070
g10
(lp5071
I1
aI2
asg12
g3585
sg14
(lp5072
sg16
g3544
sg18
(lp5073
I0
aI2
asg20
I2
sg21
g4845
sg23
I00
sba(iMAG
Car
p5074
(dp5075
g10
(lp5076
I2
aI0
asg12
g3592
sg14
(lp5077
sg16
g3544
sg18
(lp5078
I0
aI0
asg20
I3
sg21
g4109
sg23
I00
sba(iMAG
Car
p5079
(dp5080
g10
(lp5081
I4
aI4
asg12
g3599
sg14
(lp5082
sg16
g3544
sg18
(lp5083
I3
aI4
asg20
I2
sg21
g4969
sg23
I00
sbasg80
Nsg81
S'5557..\n..47..\nRR47..>\n02...1\n02.661\n33...1\n'
p5084
sba(i__main__
Node
p5085
(dp5086
g3
Nsg4
(lp5087
sg6
(lp5088
(iMAG
Car
p5089
(dp5090
g10
(lp5091
I5
aI5
asg12
g3542
sg14
(lp5092
sg16
g3544
sg18
(lp5093
I5
aI3
asg20
I3
sg21
g4986
sg23
I00
sba(iMAG
Car
p5094
(dp5095
g10
(lp5096
I0
aI4
asg12
g3550
sg14
(lp5097
sg16
g3544
sg18
(lp5098
I0
aI3
asg20
I2
sg21
g4763
sg23
I00
sba(iMAG
Car
p5099
(dp5100
g10
(lp5101
I1
aI4
asg12
g3557
sg14
(lp5102
sg16
g3544
sg18
(lp5103
I1
aI3
asg20
I2
sg21
g4711
sg23
I00
sba(iMAG
Car
p5104
(dp5105
g10
(lp5106
I2
aI2
asg12
g3564
sg14
(lp5107
sg16
g3544
sg18
(lp5108
I2
aI1
asg20
I2
sg21
g5058
sg23
I00
sba(iMAG
Car
p5109
(dp5110
g10
(lp5111
I3
aI2
asg12
g3571
sg14
(lp5112
sg16
g3544
sg18
(lp5113
I3
aI0
asg20
I3
sg21
g4892
sg23
I00
sba(iMAG
Car
p5114
(dp5115
g10
(lp5116
I1
aI5
asg12
g3578
sg14
(lp5117
sg16
g3544
sg18
(lp5118
I0
aI5
asg20
I2
sg21
g3985
sg23
I00
sba(iMAG
Car
p5119
(dp5120
g10
(lp5121
I1
aI2
asg12
g3585
sg14
(lp5122
sg16
g3544
sg18
(lp5123
I0
aI2
asg20
I2
sg21
g4845
sg23
I00
sba(iMAG
Car
p5124
(dp5125
g10
(lp5126
I2
aI0
asg12
g3592
sg14
(lp5127
sg16
g3544
sg18
(lp5128
I0
aI0
asg20
I3
sg21
g4109
sg23
I00
sba(iMAG
Car
p5129
(dp5130
g10
(lp5131
I3
aI4
asg12
g3599
sg14
(lp5132
sg16
g3544
sg18
(lp5133
I2
aI4
asg20
I2
sg21
g126
(g127
(S'S1'
p5134
I0
I1
tp5135
Rp5136
(I3
S'|'
p5137
NNNI1
I1
I0
tp5138
bg312
tp5139
Rp5140
sg23
I00
sbasg80
Nsg81
S'5557..\n..47..\nRR47..>\n02...1\n0266.1\n33...1\n'
p5141
sba(i__main__
Node
p5142
(dp5143
g3
Nsg4
(lp5144
sg6
(lp5145
(iMAG
Car
p5146
(dp5147
g10
(lp5148
I5
aI5
asg12
g3542
sg14
(lp5149
sg16
g3544
sg18
(lp5150
I5
aI3
asg20
I3
sg21
g4986
sg23
I00
sba(iMAG
Car
p5151
(dp5152
g10
(lp5153
I0
aI4
asg12
g3550
sg14
(lp5154
sg16
g3544
sg18
(lp5155
I0
aI3
asg20
I2
sg21
g4763
sg23
I00
sba(iMAG
Car
p5156
(dp5157
g10
(lp5158
I1
aI4
asg12
g3557
sg14
(lp5159
sg16
g3544
sg18
(lp5160
I1
aI3
asg20
I2
sg21
g4711
sg23
I00
sba(iMAG
Car
p5161
(dp5162
g10
(lp5163
I2
aI2
asg12
g3564
sg14
(lp5164
sg16
g3544
sg18
(lp5165
I2
aI1
asg20
I2
sg21
g5058
sg23
I00
sba(iMAG
Car
p5166
(dp5167
g10
(lp5168
I3
aI3
asg12
g3571
sg14
(lp5169
sg16
g3544
sg18
(lp5170
I3
aI1
asg20
I3
sg21
g126
(g127
(S'S1'
p5171
I0
I1
tp5172
Rp5173
(I3
S'|'
p5174
NNNI1
I1
I0
tp5175
bg133
tp5176
Rp5177
sg23
I00
sba(iMAG
Car
p5178
(dp5179
g10
(lp5180
I1
aI5
asg12
g3578
sg14
(lp5181
sg16
g3544
sg18
(lp5182
I0
aI5
asg20
I2
sg21
g3985
sg23
I00
sba(iMAG
Car
p5183
(dp5184
g10
(lp5185
I1
aI2
asg12
g3585
sg14
(lp5186
sg16
g3544
sg18
(lp5187
I0
aI2
asg20
I2
sg21
g4845
sg23
I00
sba(iMAG
Car
p5188
(dp5189
g10
(lp5190
I2
aI0
asg12
g3592
sg14
(lp5191
sg16
g3544
sg18
(lp5192
I0
aI0
asg20
I3
sg21
g4109
sg23
I00
sba(iMAG
Car
p5193
(dp5194
g10
(lp5195
I3
aI4
asg12
g3599
sg14
(lp5196
sg16
g3544
sg18
(lp5197
I2
aI4
asg20
I2
sg21
g5140
sg23
I00
sbasg80
Nsg81
S'555...\n..47..\nRR47..>\n02.7.1\n0266.1\n33...1\n'
p5198
sba(i__main__
Node
p5199
(dp5200
g3
Nsg4
(lp5201
sg6
(lp5202
(iMAG
Car
p5203
(dp5204
g10
(lp5205
I5
aI5
asg12
g3542
sg14
(lp5206
sg16
g3544
sg18
(lp5207
I5
aI3
asg20
I3
sg21
g4986
sg23
I00
sba(iMAG
Car
p5208
(dp5209
g10
(lp5210
I0
aI4
asg12
g3550
sg14
(lp5211
sg16
g3544
sg18
(lp5212
I0
aI3
asg20
I2
sg21
g4763
sg23
I00
sba(iMAG
Car
p5213
(dp5214
g10
(lp5215
I1
aI4
asg12
g3557
sg14
(lp5216
sg16
g3544
sg18
(lp5217
I1
aI3
asg20
I2
sg21
g4711
sg23
I00
sba(iMAG
Car
p5218
(dp5219
g10
(lp5220
I2
aI2
asg12
g3564
sg14
(lp5221
sg16
g3544
sg18
(lp5222
I2
aI1
asg20
I2
sg21
g5058
sg23
I00
sba(iMAG
Car
p5223
(dp5224
g10
(lp5225
I3
aI2
asg12
g3571
sg14
(lp5226
sg16
g3544
sg18
(lp5227
I3
aI0
asg20
I3
sg21
g126
(g127
(S'S1'
p5228
I0
I1
tp5229
Rp5230
(I3
S'|'
p5231
NNNI1
I1
I0
tp5232
bg133
tp5233
Rp5234
sg23
I00
sba(iMAG
Car
p5235
(dp5236
g10
(lp5237
I1
aI5
asg12
g3578
sg14
(lp5238
sg16
g3544
sg18
(lp5239
I0
aI5
asg20
I2
sg21
g3985
sg23
I00
sba(iMAG
Car
p5240
(dp5241
g10
(lp5242
I1
aI2
asg12
g3585
sg14
(lp5243
sg16
g3544
sg18
(lp5244
I0
aI2
asg20
I2
sg21
g4845
sg23
I00
sba(iMAG
Car
p5245
(dp5246
g10
(lp5247
I2
aI0
asg12
g3592
sg14
(lp5248
sg16
g3544
sg18
(lp5249
I0
aI0
asg20
I3
sg21
g4109
sg23
I00
sba(iMAG
Car
p5250
(dp5251
g10
(lp5252
I3
aI4
asg12
g3599
sg14
(lp5253
sg16
g3544
sg18
(lp5254
I2
aI4
asg20
I2
sg21
g5140
sg23
I00
sbasg80
Nsg81
S'5557..\n..47..\nRR47..>\n02...1\n0266.1\n33...1\n'
p5255
sba(i__main__
Node
p5256
(dp5257
g3
Nsg4
(lp5258
sg6
(lp5259
(iMAG
Car
p5260
(dp5261
g10
(lp5262
I5
aI5
asg12
g3542
sg14
(lp5263
sg16
g3544
sg18
(lp5264
I5
aI3
asg20
I3
sg21
g4986
sg23
I00
sba(iMAG
Car
p5265
(dp5266
g10
(lp5267
I0
aI4
asg12
g3550
sg14
(lp5268
sg16
g3544
sg18
(lp5269
I0
aI3
asg20
I2
sg21
g4763
sg23
I00
sba(iMAG
Car
p5270
(dp5271
g10
(lp5272
I1
aI4
asg12
g3557
sg14
(lp5273
sg16
g3544
sg18
(lp5274
I1
aI3
asg20
I2
sg21
g4711
sg23
I00
sba(iMAG
Car
p5275
(dp5276
g10
(lp5277
I2
aI2
asg12
g3564
sg14
(lp5278
sg16
g3544
sg18
(lp5279
I2
aI1
asg20
I2
sg21
g5058
sg23
I00
sba(iMAG
Car
p5280
(dp5281
g10
(lp5282
I3
aI2
asg12
g3571
sg14
(lp5283
sg16
g3544
sg18
(lp5284
I3
aI0
asg20
I3
sg21
g5234
sg23
I00
sba(iMAG
Car
p5285
(dp5286
g10
(lp5287
I1
aI5
asg12
g3578
sg14
(lp5288
sg16
g3544
sg18
(lp5289
I0
aI5
asg20
I2
sg21
g3985
sg23
I00
sba(iMAG
Car
p5290
(dp5291
g10
(lp5292
I1
aI2
asg12
g3585
sg14
(lp5293
sg16
g3544
sg18
(lp5294
I0
aI2
asg20
I2
sg21
g4845
sg23
I00
sba(iMAG
Car
p5295
(dp5296
g10
(lp5297
I2
aI0
asg12
g3592
sg14
(lp5298
sg16
g3544
sg18
(lp5299
I0
aI0
asg20
I3
sg21
g4109
sg23
I00
sba(iMAG
Car
p5300
(dp5301
g10
(lp5302
I4
aI4
asg12
g3599
sg14
(lp5303
sg16
g3544
sg18
(lp5304
I3
aI4
asg20
I2
sg21
g126
(g127
(S'S1'
p5305
I0
I1
tp5306
Rp5307
(I3
S'|'
p5308
NNNI1
I1
I0
tp5309
bg312
tp5310
Rp5311
sg23
I00
sbasg80
Nsg81
S'5557..\n..47..\nRR47..>\n02...1\n02.661\n33...1\n'
p5312
sba(i__main__
Node
p5313
(dp5314
g3
Nsg4
(lp5315
sg6
(lp5316
(iMAG
Car
p5317
(dp5318
g10
(lp5319
I5
aI2
asg12
g3542
sg14
(lp5320
sg16
g3544
sg18
(lp5321
I5
aI0
asg20
I3
sg21
g126
(g127
(S'S1'
p5322
I0
I1
tp5323
Rp5324
(I3
S'|'
p5325
NNNI1
I1
I0
tp5326
bg502
tp5327
Rp5328
sg23
I00
sba(iMAG
Car
p5329
(dp5330
g10
(lp5331
I0
aI4
asg12
g3550
sg14
(lp5332
sg16
g3544
sg18
(lp5333
I0
aI3
asg20
I2
sg21
g4763
sg23
I00
sba(iMAG
Car
p5334
(dp5335
g10
(lp5336
I1
aI4
asg12
g3557
sg14
(lp5337
sg16
g3544
sg18
(lp5338
I1
aI3
asg20
I2
sg21
g4711
sg23
I00
sba(iMAG
Car
p5339
(dp5340
g10
(lp5341
I2
aI2
asg12
g3564
sg14
(lp5342
sg16
g3544
sg18
(lp5343
I2
aI1
asg20
I2
sg21
g5058
sg23
I00
sba(iMAG
Car
p5344
(dp5345
g10
(lp5346
I3
aI2
asg12
g3571
sg14
(lp5347
sg16
g3544
sg18
(lp5348
I3
aI0
asg20
I3
sg21
g5234
sg23
I00
sba(iMAG
Car
p5349
(dp5350
g10
(lp5351
I1
aI5
asg12
g3578
sg14
(lp5352
sg16
g3544
sg18
(lp5353
I0
aI5
asg20
I2
sg21
g3985
sg23
I00
sba(iMAG
Car
p5354
(dp5355
g10
(lp5356
I1
aI2
asg12
g3585
sg14
(lp5357
sg16
g3544
sg18
(lp5358
I0
aI2
asg20
I2
sg21
g4845
sg23
I00
sba(iMAG
Car
p5359
(dp5360
g10
(lp5361
I2
aI0
asg12
g3592
sg14
(lp5362
sg16
g3544
sg18
(lp5363
I0
aI0
asg20
I3
sg21
g4109
sg23
I00
sba(iMAG
Car
p5364
(dp5365
g10
(lp5366
I4
aI4
asg12
g3599
sg14
(lp5367
sg16
g3544
sg18
(lp5368
I3
aI4
asg20
I2
sg21
g5311
sg23
I00
sbasg80
Nsg81
S'5557.1\n..47.1\nRR47.1>\n02....\n02.66.\n33....\n'
p5369
sba(i__main__
Node
p5370
(dp5371
g3
Nsg4
(lp5372
sg6
(lp5373
(iMAG
Car
p5374
(dp5375
g10
(lp5376
I5
aI2
asg12
g3542
sg14
(lp5377
sg16
g3544
sg18
(lp5378
I5
aI0
asg20
I3
sg21
g5328
sg23
I00
sba(iMAG
Car
p5379
(dp5380
g10
(lp5381
I0
aI4
asg12
g3550
sg14
(lp5382
sg16
g3544
sg18
(lp5383
I0
aI3
asg20
I2
sg21
g4763
sg23
I00
sba(iMAG
Car
p5384
(dp5385
g10
(lp5386
I1
aI4
asg12
g3557
sg14
(lp5387
sg16
g3544
sg18
(lp5388
I1
aI3
asg20
I2
sg21
g4711
sg23
I00
sba(iMAG
Car
p5389
(dp5390
g10
(lp5391
I2
aI2
asg12
g3564
sg14
(lp5392
sg16
g3544
sg18
(lp5393
I2
aI1
asg20
I2
sg21
g5058
sg23
I00
sba(iMAG
Car
p5394
(dp5395
g10
(lp5396
I3
aI2
asg12
g3571
sg14
(lp5397
sg16
g3544
sg18
(lp5398
I3
aI0
asg20
I3
sg21
g5234
sg23
I00
sba(iMAG
Car
p5399
(dp5400
g10
(lp5401
I1
aI5
asg12
g3578
sg14
(lp5402
sg16
g3544
sg18
(lp5403
I0
aI5
asg20
I2
sg21
g3985
sg23
I00
sba(iMAG
Car
p5404
(dp5405
g10
(lp5406
I1
aI2
asg12
g3585
sg14
(lp5407
sg16
g3544
sg18
(lp5408
I0
aI2
asg20
I2
sg21
g4845
sg23
I00
sba(iMAG
Car
p5409
(dp5410
g10
(lp5411
I2
aI0
asg12
g3592
sg14
(lp5412
sg16
g3544
sg18
(lp5413
I0
aI0
asg20
I3
sg21
g4109
sg23
I00
sba(iMAG
Car
p5414
(dp5415
g10
(lp5416
I5
aI4
asg12
g3599
sg14
(lp5417
sg16
g3544
sg18
(lp5418
I4
aI4
asg20
I2
sg21
g126
(g127
(S'S1'
p5419
I0
I1
tp5420
Rp5421
(I3
S'|'
p5422
NNNI1
I1
I0
tp5423
bg312
tp5424
Rp5425
sg23
I00
sbasg80
Nsg81
S'5557.1\n..47.1\nRR47.1>\n02....\n02..66\n33....\n'
p5426
sba(i__main__
Node
p5427
(dp5428
g3
Nsg4
(lp5429
sg6
(lp5430
(iMAG
Car
p5431
(dp5432
g10
(lp5433
I5
aI2
asg12
g3542
sg14
(lp5434
sg16
g3544
sg18
(lp5435
I5
aI0
asg20
I3
sg21
g5328
sg23
I00
sba(iMAG
Car
p5436
(dp5437
g10
(lp5438
I0
aI4
asg12
g3550
sg14
(lp5439
sg16
g3544
sg18
(lp5440
I0
aI3
asg20
I2
sg21
g4763
sg23
I00
sba(iMAG
Car
p5441
(dp5442
g10
(lp5443
I1
aI4
asg12
g3557
sg14
(lp5444
sg16
g3544
sg18
(lp5445
I1
aI3
asg20
I2
sg21
g4711
sg23
I00
sba(iMAG
Car
p5446
(dp5447
g10
(lp5448
I2
aI2
asg12
g3564
sg14
(lp5449
sg16
g3544
sg18
(lp5450
I2
aI1
asg20
I2
sg21
g5058
sg23
I00
sba(iMAG
Car
p5451
(dp5452
g10
(lp5453
I3
aI2
asg12
g3571
sg14
(lp5454
sg16
g3544
sg18
(lp5455
I3
aI0
asg20
I3
sg21
g5234
sg23
I00
sba(iMAG
Car
p5456
(dp5457
g10
(lp5458
I5
aI5
asg12
g3578
sg14
(lp5459
sg16
g3544
sg18
(lp5460
I4
aI5
asg20
I2
sg21
g126
(g127
(S'S1'
p5461
I0
I1
tp5462
Rp5463
(I3
S'|'
p5464
NNNI1
I1
I0
tp5465
bg907
tp5466
Rp5467
sg23
I00
sba(iMAG
Car
p5468
(dp5469
g10
(lp5470
I1
aI2
asg12
g3585
sg14
(lp5471
sg16
g3544
sg18
(lp5472
I0
aI2
asg20
I2
sg21
g4845
sg23
I00
sba(iMAG
Car
p5473
(dp5474
g10
(lp5475
I2
aI0
asg12
g3592
sg14
(lp5476
sg16
g3544
sg18
(lp5477
I0
aI0
asg20
I3
sg21
g4109
sg23
I00
sba(iMAG
Car
p5478
(dp5479
g10
(lp5480
I5
aI4
asg12
g3599
sg14
(lp5481
sg16
g3544
sg18
(lp5482
I4
aI4
asg20
I2
sg21
g5425
sg23
I00
sbasg80
Nsg81
S'5557.1\n..47.1\nRR47.1>\n02....\n02..66\n....33\n'
p5483
sba(i__main__
Node
p5484
(dp5485
g3
Nsg4
(lp5486
sg6
(lp5487
(iMAG
Car
p5488
(dp5489
g10
(lp5490
I5
aI2
asg12
g3542
sg14
(lp5491
sg16
g3544
sg18
(lp5492
I5
aI0
asg20
I3
sg21
g5328
sg23
I00
sba(iMAG
Car
p5493
(dp5494
g10
(lp5495
I0
aI4
asg12
g3550
sg14
(lp5496
sg16
g3544
sg18
(lp5497
I0
aI3
asg20
I2
sg21
g4763
sg23
I00
sba(iMAG
Car
p5498
(dp5499
g10
(lp5500
I1
aI5
asg12
g3557
sg14
(lp5501
sg16
g3544
sg18
(lp5502
I1
aI4
asg20
I2
sg21
g126
(g127
(S'S1'
p5503
I0
I1
tp5504
Rp5505
(I3
S'|'
p5506
NNNI1
I1
I0
tp5507
bg340
tp5508
Rp5509
sg23
I00
sba(iMAG
Car
p5510
(dp5511
g10
(lp5512
I2
aI2
asg12
g3564
sg14
(lp5513
sg16
g3544
sg18
(lp5514
I2
aI1
asg20
I2
sg21
g5058
sg23
I00
sba(iMAG
Car
p5515
(dp5516
g10
(lp5517
I3
aI2
asg12
g3571
sg14
(lp5518
sg16
g3544
sg18
(lp5519
I3
aI0
asg20
I3
sg21
g5234
sg23
I00
sba(iMAG
Car
p5520
(dp5521
g10
(lp5522
I5
aI5
asg12
g3578
sg14
(lp5523
sg16
g3544
sg18
(lp5524
I4
aI5
asg20
I2
sg21
g5467
sg23
I00
sba(iMAG
Car
p5525
(dp5526
g10
(lp5527
I1
aI2
asg12
g3585
sg14
(lp5528
sg16
g3544
sg18
(lp5529
I0
aI2
asg20
I2
sg21
g4845
sg23
I00
sba(iMAG
Car
p5530
(dp5531
g10
(lp5532
I2
aI0
asg12
g3592
sg14
(lp5533
sg16
g3544
sg18
(lp5534
I0
aI0
asg20
I3
sg21
g4109
sg23
I00
sba(iMAG
Car
p5535
(dp5536
g10
(lp5537
I5
aI4
asg12
g3599
sg14
(lp5538
sg16
g3544
sg18
(lp5539
I4
aI4
asg20
I2
sg21
g5425
sg23
I00
sbasg80
Nsg81
S'5557.1\n..47.1\nRR47.1>\n0.....\n02..66\n.2..33\n'
p5540
sba(i__main__
Node
p5541
(dp5542
g3
Nsg4
(lp5543
sg6
(lp5544
(iMAG
Car
p5545
(dp5546
g10
(lp5547
I5
aI2
asg12
g3542
sg14
(lp5548
sg16
g3544
sg18
(lp5549
I5
aI0
asg20
I3
sg21
g5328
sg23
I00
sba(iMAG
Car
p5550
(dp5551
g10
(lp5552
I0
aI5
asg12
g3550
sg14
(lp5553
sg16
g3544
sg18
(lp5554
I0
aI4
asg20
I2
sg21
g126
(g127
(S'S1'
p5555
I0
I1
tp5556
Rp5557
(I3
S'|'
p5558
NNNI1
I1
I0
tp5559
bg176
tp5560
Rp5561
sg23
I00
sba(iMAG
Car
p5562
(dp5563
g10
(lp5564
I1
aI5
asg12
g3557
sg14
(lp5565
sg16
g3544
sg18
(lp5566
I1
aI4
asg20
I2
sg21
g5509
sg23
I00
sba(iMAG
Car
p5567
(dp5568
g10
(lp5569
I2
aI2
asg12
g3564
sg14
(lp5570
sg16
g3544
sg18
(lp5571
I2
aI1
asg20
I2
sg21
g5058
sg23
I00
sba(iMAG
Car
p5572
(dp5573
g10
(lp5574
I3
aI2
asg12
g3571
sg14
(lp5575
sg16
g3544
sg18
(lp5576
I3
aI0
asg20
I3
sg21
g5234
sg23
I00
sba(iMAG
Car
p5577
(dp5578
g10
(lp5579
I5
aI5
asg12
g3578
sg14
(lp5580
sg16
g3544
sg18
(lp5581
I4
aI5
asg20
I2
sg21
g5467
sg23
I00
sba(iMAG
Car
p5582
(dp5583
g10
(lp5584
I1
aI2
asg12
g3585
sg14
(lp5585
sg16
g3544
sg18
(lp5586
I0
aI2
asg20
I2
sg21
g4845
sg23
I00
sba(iMAG
Car
p5587
(dp5588
g10
(lp5589
I2
aI0
asg12
g3592
sg14
(lp5590
sg16
g3544
sg18
(lp5591
I0
aI0
asg20
I3
sg21
g4109
sg23
I00
sba(iMAG
Car
p5592
(dp5593
g10
(lp5594
I5
aI4
asg12
g3599
sg14
(lp5595
sg16
g3544
sg18
(lp5596
I4
aI4
asg20
I2
sg21
g5425
sg23
I00
sbasg80
Nsg81
S'5557.1\n..47.1\nRR47.1>\n......\n02..66\n02..33\n'
p5597
sba(i__main__
Node
p5598
(dp5599
g3
Nsg4
(lp5600
sg6
(lp5601
(iMAG
Car
p5602
(dp5603
g10
(lp5604
I5
aI2
asg12
g3542
sg14
(lp5605
sg16
g3544
sg18
(lp5606
I5
aI0
asg20
I3
sg21
g5328
sg23
I00
sba(iMAG
Car
p5607
(dp5608
g10
(lp5609
I0
aI5
asg12
g3550
sg14
(lp5610
sg16
g3544
sg18
(lp5611
I0
aI4
asg20
I2
sg21
g5561
sg23
I00
sba(iMAG
Car
p5612
(dp5613
g10
(lp5614
I1
aI5
asg12
g3557
sg14
(lp5615
sg16
g3544
sg18
(lp5616
I1
aI4
asg20
I2
sg21
g5509
sg23
I00
sba(iMAG
Car
p5617
(dp5618
g10
(lp5619
I2
aI5
asg12
g3564
sg14
(lp5620
sg16
g3544
sg18
(lp5621
I2
aI4
asg20
I2
sg21
g126
(g127
(S'S1'
p5622
I0
I1
tp5623
Rp5624
(I3
S'|'
p5625
NNNI1
I1
I0
tp5626
bg1457
tp5627
Rp5628
sg23
I00
sba(iMAG
Car
p5629
(dp5630
g10
(lp5631
I3
aI2
asg12
g3571
sg14
(lp5632
sg16
g3544
sg18
(lp5633
I3
aI0
asg20
I3
sg21
g5234
sg23
I00
sba(iMAG
Car
p5634
(dp5635
g10
(lp5636
I5
aI5
asg12
g3578
sg14
(lp5637
sg16
g3544
sg18
(lp5638
I4
aI5
asg20
I2
sg21
g5467
sg23
I00
sba(iMAG
Car
p5639
(dp5640
g10
(lp5641
I1
aI2
asg12
g3585
sg14
(lp5642
sg16
g3544
sg18
(lp5643
I0
aI2
asg20
I2
sg21
g4845
sg23
I00
sba(iMAG
Car
p5644
(dp5645
g10
(lp5646
I2
aI0
asg12
g3592
sg14
(lp5647
sg16
g3544
sg18
(lp5648
I0
aI0
asg20
I3
sg21
g4109
sg23
I00
sba(iMAG
Car
p5649
(dp5650
g10
(lp5651
I5
aI4
asg12
g3599
sg14
(lp5652
sg16
g3544
sg18
(lp5653
I4
aI4
asg20
I2
sg21
g5425
sg23
I00
sbasg80
Nsg81
S'5557.1\n...7.1\nRR.7.1>\n......\n024.66\n024.33\n'
p5654
sba(i__main__
Node
p5655
(dp5656
g3
Nsg4
(lp5657
sg6
(lp5658
(iMAG
Car
p5659
(dp5660
g10
(lp5661
I5
aI2
asg12
g3542
sg14
(lp5662
sg16
g3544
sg18
(lp5663
I5
aI0
asg20
I3
sg21
g5328
sg23
I00
sba(iMAG
Car
p5664
(dp5665
g10
(lp5666
I0
aI5
asg12
g3550
sg14
(lp5667
sg16
g3544
sg18
(lp5668
I0
aI4
asg20
I2
sg21
g5561
sg23
I00
sba(iMAG
Car
p5669
(dp5670
g10
(lp5671
I1
aI5
asg12
g3557
sg14
(lp5672
sg16
g3544
sg18
(lp5673
I1
aI4
asg20
I2
sg21
g5509
sg23
I00
sba(iMAG
Car
p5674
(dp5675
g10
(lp5676
I2
aI5
asg12
g3564
sg14
(lp5677
sg16
g3544
sg18
(lp5678
I2
aI4
asg20
I2
sg21
g5628
sg23
I00
sba(iMAG
Car
p5679
(dp5680
g10
(lp5681
I3
aI5
asg12
g3571
sg14
(lp5682
sg16
g3544
sg18
(lp5683
I3
aI3
asg20
I3
sg21
g126
(g127
(S'S1'
p5684
I0
I1
tp5685
Rp5686
(I3
S'|'
p5687
NNNI1
I1
I0
tp5688
bg133
tp5689
Rp5690
sg23
I00
sba(iMAG
Car
p5691
(dp5692
g10
(lp5693
I5
aI5
asg12
g3578
sg14
(lp5694
sg16
g3544
sg18
(lp5695
I4
aI5
asg20
I2
sg21
g5467
sg23
I00
sba(iMAG
Car
p5696
(dp5697
g10
(lp5698
I1
aI2
asg12
g3585
sg14
(lp5699
sg16
g3544
sg18
(lp5700
I0
aI2
asg20
I2
sg21
g4845
sg23
I00
sba(iMAG
Car
p5701
(dp5702
g10
(lp5703
I2
aI0
asg12
g3592
sg14
(lp5704
sg16
g3544
sg18
(lp5705
I0
aI0
asg20
I3
sg21
g4109
sg23
I00
sba(iMAG
Car
p5706
(dp5707
g10
(lp5708
I5
aI4
asg12
g3599
sg14
(lp5709
sg16
g3544
sg18
(lp5710
I4
aI4
asg20
I2
sg21
g5425
sg23
I00
sbasg80
Nsg81
S'555..1\n.....1\nRR...1>\n...7..\n024766\n024733\n'
p5711
sba(i__main__
Node
p5712
(dp5713
g3
Nsg4
(lp5714
sg6
(lp5715
(iMAG
Car
p5716
(dp5717
g10
(lp5718
I5
aI2
asg12
g3542
sg14
(lp5719
sg16
g3544
sg18
(lp5720
I5
aI0
asg20
I3
sg21
g5328
sg23
I00
sba(iMAG
Car
p5721
(dp5722
g10
(lp5723
I0
aI5
asg12
g3550
sg14
(lp5724
sg16
g3544
sg18
(lp5725
I0
aI4
asg20
I2
sg21
g5561
sg23
I00
sba(iMAG
Car
p5726
(dp5727
g10
(lp5728
I1
aI5
asg12
g3557
sg14
(lp5729
sg16
g3544
sg18
(lp5730
I1
aI4
asg20
I2
sg21
g5509
sg23
I00
sba(iMAG
Car
p5731
(dp5732
g10
(lp5733
I2
aI5
asg12
g3564
sg14
(lp5734
sg16
g3544
sg18
(lp5735
I2
aI4
asg20
I2
sg21
g5628
sg23
I00
sba(iMAG
Car
p5736
(dp5737
g10
(lp5738
I3
aI5
asg12
g3571
sg14
(lp5739
sg16
g3544
sg18
(lp5740
I3
aI3
asg20
I3
sg21
g5690
sg23
I00
sba(iMAG
Car
p5741
(dp5742
g10
(lp5743
I5
aI5
asg12
g3578
sg14
(lp5744
sg16
g3544
sg18
(lp5745
I4
aI5
asg20
I2
sg21
g5467
sg23
I00
sba(iMAG
Car
p5746
(dp5747
g10
(lp5748
I4
aI2
asg12
g3585
sg14
(lp5749
sg16
g3544
sg18
(lp5750
I3
aI2
asg20
I2
sg21
g126
(g127
(S'S1'
p5751
I0
I1
tp5752
Rp5753
(I3
S'|'
p5754
NNNI1
I1
I0
tp5755
bg1624
tp5756
Rp5757
sg23
I00
sba(iMAG
Car
p5758
(dp5759
g10
(lp5760
I2
aI0
asg12
g3592
sg14
(lp5761
sg16
g3544
sg18
(lp5762
I0
aI0
asg20
I3
sg21
g4109
sg23
I00
sba(iMAG
Car
p5763
(dp5764
g10
(lp5765
I5
aI4
asg12
g3599
sg14
(lp5766
sg16
g3544
sg18
(lp5767
I4
aI4
asg20
I2
sg21
g5425
sg23
I00
sbasg80
Nsg81
S'555..1\n.....1\n...RR1>\n...7..\n024766\n024733\n'
p5768
sba(i__main__
Node
p5769
(dp5770
g3
Nsg4
(lp5771
sg6
(lp5772
(iMAG
Car
p5773
(dp5774
g10
(lp5775
I5
aI2
asg12
g3542
sg14
(lp5776
sg16
g3544
sg18
(lp5777
I5
aI0
asg20
I3
sg21
g5328
sg23
I00
sba(iMAG
Car
p5778
(dp5779
g10
(lp5780
I0
aI2
asg12
g3550
sg14
(lp5781
sg16
g3544
sg18
(lp5782
I0
aI1
asg20
I2
sg21
g126
(g127
(S'S1'
p5783
I0
I1
tp5784
Rp5785
(I3
S'|'
p5786
NNNI1
I1
I0
tp5787
bg176
tp5788
Rp5789
sg23
I00
sba(iMAG
Car
p5790
(dp5791
g10
(lp5792
I1
aI5
asg12
g3557
sg14
(lp5793
sg16
g3544
sg18
(lp5794
I1
aI4
asg20
I2
sg21
g5509
sg23
I00
sba(iMAG
Car
p5795
(dp5796
g10
(lp5797
I2
aI5
asg12
g3564
sg14
(lp5798
sg16
g3544
sg18
(lp5799
I2
aI4
asg20
I2
sg21
g5628
sg23
I00
sba(iMAG
Car
p5800
(dp5801
g10
(lp5802
I3
aI5
asg12
g3571
sg14
(lp5803
sg16
g3544
sg18
(lp5804
I3
aI3
asg20
I3
sg21
g5690
sg23
I00
sba(iMAG
Car
p5805
(dp5806
g10
(lp5807
I5
aI5
asg12
g3578
sg14
(lp5808
sg16
g3544
sg18
(lp5809
I4
aI5
asg20
I2
sg21
g5467
sg23
I00
sba(iMAG
Car
p5810
(dp5811
g10
(lp5812
I4
aI2
asg12
g3585
sg14
(lp5813
sg16
g3544
sg18
(lp5814
I3
aI2
asg20
I2
sg21
g5757
sg23
I00
sba(iMAG
Car
p5815
(dp5816
g10
(lp5817
I2
aI0
asg12
g3592
sg14
(lp5818
sg16
g3544
sg18
(lp5819
I0
aI0
asg20
I3
sg21
g4109
sg23
I00
sba(iMAG
Car
p5820
(dp5821
g10
(lp5822
I5
aI4
asg12
g3599
sg14
(lp5823
sg16
g3544
sg18
(lp5824
I4
aI4
asg20
I2
sg21
g5425
sg23
I00
sbasg80
Nsg81
S'555..1\n0....1\n0..RR1>\n...7..\n.24766\n.24733\n'
p5825
sba(i__main__
Node
p5826
(dp5827
g3
Nsg4
(lp5828
sg6
(lp5829
(iMAG
Car
p5830
(dp5831
g10
(lp5832
I5
aI2
asg12
g3542
sg14
(lp5833
sg16
g3544
sg18
(lp5834
I5
aI0
asg20
I3
sg21
g5328
sg23
I00
sba(iMAG
Car
p5835
(dp5836
g10
(lp5837
I0
aI2
asg12
g3550
sg14
(lp5838
sg16
g3544
sg18
(lp5839
I0
aI1
asg20
I2
sg21
g5789
sg23
I00
sba(iMAG
Car
p5840
(dp5841
g10
(lp5842
I1
aI2
asg12
g3557
sg14
(lp5843
sg16
g3544
sg18
(lp5844
I1
aI1
asg20
I2
sg21
g126
(g127
(S'S1'
p5845
I0
I1
tp5846
Rp5847
(I3
S'|'
p5848
NNNI1
I1
I0
tp5849
bg340
tp5850
Rp5851
sg23
I00
sba(iMAG
Car
p5852
(dp5853
g10
(lp5854
I2
aI5
asg12
g3564
sg14
(lp5855
sg16
g3544
sg18
(lp5856
I2
aI4
asg20
I2
sg21
g5628
sg23
I00
sba(iMAG
Car
p5857
(dp5858
g10
(lp5859
I3
aI5
asg12
g3571
sg14
(lp5860
sg16
g3544
sg18
(lp5861
I3
aI3
asg20
I3
sg21
g5690
sg23
I00
sba(iMAG
Car
p5862
(dp5863
g10
(lp5864
I5
aI5
asg12
g3578
sg14
(lp5865
sg16
g3544
sg18
(lp5866
I4
aI5
asg20
I2
sg21
g5467
sg23
I00
sba(iMAG
Car
p5867
(dp5868
g10
(lp5869
I4
aI2
asg12
g3585
sg14
(lp5870
sg16
g3544
sg18
(lp5871
I3
aI2
asg20
I2
sg21
g5757
sg23
I00
sba(iMAG
Car
p5872
(dp5873
g10
(lp5874
I2
aI0
asg12
g3592
sg14
(lp5875
sg16
g3544
sg18
(lp5876
I0
aI0
asg20
I3
sg21
g4109
sg23
I00
sba(iMAG
Car
p5877
(dp5878
g10
(lp5879
I5
aI4
asg12
g3599
sg14
(lp5880
sg16
g3544
sg18
(lp5881
I4
aI4
asg20
I2
sg21
g5425
sg23
I00
sbasg80
Nsg81
S'555..1\n02...1\n02.RR1>\n...7..\n..4766\n..4733\n'
p5882
sba(i__main__
Node
p5883
(dp5884
g3
Nsg4
(lp5885
sg6
(lp5886
(iMAG
Car
p5887
(dp5888
g10
(lp5889
I5
aI2
asg12
g3542
sg14
(lp5890
sg16
g3544
sg18
(lp5891
I5
aI0
asg20
I3
sg21
g5328
sg23
I00
sba(iMAG
Car
p5892
(dp5893
g10
(lp5894
I0
aI2
asg12
g3550
sg14
(lp5895
sg16
g3544
sg18
(lp5896
I0
aI1
asg20
I2
sg21
g5789
sg23
I00
sba(iMAG
Car
p5897
(dp5898
g10
(lp5899
I1
aI2
asg12
g3557
sg14
(lp5900
sg16
g3544
sg18
(lp5901
I1
aI1
asg20
I2
sg21
g5851
sg23
I00
sba(iMAG
Car
p5902
(dp5903
g10
(lp5904
I2
aI2
asg12
g3564
sg14
(lp5905
sg16
g3544
sg18
(lp5906
I2
aI1
asg20
I2
sg21
g126
(g127
(S'S1'
p5907
I0
I1
tp5908
Rp5909
(I3
S'|'
p5910
NNNI1
I1
I0
tp5911
bg1457
tp5912
Rp5913
sg23
I00
sba(iMAG
Car
p5914
(dp5915
g10
(lp5916
I3
aI5
asg12
g3571
sg14
(lp5917
sg16
g3544
sg18
(lp5918
I3
aI3
asg20
I3
sg21
g5690
sg23
I00
sba(iMAG
Car
p5919
(dp5920
g10
(lp5921
I5
aI5
asg12
g3578
sg14
(lp5922
sg16
g3544
sg18
(lp5923
I4
aI5
asg20
I2
sg21
g5467
sg23
I00
sba(iMAG
Car
p5924
(dp5925
g10
(lp5926
I4
aI2
asg12
g3585
sg14
(lp5927
sg16
g3544
sg18
(lp5928
I3
aI2
asg20
I2
sg21
g5757
sg23
I00
sba(iMAG
Car
p5929
(dp5930
g10
(lp5931
I2
aI0
asg12
g3592
sg14
(lp5932
sg16
g3544
sg18
(lp5933
I0
aI0
asg20
I3
sg21
g4109
sg23
I00
sba(iMAG
Car
p5934
(dp5935
g10
(lp5936
I5
aI4
asg12
g3599
sg14
(lp5937
sg16
g3544
sg18
(lp5938
I4
aI4
asg20
I2
sg21
g5425
sg23
I00
sbasg80
Nsg81
S'555..1\n024..1\n024RR1>\n...7..\n...766\n...733\n'
p5939
sba(i__main__
Node
p5940
(dp5941
g3
Nsg4
(lp5942
sg6
(lp5943
(iMAG
Car
p5944
(dp5945
g10
(lp5946
I5
aI2
asg12
g3542
sg14
(lp5947
sg16
g3544
sg18
(lp5948
I5
aI0
asg20
I3
sg21
g5328
sg23
I00
sba(iMAG
Car
p5949
(dp5950
g10
(lp5951
I0
aI2
asg12
g3550
sg14
(lp5952
sg16
g3544
sg18
(lp5953
I0
aI1
asg20
I2
sg21
g5789
sg23
I00
sba(iMAG
Car
p5954
(dp5955
g10
(lp5956
I1
aI2
asg12
g3557
sg14
(lp5957
sg16
g3544
sg18
(lp5958
I1
aI1
asg20
I2
sg21
g5851
sg23
I00
sba(iMAG
Car
p5959
(dp5960
g10
(lp5961
I2
aI5
asg12
g3564
sg14
(lp5962
sg16
g3544
sg18
(lp5963
I2
aI4
asg20
I2
sg21
g126
(g127
(S'S1'
p5964
I0
I1
tp5965
Rp5966
(I3
S'|'
p5967
NNNI1
I1
I0
tp5968
bg1457
tp5969
Rp5970
sg23
I00
sba(iMAG
Car
p5971
(dp5972
g10
(lp5973
I3
aI5
asg12
g3571
sg14
(lp5974
sg16
g3544
sg18
(lp5975
I3
aI3
asg20
I3
sg21
g5690
sg23
I00
sba(iMAG
Car
p5976
(dp5977
g10
(lp5978
I5
aI5
asg12
g3578
sg14
(lp5979
sg16
g3544
sg18
(lp5980
I4
aI5
asg20
I2
sg21
g5467
sg23
I00
sba(iMAG
Car
p5981
(dp5982
g10
(lp5983
I4
aI2
asg12
g3585
sg14
(lp5984
sg16
g3544
sg18
(lp5985
I3
aI2
asg20
I2
sg21
g5757
sg23
I00
sba(iMAG
Car
p5986
(dp5987
g10
(lp5988
I2
aI0
asg12
g3592
sg14
(lp5989
sg16
g3544
sg18
(lp5990
I0
aI0
asg20
I3
sg21
g4109
sg23
I00
sba(iMAG
Car
p5991
(dp5992
g10
(lp5993
I5
aI4
asg12
g3599
sg14
(lp5994
sg16
g3544
sg18
(lp5995
I4
aI4
asg20
I2
sg21
g5425
sg23
I00
sbasg80
Nsg81
S'555..1\n02...1\n02.RR1>\n...7..\n..4766\n..4733\n'
p5996
sba(i__main__
Node
p5997
(dp5998
g3
Nsg4
(lp5999
sg6
(lp6000
(iMAG
Car
p6001
(dp6002
g10
(lp6003
I5
aI2
asg12
g3542
sg14
(lp6004
sg16
g3544
sg18
(lp6005
I5
aI0
asg20
I3
sg21
g5328
sg23
I00
sba(iMAG
Car
p6006
(dp6007
g10
(lp6008
I0
aI2
asg12
g3550
sg14
(lp6009
sg16
g3544
sg18
(lp6010
I0
aI1
asg20
I2
sg21
g5789
sg23
I00
sba(iMAG
Car
p6011
(dp6012
g10
(lp6013
I1
aI2
asg12
g3557
sg14
(lp6014
sg16
g3544
sg18
(lp6015
I1
aI1
asg20
I2
sg21
g5851
sg23
I00
sba(iMAG
Car
p6016
(dp6017
g10
(lp6018
I2
aI5
asg12
g3564
sg14
(lp6019
sg16
g3544
sg18
(lp6020
I2
aI4
asg20
I2
sg21
g5970
sg23
I00
sba(iMAG
Car
p6021
(dp6022
g10
(lp6023
I3
aI5
asg12
g3571
sg14
(lp6024
sg16
g3544
sg18
(lp6025
I3
aI3
asg20
I3
sg21
g5690
sg23
I00
sba(iMAG
Car
p6026
(dp6027
g10
(lp6028
I5
aI5
asg12
g3578
sg14
(lp6029
sg16
g3544
sg18
(lp6030
I4
aI5
asg20
I2
sg21
g5467
sg23
I00
sba(iMAG
Car
p6031
(dp6032
g10
(lp6033
I3
aI2
asg12
g3585
sg14
(lp6034
sg16
g3544
sg18
(lp6035
I2
aI2
asg20
I2
sg21
g126
(g127
(S'S1'
p6036
I0
I1
tp6037
Rp6038
(I3
S'|'
p6039
NNNI1
I1
I0
tp6040
bg1624
tp6041
Rp6042
sg23
I00
sba(iMAG
Car
p6043
(dp6044
g10
(lp6045
I2
aI0
asg12
g3592
sg14
(lp6046
sg16
g3544
sg18
(lp6047
I0
aI0
asg20
I3
sg21
g4109
sg23
I00
sba(iMAG
Car
p6048
(dp6049
g10
(lp6050
I5
aI4
asg12
g3599
sg14
(lp6051
sg16
g3544
sg18
(lp6052
I4
aI4
asg20
I2
sg21
g5425
sg23
I00
sbasg80
Nsg81
S'555..1\n02...1\n02RR.1>\n...7..\n..4766\n..4733\n'
p6053
sba(i__main__
Node
p6054
(dp6055
g3
Nsg4
(lp6056
sg6
(lp6057
(iMAG
Car
p6058
(dp6059
g10
(lp6060
I5
aI2
asg12
g3542
sg14
(lp6061
sg16
g3544
sg18
(lp6062
I5
aI0
asg20
I3
sg21
g5328
sg23
I00
sba(iMAG
Car
p6063
(dp6064
g10
(lp6065
I0
aI2
asg12
g3550
sg14
(lp6066
sg16
g3544
sg18
(lp6067
I0
aI1
asg20
I2
sg21
g5789
sg23
I00
sba(iMAG
Car
p6068
(dp6069
g10
(lp6070
I1
aI2
asg12
g3557
sg14
(lp6071
sg16
g3544
sg18
(lp6072
I1
aI1
asg20
I2
sg21
g5851
sg23
I00
sba(iMAG
Car
p6073
(dp6074
g10
(lp6075
I2
aI5
asg12
g3564
sg14
(lp6076
sg16
g3544
sg18
(lp6077
I2
aI4
asg20
I2
sg21
g5970
sg23
I00
sba(iMAG
Car
p6078
(dp6079
g10
(lp6080
I3
aI5
asg12
g3571
sg14
(lp6081
sg16
g3544
sg18
(lp6082
I3
aI3
asg20
I3
sg21
g5690
sg23
I00
sba(iMAG
Car
p6083
(dp6084
g10
(lp6085
I5
aI5
asg12
g3578
sg14
(lp6086
sg16
g3544
sg18
(lp6087
I4
aI5
asg20
I2
sg21
g5467
sg23
I00
sba(iMAG
Car
p6088
(dp6089
g10
(lp6090
I4
aI2
asg12
g3585
sg14
(lp6091
sg16
g3544
sg18
(lp6092
I3
aI2
asg20
I2
sg21
g126
(g127
(S'S1'
p6093
I0
I1
tp6094
Rp6095
(I3
S'|'
p6096
NNNI1
I1
I0
tp6097
bg1624
tp6098
Rp6099
sg23
I00
sba(iMAG
Car
p6100
(dp6101
g10
(lp6102
I2
aI0
asg12
g3592
sg14
(lp6103
sg16
g3544
sg18
(lp6104
I0
aI0
asg20
I3
sg21
g4109
sg23
I00
sba(iMAG
Car
p6105
(dp6106
g10
(lp6107
I5
aI4
asg12
g3599
sg14
(lp6108
sg16
g3544
sg18
(lp6109
I4
aI4
asg20
I2
sg21
g5425
sg23
I00
sbasg80
Nsg81
S'555..1\n02...1\n02.RR1>\n...7..\n..4766\n..4733\n'
p6110
sba(i__main__
Node
p6111
(dp6112
g3
Nsg4
(lp6113
sg6
(lp6114
(iMAG
Car
p6115
(dp6116
g10
(lp6117
I5
aI2
asg12
g3542
sg14
(lp6118
sg16
g3544
sg18
(lp6119
I5
aI0
asg20
I3
sg21
g5328
sg23
I00
sba(iMAG
Car
p6120
(dp6121
g10
(lp6122
I0
aI2
asg12
g3550
sg14
(lp6123
sg16
g3544
sg18
(lp6124
I0
aI1
asg20
I2
sg21
g5789
sg23
I00
sba(iMAG
Car
p6125
(dp6126
g10
(lp6127
I1
aI2
asg12
g3557
sg14
(lp6128
sg16
g3544
sg18
(lp6129
I1
aI1
asg20
I2
sg21
g5851
sg23
I00
sba(iMAG
Car
p6130
(dp6131
g10
(lp6132
I2
aI2
asg12
g3564
sg14
(lp6133
sg16
g3544
sg18
(lp6134
I2
aI1
asg20
I2
sg21
g126
(g127
(S'S1'
p6135
I0
I1
tp6136
Rp6137
(I3
S'|'
p6138
NNNI1
I1
I0
tp6139
bg1457
tp6140
Rp6141
sg23
I00
sba(iMAG
Car
p6142
(dp6143
g10
(lp6144
I3
aI5
asg12
g3571
sg14
(lp6145
sg16
g3544
sg18
(lp6146
I3
aI3
asg20
I3
sg21
g5690
sg23
I00
sba(iMAG
Car
p6147
(dp6148
g10
(lp6149
I5
aI5
asg12
g3578
sg14
(lp6150
sg16
g3544
sg18
(lp6151
I4
aI5
asg20
I2
sg21
g5467
sg23
I00
sba(iMAG
Car
p6152
(dp6153
g10
(lp6154
I4
aI2
asg12
g3585
sg14
(lp6155
sg16
g3544
sg18
(lp6156
I3
aI2
asg20
I2
sg21
g6099
sg23
I00
sba(iMAG
Car
p6157
(dp6158
g10
(lp6159
I2
aI0
asg12
g3592
sg14
(lp6160
sg16
g3544
sg18
(lp6161
I0
aI0
asg20
I3
sg21
g4109
sg23
I00
sba(iMAG
Car
p6162
(dp6163
g10
(lp6164
I5
aI4
asg12
g3599
sg14
(lp6165
sg16
g3544
sg18
(lp6166
I4
aI4
asg20
I2
sg21
g5425
sg23
I00
sbasg80
Nsg81
S'555..1\n024..1\n024RR1>\n...7..\n...766\n...733\n'
p6167
sba(i__main__
Node
p6168
(dp6169
g3
Nsg4
(lp6170
sg6
(lp6171
(iMAG
Car
p6172
(dp6173
g10
(lp6174
I5
aI2
asg12
g3542
sg14
(lp6175
sg16
g3544
sg18
(lp6176
I5
aI0
asg20
I3
sg21
g5328
sg23
I00
sba(iMAG
Car
p6177
(dp6178
g10
(lp6179
I0
aI2
asg12
g3550
sg14
(lp6180
sg16
g3544
sg18
(lp6181
I0
aI1
asg20
I2
sg21
g5789
sg23
I00
sba(iMAG
Car
p6182
(dp6183
g10
(lp6184
I1
aI2
asg12
g3557
sg14
(lp6185
sg16
g3544
sg18
(lp6186
I1
aI1
asg20
I2
sg21
g5851
sg23
I00
sba(iMAG
Car
p6187
(dp6188
g10
(lp6189
I2
aI5
asg12
g3564
sg14
(lp6190
sg16
g3544
sg18
(lp6191
I2
aI4
asg20
I2
sg21
g126
(g127
(S'S1'
p6192
I0
I1
tp6193
Rp6194
(I3
S'|'
p6195
NNNI1
I1
I0
tp6196
bg1457
tp6197
Rp6198
sg23
I00
sba(iMAG
Car
p6199
(dp6200
g10
(lp6201
I3
aI5
asg12
g3571
sg14
(lp6202
sg16
g3544
sg18
(lp6203
I3
aI3
asg20
I3
sg21
g5690
sg23
I00
sba(iMAG
Car
p6204
(dp6205
g10
(lp6206
I5
aI5
asg12
g3578
sg14
(lp6207
sg16
g3544
sg18
(lp6208
I4
aI5
asg20
I2
sg21
g5467
sg23
I00
sba(iMAG
Car
p6209
(dp6210
g10
(lp6211
I4
aI2
asg12
g3585
sg14
(lp6212
sg16
g3544
sg18
(lp6213
I3
aI2
asg20
I2
sg21
g6099
sg23
I00
sba(iMAG
Car
p6214
(dp6215
g10
(lp6216
I2
aI0
asg12
g3592
sg14
(lp6217
sg16
g3544
sg18
(lp6218
I0
aI0
asg20
I3
sg21
g4109
sg23
I00
sba(iMAG
Car
p6219
(dp6220
g10
(lp6221
I5
aI4
asg12
g3599
sg14
(lp6222
sg16
g3544
sg18
(lp6223
I4
aI4
asg20
I2
sg21
g5425
sg23
I00
sbasg80
Nsg81
S'555..1\n02...1\n02.RR1>\n...7..\n..4766\n..4733\n'
p6224
sba(i__main__
Node
p6225
(dp6226
g3
Nsg4
(lp6227
sg6
(lp6228
(iMAG
Car
p6229
(dp6230
g10
(lp6231
I5
aI2
asg12
g3542
sg14
(lp6232
sg16
g3544
sg18
(lp6233
I5
aI0
asg20
I3
sg21
g5328
sg23
I00
sba(iMAG
Car
p6234
(dp6235
g10
(lp6236
I0
aI2
asg12
g3550
sg14
(lp6237
sg16
g3544
sg18
(lp6238
I0
aI1
asg20
I2
sg21
g5789
sg23
I00
sba(iMAG
Car
p6239
(dp6240
g10
(lp6241
I1
aI2
asg12
g3557
sg14
(lp6242
sg16
g3544
sg18
(lp6243
I1
aI1
asg20
I2
sg21
g5851
sg23
I00
sba(iMAG
Car
p6244
(dp6245
g10
(lp6246
I2
aI5
asg12
g3564
sg14
(lp6247
sg16
g3544
sg18
(lp6248
I2
aI4
asg20
I2
sg21
g6198
sg23
I00
sba(iMAG
Car
p6249
(dp6250
g10
(lp6251
I3
aI5
asg12
g3571
sg14
(lp6252
sg16
g3544
sg18
(lp6253
I3
aI3
asg20
I3
sg21
g5690
sg23
I00
sba(iMAG
Car
p6254
(dp6255
g10
(lp6256
I5
aI5
asg12
g3578
sg14
(lp6257
sg16
g3544
sg18
(lp6258
I4
aI5
asg20
I2
sg21
g5467
sg23
I00
sba(iMAG
Car
p6259
(dp6260
g10
(lp6261
I4
aI2
asg12
g3585
sg14
(lp6262
sg16
g3544
sg18
(lp6263
I3
aI2
asg20
I2
sg21
g6099
sg23
I00
sba(iMAG
Car
p6264
(dp6265
g10
(lp6266
I4
aI0
asg12
g3592
sg14
(lp6267
sg16
g3544
sg18
(lp6268
I2
aI0
asg20
I3
sg21
g126
(g127
(S'S1'
p6269
I0
I1
tp6270
Rp6271
(I3
S'|'
p6272
NNNI1
I1
I0
tp6273
bg244
tp6274
Rp6275
sg23
I00
sba(iMAG
Car
p6276
(dp6277
g10
(lp6278
I5
aI4
asg12
g3599
sg14
(lp6279
sg16
g3544
sg18
(lp6280
I4
aI4
asg20
I2
sg21
g5425
sg23
I00
sbasg80
Nsg81
S'..5551\n02...1\n02.RR1>\n...7..\n..4766\n..4733\n'
p6281
sba(i__main__
Node
p6282
(dp6283
g3
Nsg4
(lp6284
sg6
(lp6285
(iMAG
Car
p6286
(dp6287
g10
(lp6288
I5
aI2
asg12
g3542
sg14
(lp6289
sg16
g3544
sg18
(lp6290
I5
aI0
asg20
I3
sg21
g5328
sg23
I00
sba(iMAG
Car
p6291
(dp6292
g10
(lp6293
I0
aI1
asg12
g3550
sg14
(lp6294
sg16
g3544
sg18
(lp6295
I0
aI0
asg20
I2
sg21
g126
(g127
(S'S1'
p6296
I0
I1
tp6297
Rp6298
(I3
S'|'
p6299
NNNI1
I1
I0
tp6300
bg176
tp6301
Rp6302
sg23
I00
sba(iMAG
Car
p6303
(dp6304
g10
(lp6305
I1
aI2
asg12
g3557
sg14
(lp6306
sg16
g3544
sg18
(lp6307
I1
aI1
asg20
I2
sg21
g5851
sg23
I00
sba(iMAG
Car
p6308
(dp6309
g10
(lp6310
I2
aI5
asg12
g3564
sg14
(lp6311
sg16
g3544
sg18
(lp6312
I2
aI4
asg20
I2
sg21
g6198
sg23
I00
sba(iMAG
Car
p6313
(dp6314
g10
(lp6315
I3
aI5
asg12
g3571
sg14
(lp6316
sg16
g3544
sg18
(lp6317
I3
aI3
asg20
I3
sg21
g5690
sg23
I00
sba(iMAG
Car
p6318
(dp6319
g10
(lp6320
I5
aI5
asg12
g3578
sg14
(lp6321
sg16
g3544
sg18
(lp6322
I4
aI5
asg20
I2
sg21
g5467
sg23
I00
sba(iMAG
Car
p6323
(dp6324
g10
(lp6325
I4
aI2
asg12
g3585
sg14
(lp6326
sg16
g3544
sg18
(lp6327
I3
aI2
asg20
I2
sg21
g6099
sg23
I00
sba(iMAG
Car
p6328
(dp6329
g10
(lp6330
I4
aI0
asg12
g3592
sg14
(lp6331
sg16
g3544
sg18
(lp6332
I2
aI0
asg20
I3
sg21
g6275
sg23
I00
sba(iMAG
Car
p6333
(dp6334
g10
(lp6335
I5
aI4
asg12
g3599
sg14
(lp6336
sg16
g3544
sg18
(lp6337
I4
aI4
asg20
I2
sg21
g5425
sg23
I00
sbasg80
Nsg81
S'0.5551\n02...1\n.2.RR1>\n...7..\n..4766\n..4733\n'
p6338
sba(i__main__
Node
p6339
(dp6340
g3
Nsg4
(lp6341
sg6
(lp6342
(iMAG
Car
p6343
(dp6344
g10
(lp6345
I5
aI2
asg12
g3542
sg14
(lp6346
sg16
g3544
sg18
(lp6347
I5
aI0
asg20
I3
sg21
g5328
sg23
I00
sba(iMAG
Car
p6348
(dp6349
g10
(lp6350
I0
aI1
asg12
g3550
sg14
(lp6351
sg16
g3544
sg18
(lp6352
I0
aI0
asg20
I2
sg21
g6302
sg23
I00
sba(iMAG
Car
p6353
(dp6354
g10
(lp6355
I1
aI1
asg12
g3557
sg14
(lp6356
sg16
g3544
sg18
(lp6357
I1
aI0
asg20
I2
sg21
g126
(g127
(S'S1'
p6358
I0
I1
tp6359
Rp6360
(I3
S'|'
p6361
NNNI1
I1
I0
tp6362
bg340
tp6363
Rp6364
sg23
I00
sba(iMAG
Car
p6365
(dp6366
g10
(lp6367
I2
aI5
asg12
g3564
sg14
(lp6368
sg16
g3544
sg18
(lp6369
I2
aI4
asg20
I2
sg21
g6198
sg23
I00
sba(iMAG
Car
p6370
(dp6371
g10
(lp6372
I3
aI5
asg12
g3571
sg14
(lp6373
sg16
g3544
sg18
(lp6374
I3
aI3
asg20
I3
sg21
g5690
sg23
I00
sba(iMAG
Car
p6375
(dp6376
g10
(lp6377
I5
aI5
asg12
g3578
sg14
(lp6378
sg16
g3544
sg18
(lp6379
I4
aI5
asg20
I2
sg21
g5467
sg23
I00
sba(iMAG
Car
p6380
(dp6381
g10
(lp6382
I4
aI2
asg12
g3585
sg14
(lp6383
sg16
g3544
sg18
(lp6384
I3
aI2
asg20
I2
sg21
g6099
sg23
I00
sba(iMAG
Car
p6385
(dp6386
g10
(lp6387
I4
aI0
asg12
g3592
sg14
(lp6388
sg16
g3544
sg18
(lp6389
I2
aI0
asg20
I3
sg21
g6275
sg23
I00
sba(iMAG
Car
p6390
(dp6391
g10
(lp6392
I5
aI4
asg12
g3599
sg14
(lp6393
sg16
g3544
sg18
(lp6394
I4
aI4
asg20
I2
sg21
g5425
sg23
I00
sbasg80
Nsg81
S'025551\n02...1\n...RR1>\n...7..\n..4766\n..4733\n'
p6395
sba(i__main__
Node
p6396
(dp6397
g3
Nsg4
(lp6398
sg6
(lp6399
(iMAG
Car
p6400
(dp6401
g10
(lp6402
I5
aI2
asg12
g3542
sg14
(lp6403
sg16
g3544
sg18
(lp6404
I5
aI0
asg20
I3
sg21
g5328
sg23
I00
sba(iMAG
Car
p6405
(dp6406
g10
(lp6407
I0
aI1
asg12
g3550
sg14
(lp6408
sg16
g3544
sg18
(lp6409
I0
aI0
asg20
I2
sg21
g6302
sg23
I00
sba(iMAG
Car
p6410
(dp6411
g10
(lp6412
I1
aI1
asg12
g3557
sg14
(lp6413
sg16
g3544
sg18
(lp6414
I1
aI0
asg20
I2
sg21
g6364
sg23
I00
sba(iMAG
Car
p6415
(dp6416
g10
(lp6417
I2
aI2
asg12
g3564
sg14
(lp6418
sg16
g3544
sg18
(lp6419
I2
aI1
asg20
I2
sg21
g126
(g127
(S'S1'
p6420
I0
I1
tp6421
Rp6422
(I3
S'|'
p6423
NNNI1
I1
I0
tp6424
bg1457
tp6425
Rp6426
sg23
I00
sba(iMAG
Car
p6427
(dp6428
g10
(lp6429
I3
aI5
asg12
g3571
sg14
(lp6430
sg16
g3544
sg18
(lp6431
I3
aI3
asg20
I3
sg21
g5690
sg23
I00
sba(iMAG
Car
p6432
(dp6433
g10
(lp6434
I5
aI5
asg12
g3578
sg14
(lp6435
sg16
g3544
sg18
(lp6436
I4
aI5
asg20
I2
sg21
g5467
sg23
I00
sba(iMAG
Car
p6437
(dp6438
g10
(lp6439
I4
aI2
asg12
g3585
sg14
(lp6440
sg16
g3544
sg18
(lp6441
I3
aI2
asg20
I2
sg21
g6099
sg23
I00
sba(iMAG
Car
p6442
(dp6443
g10
(lp6444
I4
aI0
asg12
g3592
sg14
(lp6445
sg16
g3544
sg18
(lp6446
I2
aI0
asg20
I3
sg21
g6275
sg23
I00
sba(iMAG
Car
p6447
(dp6448
g10
(lp6449
I5
aI4
asg12
g3599
sg14
(lp6450
sg16
g3544
sg18
(lp6451
I4
aI4
asg20
I2
sg21
g5425
sg23
I00
sbasg80
Nsg81
S'025551\n024..1\n..4RR1>\n...7..\n...766\n...733\n'
p6452
sba(i__main__
Node
p6453
(dp6454
g3
Nsg4
(lp6455
sg6
(lp6456
(iMAG
Car
p6457
(dp6458
g10
(lp6459
I5
aI2
asg12
g3542
sg14
(lp6460
sg16
g3544
sg18
(lp6461
I5
aI0
asg20
I3
sg21
g5328
sg23
I00
sba(iMAG
Car
p6462
(dp6463
g10
(lp6464
I0
aI1
asg12
g3550
sg14
(lp6465
sg16
g3544
sg18
(lp6466
I0
aI0
asg20
I2
sg21
g6302
sg23
I00
sba(iMAG
Car
p6467
(dp6468
g10
(lp6469
I1
aI1
asg12
g3557
sg14
(lp6470
sg16
g3544
sg18
(lp6471
I1
aI0
asg20
I2
sg21
g6364
sg23
I00
sba(iMAG
Car
p6472
(dp6473
g10
(lp6474
I2
aI5
asg12
g3564
sg14
(lp6475
sg16
g3544
sg18
(lp6476
I2
aI4
asg20
I2
sg21
g126
(g127
(S'S1'
p6477
I0
I1
tp6478
Rp6479
(I3
S'|'
p6480
NNNI1
I1
I0
tp6481
bg1457
tp6482
Rp6483
sg23
I00
sba(iMAG
Car
p6484
(dp6485
g10
(lp6486
I3
aI5
asg12
g3571
sg14
(lp6487
sg16
g3544
sg18
(lp6488
I3
aI3
asg20
I3
sg21
g5690
sg23
I00
sba(iMAG
Car
p6489
(dp6490
g10
(lp6491
I5
aI5
asg12
g3578
sg14
(lp6492
sg16
g3544
sg18
(lp6493
I4
aI5
asg20
I2
sg21
g5467
sg23
I00
sba(iMAG
Car
p6494
(dp6495
g10
(lp6496
I4
aI2
asg12
g3585
sg14
(lp6497
sg16
g3544
sg18
(lp6498
I3
aI2
asg20
I2
sg21
g6099
sg23
I00
sba(iMAG
Car
p6499
(dp6500
g10
(lp6501
I4
aI0
asg12
g3592
sg14
(lp6502
sg16
g3544
sg18
(lp6503
I2
aI0
asg20
I3
sg21
g6275
sg23
I00
sba(iMAG
Car
p6504
(dp6505
g10
(lp6506
I5
aI4
asg12
g3599
sg14
(lp6507
sg16
g3544
sg18
(lp6508
I4
aI4
asg20
I2
sg21
g5425
sg23
I00
sbasg80
Nsg81
S'025551\n02...1\n...RR1>\n...7..\n..4766\n..4733\n'
p6509
sba(i__main__
Node
p6510
(dp6511
g3
Nsg4
(lp6512
sg6
(lp6513
(iMAG
Car
p6514
(dp6515
g10
(lp6516
I5
aI2
asg12
g3542
sg14
(lp6517
sg16
g3544
sg18
(lp6518
I5
aI0
asg20
I3
sg21
g5328
sg23
I00
sba(iMAG
Car
p6519
(dp6520
g10
(lp6521
I0
aI1
asg12
g3550
sg14
(lp6522
sg16
g3544
sg18
(lp6523
I0
aI0
asg20
I2
sg21
g6302
sg23
I00
sba(iMAG
Car
p6524
(dp6525
g10
(lp6526
I1
aI1
asg12
g3557
sg14
(lp6527
sg16
g3544
sg18
(lp6528
I1
aI0
asg20
I2
sg21
g6364
sg23
I00
sba(iMAG
Car
p6529
(dp6530
g10
(lp6531
I2
aI5
asg12
g3564
sg14
(lp6532
sg16
g3544
sg18
(lp6533
I2
aI4
asg20
I2
sg21
g6483
sg23
I00
sba(iMAG
Car
p6534
(dp6535
g10
(lp6536
I3
aI5
asg12
g3571
sg14
(lp6537
sg16
g3544
sg18
(lp6538
I3
aI3
asg20
I3
sg21
g5690
sg23
I00
sba(iMAG
Car
p6539
(dp6540
g10
(lp6541
I5
aI5
asg12
g3578
sg14
(lp6542
sg16
g3544
sg18
(lp6543
I4
aI5
asg20
I2
sg21
g5467
sg23
I00
sba(iMAG
Car
p6544
(dp6545
g10
(lp6546
I1
aI2
asg12
g3585
sg14
(lp6547
sg16
g3544
sg18
(lp6548
I0
aI2
asg20
I2
sg21
g126
(g127
(S'S1'
p6549
I0
I1
tp6550
Rp6551
(I3
S'|'
p6552
NNNI1
I1
I0
tp6553
bg1624
tp6554
Rp6555
sg23
I00
sba(iMAG
Car
p6556
(dp6557
g10
(lp6558
I4
aI0
asg12
g3592
sg14
(lp6559
sg16
g3544
sg18
(lp6560
I2
aI0
asg20
I3
sg21
g6275
sg23
I00
sba(iMAG
Car
p6561
(dp6562
g10
(lp6563
I5
aI4
asg12
g3599
sg14
(lp6564
sg16
g3544
sg18
(lp6565
I4
aI4
asg20
I2
sg21
g5425
sg23
I00
sbasg80
Nsg81
S'025551\n02...1\nRR...1>\n...7..\n..4766\n..4733\n'
p6566
sba(i__main__
Node
p6567
(dp6568
g3
Nsg4
(lp6569
sg6
(lp6570
(iMAG
Car
p6571
(dp6572
g10
(lp6573
I5
aI2
asg12
g3542
sg14
(lp6574
sg16
g3544
sg18
(lp6575
I5
aI0
asg20
I3
sg21
g5328
sg23
I00
sba(iMAG
Car
p6576
(dp6577
g10
(lp6578
I0
aI1
asg12
g3550
sg14
(lp6579
sg16
g3544
sg18
(lp6580
I0
aI0
asg20
I2
sg21
g6302
sg23
I00
sba(iMAG
Car
p6581
(dp6582
g10
(lp6583
I1
aI1
asg12
g3557
sg14
(lp6584
sg16
g3544
sg18
(lp6585
I1
aI0
asg20
I2
sg21
g6364
sg23
I00
sba(iMAG
Car
p6586
(dp6587
g10
(lp6588
I2
aI5
asg12
g3564
sg14
(lp6589
sg16
g3544
sg18
(lp6590
I2
aI4
asg20
I2
sg21
g6483
sg23
I00
sba(iMAG
Car
p6591
(dp6592
g10
(lp6593
I3
aI3
asg12
g3571
sg14
(lp6594
sg16
g3544
sg18
(lp6595
I3
aI1
asg20
I3
sg21
g126
(g127
(S'S1'
p6596
I0
I1
tp6597
Rp6598
(I3
S'|'
p6599
NNNI1
I1
I0
tp6600
bg133
tp6601
Rp6602
sg23
I00
sba(iMAG
Car
p6603
(dp6604
g10
(lp6605
I5
aI5
asg12
g3578
sg14
(lp6606
sg16
g3544
sg18
(lp6607
I4
aI5
asg20
I2
sg21
g5467
sg23
I00
sba(iMAG
Car
p6608
(dp6609
g10
(lp6610
I1
aI2
asg12
g3585
sg14
(lp6611
sg16
g3544
sg18
(lp6612
I0
aI2
asg20
I2
sg21
g6555
sg23
I00
sba(iMAG
Car
p6613
(dp6614
g10
(lp6615
I4
aI0
asg12
g3592
sg14
(lp6616
sg16
g3544
sg18
(lp6617
I2
aI0
asg20
I3
sg21
g6275
sg23
I00
sba(iMAG
Car
p6618
(dp6619
g10
(lp6620
I5
aI4
asg12
g3599
sg14
(lp6621
sg16
g3544
sg18
(lp6622
I4
aI4
asg20
I2
sg21
g5425
sg23
I00
sbasg80
Nsg81
S'025551\n02.7.1\nRR.7.1>\n...7..\n..4.66\n..4.33\n'
p6623
sba(i__main__
Node
p6624
(dp6625
g3
Nsg4
(lp6626
sg6
(lp6627
(iMAG
Car
p6628
(dp6629
g10
(lp6630
I5
aI2
asg12
g3542
sg14
(lp6631
sg16
g3544
sg18
(lp6632
I5
aI0
asg20
I3
sg21
g5328
sg23
I00
sba(iMAG
Car
p6633
(dp6634
g10
(lp6635
I0
aI1
asg12
g3550
sg14
(lp6636
sg16
g3544
sg18
(lp6637
I0
aI0
asg20
I2
sg21
g6302
sg23
I00
sba(iMAG
Car
p6638
(dp6639
g10
(lp6640
I1
aI1
asg12
g3557
sg14
(lp6641
sg16
g3544
sg18
(lp6642
I1
aI0
asg20
I2
sg21
g6364
sg23
I00
sba(iMAG
Car
p6643
(dp6644
g10
(lp6645
I2
aI2
asg12
g3564
sg14
(lp6646
sg16
g3544
sg18
(lp6647
I2
aI1
asg20
I2
sg21
g126
(g127
(S'S1'
p6648
I0
I1
tp6649
Rp6650
(I3
S'|'
p6651
NNNI1
I1
I0
tp6652
bg1457
tp6653
Rp6654
sg23
I00
sba(iMAG
Car
p6655
(dp6656
g10
(lp6657
I3
aI3
asg12
g3571
sg14
(lp6658
sg16
g3544
sg18
(lp6659
I3
aI1
asg20
I3
sg21
g6602
sg23
I00
sba(iMAG
Car
p6660
(dp6661
g10
(lp6662
I5
aI5
asg12
g3578
sg14
(lp6663
sg16
g3544
sg18
(lp6664
I4
aI5
asg20
I2
sg21
g5467
sg23
I00
sba(iMAG
Car
p6665
(dp6666
g10
(lp6667
I1
aI2
asg12
g3585
sg14
(lp6668
sg16
g3544
sg18
(lp6669
I0
aI2
asg20
I2
sg21
g6555
sg23
I00
sba(iMAG
Car
p6670
(dp6671
g10
(lp6672
I4
aI0
asg12
g3592
sg14
(lp6673
sg16
g3544
sg18
(lp6674
I2
aI0
asg20
I3
sg21
g6275
sg23
I00
sba(iMAG
Car
p6675
(dp6676
g10
(lp6677
I5
aI4
asg12
g3599
sg14
(lp6678
sg16
g3544
sg18
(lp6679
I4
aI4
asg20
I2
sg21
g5425
sg23
I00
sbasg80
Nsg81
S'025551\n0247.1\nRR47.1>\n...7..\n....66\n....33\n'
p6680
sba(i__main__
Node
p6681
(dp6682
g3
Nsg4
(lp6683
sg6
(lp6684
(iMAG
Car
p6685
(dp6686
g10
(lp6687
I5
aI2
asg12
g3542
sg14
(lp6688
sg16
g3544
sg18
(lp6689
I5
aI0
asg20
I3
sg21
g5328
sg23
I00
sba(iMAG
Car
p6690
(dp6691
g10
(lp6692
I0
aI1
asg12
g3550
sg14
(lp6693
sg16
g3544
sg18
(lp6694
I0
aI0
asg20
I2
sg21
g6302
sg23
I00
sba(iMAG
Car
p6695
(dp6696
g10
(lp6697
I1
aI1
asg12
g3557
sg14
(lp6698
sg16
g3544
sg18
(lp6699
I1
aI0
asg20
I2
sg21
g6364
sg23
I00
sba(iMAG
Car
p6700
(dp6701
g10
(lp6702
I2
aI2
asg12
g3564
sg14
(lp6703
sg16
g3544
sg18
(lp6704
I2
aI1
asg20
I2
sg21
g6654
sg23
I00
sba(iMAG
Car
p6705
(dp6706
g10
(lp6707
I3
aI3
asg12
g3571
sg14
(lp6708
sg16
g3544
sg18
(lp6709
I3
aI1
asg20
I3
sg21
g6602
sg23
I00
sba(iMAG
Car
p6710
(dp6711
g10
(lp6712
I5
aI5
asg12
g3578
sg14
(lp6713
sg16
g3544
sg18
(lp6714
I4
aI5
asg20
I2
sg21
g5467
sg23
I00
sba(iMAG
Car
p6715
(dp6716
g10
(lp6717
I1
aI2
asg12
g3585
sg14
(lp6718
sg16
g3544
sg18
(lp6719
I0
aI2
asg20
I2
sg21
g6555
sg23
I00
sba(iMAG
Car
p6720
(dp6721
g10
(lp6722
I4
aI0
asg12
g3592
sg14
(lp6723
sg16
g3544
sg18
(lp6724
I2
aI0
asg20
I3
sg21
g6275
sg23
I00
sba(iMAG
Car
p6725
(dp6726
g10
(lp6727
I1
aI4
asg12
g3599
sg14
(lp6728
sg16
g3544
sg18
(lp6729
I0
aI4
asg20
I2
sg21
g126
(g127
(S'S1'
p6730
I0
I1
tp6731
Rp6732
(I3
S'|'
p6733
NNNI1
I1
I0
tp6734
bg312
tp6735
Rp6736
sg23
I00
sbasg80
Nsg81
S'025551\n0247.1\nRR47.1>\n...7..\n66....\n....33\n'
p6737
sba(i__main__
Node
p6738
(dp6739
g3
Nsg4
(lp6740
sg6
(lp6741
(iMAG
Car
p6742
(dp6743
g10
(lp6744
I5
aI2
asg12
g3542
sg14
(lp6745
sg16
g3544
sg18
(lp6746
I5
aI0
asg20
I3
sg21
g5328
sg23
I00
sba(iMAG
Car
p6747
(dp6748
g10
(lp6749
I0
aI1
asg12
g3550
sg14
(lp6750
sg16
g3544
sg18
(lp6751
I0
aI0
asg20
I2
sg21
g6302
sg23
I00
sba(iMAG
Car
p6752
(dp6753
g10
(lp6754
I1
aI1
asg12
g3557
sg14
(lp6755
sg16
g3544
sg18
(lp6756
I1
aI0
asg20
I2
sg21
g6364
sg23
I00
sba(iMAG
Car
p6757
(dp6758
g10
(lp6759
I2
aI2
asg12
g3564
sg14
(lp6760
sg16
g3544
sg18
(lp6761
I2
aI1
asg20
I2
sg21
g6654
sg23
I00
sba(iMAG
Car
p6762
(dp6763
g10
(lp6764
I3
aI3
asg12
g3571
sg14
(lp6765
sg16
g3544
sg18
(lp6766
I3
aI1
asg20
I3
sg21
g6602
sg23
I00
sba(iMAG
Car
p6767
(dp6768
g10
(lp6769
I1
aI5
asg12
g3578
sg14
(lp6770
sg16
g3544
sg18
(lp6771
I0
aI5
asg20
I2
sg21
g126
(g127
(S'S1'
p6772
I0
I1
tp6773
Rp6774
(I3
S'|'
p6775
NNNI1
I1
I0
tp6776
bg907
tp6777
Rp6778
sg23
I00
sba(iMAG
Car
p6779
(dp6780
g10
(lp6781
I1
aI2
asg12
g3585
sg14
(lp6782
sg16
g3544
sg18
(lp6783
I0
aI2
asg20
I2
sg21
g6555
sg23
I00
sba(iMAG
Car
p6784
(dp6785
g10
(lp6786
I4
aI0
asg12
g3592
sg14
(lp6787
sg16
g3544
sg18
(lp6788
I2
aI0
asg20
I3
sg21
g6275
sg23
I00
sba(iMAG
Car
p6789
(dp6790
g10
(lp6791
I1
aI4
asg12
g3599
sg14
(lp6792
sg16
g3544
sg18
(lp6793
I0
aI4
asg20
I2
sg21
g6736
sg23
I00
sbasg80
Nsg81
S'025551\n0247.1\nRR47.1>\n...7..\n66....\n33....\n'
p6794
sba(i__main__
Node
p6795
(dp6796
g3
Nsg4
(lp6797
sg6
(lp6798
(iMAG
Car
p6799
(dp6800
g10
(lp6801
I5
aI2
asg12
g3542
sg14
(lp6802
sg16
g3544
sg18
(lp6803
I5
aI0
asg20
I3
sg21
g5328
sg23
I00
sba(iMAG
Car
p6804
(dp6805
g10
(lp6806
I0
aI1
asg12
g3550
sg14
(lp6807
sg16
g3544
sg18
(lp6808
I0
aI0
asg20
I2
sg21
g6302
sg23
I00
sba(iMAG
Car
p6809
(dp6810
g10
(lp6811
I1
aI1
asg12
g3557
sg14
(lp6812
sg16
g3544
sg18
(lp6813
I1
aI0
asg20
I2
sg21
g6364
sg23
I00
sba(iMAG
Car
p6814
(dp6815
g10
(lp6816
I2
aI2
asg12
g3564
sg14
(lp6817
sg16
g3544
sg18
(lp6818
I2
aI1
asg20
I2
sg21
g6654
sg23
I00
sba(iMAG
Car
p6819
(dp6820
g10
(lp6821
I3
aI5
asg12
g3571
sg14
(lp6822
sg16
g3544
sg18
(lp6823
I3
aI3
asg20
I3
sg21
g126
(g127
(S'S1'
p6824
I0
I1
tp6825
Rp6826
(I3
S'|'
p6827
NNNI1
I1
I0
tp6828
bg133
tp6829
Rp6830
sg23
I00
sba(iMAG
Car
p6831
(dp6832
g10
(lp6833
I1
aI5
asg12
g3578
sg14
(lp6834
sg16
g3544
sg18
(lp6835
I0
aI5
asg20
I2
sg21
g6778
sg23
I00
sba(iMAG
Car
p6836
(dp6837
g10
(lp6838
I1
aI2
asg12
g3585
sg14
(lp6839
sg16
g3544
sg18
(lp6840
I0
aI2
asg20
I2
sg21
g6555
sg23
I00
sba(iMAG
Car
p6841
(dp6842
g10
(lp6843
I4
aI0
asg12
g3592
sg14
(lp6844
sg16
g3544
sg18
(lp6845
I2
aI0
asg20
I3
sg21
g6275
sg23
I00
sba(iMAG
Car
p6846
(dp6847
g10
(lp6848
I1
aI4
asg12
g3599
sg14
(lp6849
sg16
g3544
sg18
(lp6850
I0
aI4
asg20
I2
sg21
g6736
sg23
I00
sbasg80
Nsg81
S'025551\n024..1\nRR4..1>\n...7..\n66.7..\n33.7..\n'
p6851
sba(i__main__
Node
p6852
(dp6853
g3
Nsg4
(lp6854
sg6
(lp6855
(iMAG
Car
p6856
(dp6857
g10
(lp6858
I5
aI2
asg12
g3542
sg14
(lp6859
sg16
g3544
sg18
(lp6860
I5
aI0
asg20
I3
sg21
g5328
sg23
I00
sba(iMAG
Car
p6861
(dp6862
g10
(lp6863
I0
aI1
asg12
g3550
sg14
(lp6864
sg16
g3544
sg18
(lp6865
I0
aI0
asg20
I2
sg21
g6302
sg23
I00
sba(iMAG
Car
p6866
(dp6867
g10
(lp6868
I1
aI1
asg12
g3557
sg14
(lp6869
sg16
g3544
sg18
(lp6870
I1
aI0
asg20
I2
sg21
g6364
sg23
I00
sba(iMAG
Car
p6871
(dp6872
g10
(lp6873
I2
aI5
asg12
g3564
sg14
(lp6874
sg16
g3544
sg18
(lp6875
I2
aI4
asg20
I2
sg21
g126
(g127
(S'S1'
p6876
I0
I1
tp6877
Rp6878
(I3
S'|'
p6879
NNNI1
I1
I0
tp6880
bg1457
tp6881
Rp6882
sg23
I00
sba(iMAG
Car
p6883
(dp6884
g10
(lp6885
I3
aI5
asg12
g3571
sg14
(lp6886
sg16
g3544
sg18
(lp6887
I3
aI3
asg20
I3
sg21
g6830
sg23
I00
sba(iMAG
Car
p6888
(dp6889
g10
(lp6890
I1
aI5
asg12
g3578
sg14
(lp6891
sg16
g3544
sg18
(lp6892
I0
aI5
asg20
I2
sg21
g6778
sg23
I00
sba(iMAG
Car
p6893
(dp6894
g10
(lp6895
I1
aI2
asg12
g3585
sg14
(lp6896
sg16
g3544
sg18
(lp6897
I0
aI2
asg20
I2
sg21
g6555
sg23
I00
sba(iMAG
Car
p6898
(dp6899
g10
(lp6900
I4
aI0
asg12
g3592
sg14
(lp6901
sg16
g3544
sg18
(lp6902
I2
aI0
asg20
I3
sg21
g6275
sg23
I00
sba(iMAG
Car
p6903
(dp6904
g10
(lp6905
I1
aI4
asg12
g3599
sg14
(lp6906
sg16
g3544
sg18
(lp6907
I0
aI4
asg20
I2
sg21
g6736
sg23
I00
sbasg80
Nsg81
S'025551\n02...1\nRR...1>\n...7..\n6647..\n3347..\n'
p6908
sba(i__main__
Node
p6909
(dp6910
g3
Nsg4
(lp6911
sg6
(lp6912
(iMAG
Car
p6913
(dp6914
g10
(lp6915
I5
aI5
asg12
g3542
sg14
(lp6916
sg16
g3544
sg18
(lp6917
I5
aI3
asg20
I3
sg21
g126
(g127
(S'S1'
p6918
I0
I1
tp6919
Rp6920
(I3
S'|'
p6921
NNNI1
I1
I0
tp6922
bg502
tp6923
Rp6924
sg23
I00
sba(iMAG
Car
p6925
(dp6926
g10
(lp6927
I0
aI1
asg12
g3550
sg14
(lp6928
sg16
g3544
sg18
(lp6929
I0
aI0
asg20
I2
sg21
g6302
sg23
I00
sba(iMAG
Car
p6930
(dp6931
g10
(lp6932
I1
aI1
asg12
g3557
sg14
(lp6933
sg16
g3544
sg18
(lp6934
I1
aI0
asg20
I2
sg21
g6364
sg23
I00
sba(iMAG
Car
p6935
(dp6936
g10
(lp6937
I2
aI5
asg12
g3564
sg14
(lp6938
sg16
g3544
sg18
(lp6939
I2
aI4
asg20
I2
sg21
g6882
sg23
I00
sba(iMAG
Car
p6940
(dp6941
g10
(lp6942
I3
aI5
asg12
g3571
sg14
(lp6943
sg16
g3544
sg18
(lp6944
I3
aI3
asg20
I3
sg21
g6830
sg23
I00
sba(iMAG
Car
p6945
(dp6946
g10
(lp6947
I1
aI5
asg12
g3578
sg14
(lp6948
sg16
g3544
sg18
(lp6949
I0
aI5
asg20
I2
sg21
g6778
sg23
I00
sba(iMAG
Car
p6950
(dp6951
g10
(lp6952
I1
aI2
asg12
g3585
sg14
(lp6953
sg16
g3544
sg18
(lp6954
I0
aI2
asg20
I2
sg21
g6555
sg23
I00
sba(iMAG
Car
p6955
(dp6956
g10
(lp6957
I4
aI0
asg12
g3592
sg14
(lp6958
sg16
g3544
sg18
(lp6959
I2
aI0
asg20
I3
sg21
g6275
sg23
I00
sba(iMAG
Car
p6960
(dp6961
g10
(lp6962
I1
aI4
asg12
g3599
sg14
(lp6963
sg16
g3544
sg18
(lp6964
I0
aI4
asg20
I2
sg21
g6736
sg23
I00
sbasg80
Nsg81
S'02555.\n02....\nRR....>\n...7.1\n6647.1\n3347.1\n'
p6965
sba.