(lp0
(inode
Node
p1
(dp2
S'_Node__red'
p3
NsS'_Node__children'
p4
(lp5
sS'_Node__car_list'
p6
(lp7
(iMAG
Car
p8
(dp9
S'end'
p10
(lp11
I2
aI4
asS'orientation'
p12
Vvertical
p13
sS'edge_to'
p14
(lp15
sS'puzzle_tag'
p16
Vprb28111
p17
sS'start'
p18
(lp19
I2
aI3
asS'length'
p20
I2
sS'tag'
p21
V1
p22
sS'visited'
p23
I00
sba(iMAG
Car
p24
(dp25
g10
(lp26
I4
aI1
asg12
Vvertical
p27
sg14
(lp28
sg16
g17
sg18
(lp29
I4
aI0
asg20
I2
sg21
V0
p30
sg23
I00
sba(iMAG
Car
p31
(dp32
g10
(lp33
I0
aI2
asg12
Vvertical
p34
sg14
(lp35
sg16
g17
sg18
(lp36
I0
aI1
asg20
I2
sg21
V3
p37
sg23
I00
sba(iMAG
Car
p38
(dp39
g10
(lp40
I5
aI2
asg12
Vvertical
p41
sg14
(lp42
sg16
g17
sg18
(lp43
I5
aI0
asg20
I3
sg21
V7
p44
sg23
I00
sba(iMAG
Car
p45
(dp46
g10
(lp47
I1
aI3
asg12
Vhorizontal
p48
sg14
(lp49
sg16
g17
sg18
(lp50
I0
aI3
asg20
I2
sg21
V2
p51
sg23
I00
sba(iMAG
Car
p52
(dp53
g10
(lp54
I3
aI2
asg12
Vhorizontal
p55
sg14
(lp56
sg16
g17
sg18
(lp57
I2
aI2
asg20
I2
sg21
Vr
p58
sg23
I00
sba(iMAG
Car
p59
(dp60
g10
(lp61
I5
aI4
asg12
Vhorizontal
p62
sg14
(lp63
sg16
g17
sg18
(lp64
I4
aI4
asg20
I2
sg21
V5
p65
sg23
I00
sba(iMAG
Car
p66
(dp67
g10
(lp68
I2
aI5
asg12
Vhorizontal
p69
sg14
(lp70
sg16
g17
sg18
(lp71
I0
aI5
asg20
I3
sg21
V4
p72
sg23
I00
sba(iMAG
Car
p73
(dp74
g10
(lp75
I5
aI3
asg12
Vhorizontal
p76
sg14
(lp77
sg16
g17
sg18
(lp78
I3
aI3
asg20
I3
sg21
V6
p79
sg23
I00
sbasS'_Node__value'
p80
NsS'_Node__board'
p81
Nsba(inode
Node
p82
(dp83
g3
Nsg4
(lp84
sg6
(lp85
(iMAG
Car
p86
(dp87
g10
(lp88
I2
aI4
asg12
g13
sg14
(lp89
sg16
g17
sg18
(lp90
I2
aI3
asg20
I2
sg21
g22
sg23
I00
sba(iMAG
Car
p91
(dp92
g10
(lp93
I4
aI1
asg12
g27
sg14
(lp94
sg16
g17
sg18
(lp95
I4
aI0
asg20
I2
sg21
g30
sg23
I00
sba(iMAG
Car
p96
(dp97
g10
(lp98
I0
aI2
asg12
g34
sg14
(lp99
sg16
g17
sg18
(lp100
I0
aI1
asg20
I2
sg21
g37
sg23
I00
sba(iMAG
Car
p101
(dp102
g10
(lp103
I5
aI2
asg12
g41
sg14
(lp104
sg16
g17
sg18
(lp105
I5
aI0
asg20
I3
sg21
g44
sg23
I00
sba(iMAG
Car
p106
(dp107
g10
(lp108
I1
aI3
asg12
g48
sg14
(lp109
sg16
g17
sg18
(lp110
I0
aI3
asg20
I2
sg21
g51
sg23
I00
sba(iMAG
Car
p111
(dp112
g10
(lp113
I3
aI2
asg12
g55
sg14
(lp114
sg16
g17
sg18
(lp115
I2
aI2
asg20
I2
sg21
g58
sg23
I00
sba(iMAG
Car
p116
(dp117
g10
(lp118
I4
aI4
asg12
g62
sg14
(lp119
sg16
g17
sg18
(lp120
I3
aI4
asg20
I2
sg21
S'5'
p121
sg23
I00
sba(iMAG
Car
p122
(dp123
g10
(lp124
I2
aI5
asg12
g69
sg14
(lp125
sg16
g17
sg18
(lp126
I0
aI5
asg20
I3
sg21
g72
sg23
I00
sba(iMAG
Car
p127
(dp128
g10
(lp129
I5
aI3
asg12
g76
sg14
(lp130
sg16
g17
sg18
(lp131
I3
aI3
asg20
I3
sg21
g79
sg23
I00
sbasg80
Nsg81
V....07\u000a3...07\u000a3.RR.7>\u000a221666\u000a..155.\u000a444...\u000a
p132
sba(inode
Node
p133
(dp134
g3
Nsg4
(lp135
sg6
(lp136
(iMAG
Car
p137
(dp138
g10
(lp139
I2
aI4
asg12
g13
sg14
(lp140
sg16
g17
sg18
(lp141
I2
aI3
asg20
I2
sg21
g22
sg23
I00
sba(iMAG
Car
p142
(dp143
g10
(lp144
I4
aI1
asg12
g27
sg14
(lp145
sg16
g17
sg18
(lp146
I4
aI0
asg20
I2
sg21
g30
sg23
I00
sba(iMAG
Car
p147
(dp148
g10
(lp149
I0
aI2
asg12
g34
sg14
(lp150
sg16
g17
sg18
(lp151
I0
aI1
asg20
I2
sg21
g37
sg23
I00
sba(iMAG
Car
p152
(dp153
g10
(lp154
I5
aI2
asg12
g41
sg14
(lp155
sg16
g17
sg18
(lp156
I5
aI0
asg20
I3
sg21
g44
sg23
I00
sba(iMAG
Car
p157
(dp158
g10
(lp159
I1
aI3
asg12
g48
sg14
(lp160
sg16
g17
sg18
(lp161
I0
aI3
asg20
I2
sg21
g51
sg23
I00
sba(iMAG
Car
p162
(dp163
g10
(lp164
I3
aI2
asg12
g55
sg14
(lp165
sg16
g17
sg18
(lp166
I2
aI2
asg20
I2
sg21
g58
sg23
I00
sba(iMAG
Car
p167
(dp168
g10
(lp169
I4
aI4
asg12
g62
sg14
(lp170
sg16
g17
sg18
(lp171
I3
aI4
asg20
I2
sg21
g121
sg23
I00
sba(iMAG
Car
p172
(dp173
g10
(lp174
I5
aI5
asg12
g69
sg14
(lp175
sg16
g17
sg18
(lp176
I3
aI5
asg20
I3
sg21
S'4'
p177
sg23
I00
sba(iMAG
Car
p178
(dp179
g10
(lp180
I5
aI3
asg12
g76
sg14
(lp181
sg16
g17
sg18
(lp182
I3
aI3
asg20
I3
sg21
g79
sg23
I00
sbasg80
Nsg81
V....07\u000a3...07\u000a3.RR.7>\u000a221666\u000a..155.\u000a...444\u000a
p183
sba(inode
Node
p184
(dp185
g3
Nsg4
(lp186
sg6
(lp187
(iMAG
Car
p188
(dp189
g10
(lp190
I2
aI5
asg12
g13
sg14
(lp191
sg16
g17
sg18
(lp192
I2
aI4
asg20
I2
sg21
S'1'
p193
sg23
I00
sba(iMAG
Car
p194
(dp195
g10
(lp196
I4
aI1
asg12
g27
sg14
(lp197
sg16
g17
sg18
(lp198
I4
aI0
asg20
I2
sg21
g30
sg23
I00
sba(iMAG
Car
p199
(dp200
g10
(lp201
I0
aI2
asg12
g34
sg14
(lp202
sg16
g17
sg18
(lp203
I0
aI1
asg20
I2
sg21
g37
sg23
I00
sba(iMAG
Car
p204
(dp205
g10
(lp206
I5
aI2
asg12
g41
sg14
(lp207
sg16
g17
sg18
(lp208
I5
aI0
asg20
I3
sg21
g44
sg23
I00
sba(iMAG
Car
p209
(dp210
g10
(lp211
I1
aI3
asg12
g48
sg14
(lp212
sg16
g17
sg18
(lp213
I0
aI3
asg20
I2
sg21
g51
sg23
I00
sba(iMAG
Car
p214
(dp215
g10
(lp216
I3
aI2
asg12
g55
sg14
(lp217
sg16
g17
sg18
(lp218
I2
aI2
asg20
I2
sg21
g58
sg23
I00
sba(iMAG
Car
p219
(dp220
g10
(lp221
I4
aI4
asg12
g62
sg14
(lp222
sg16
g17
sg18
(lp223
I3
aI4
asg20
I2
sg21
g121
sg23
I00
sba(iMAG
Car
p224
(dp225
g10
(lp226
I5
aI5
asg12
g69
sg14
(lp227
sg16
g17
sg18
(lp228
I3
aI5
asg20
I3
sg21
g177
sg23
I00
sba(iMAG
Car
p229
(dp230
g10
(lp231
I5
aI3
asg12
g76
sg14
(lp232
sg16
g17
sg18
(lp233
I3
aI3
asg20
I3
sg21
g79
sg23
I00
sbasg80
Nsg81
V....07\u000a3...07\u000a3.RR.7>\u000a22.666\u000a..155.\u000a..1444\u000a
p234
sba(inode
Node
p235
(dp236
g3
Nsg4
(lp237
sg6
(lp238
(iMAG
Car
p239
(dp240
g10
(lp241
I2
aI5
asg12
g13
sg14
(lp242
sg16
g17
sg18
(lp243
I2
aI4
asg20
I2
sg21
g193
sg23
I00
sba(iMAG
Car
p244
(dp245
g10
(lp246
I4
aI1
asg12
g27
sg14
(lp247
sg16
g17
sg18
(lp248
I4
aI0
asg20
I2
sg21
g30
sg23
I00
sba(iMAG
Car
p249
(dp250
g10
(lp251
I0
aI2
asg12
g34
sg14
(lp252
sg16
g17
sg18
(lp253
I0
aI1
asg20
I2
sg21
g37
sg23
I00
sba(iMAG
Car
p254
(dp255
g10
(lp256
I5
aI2
asg12
g41
sg14
(lp257
sg16
g17
sg18
(lp258
I5
aI0
asg20
I3
sg21
g44
sg23
I00
sba(iMAG
Car
p259
(dp260
g10
(lp261
I2
aI3
asg12
g48
sg14
(lp262
sg16
g17
sg18
(lp263
I1
aI3
asg20
I2
sg21
S'2'
p264
sg23
I00
sba(iMAG
Car
p265
(dp266
g10
(lp267
I3
aI2
asg12
g55
sg14
(lp268
sg16
g17
sg18
(lp269
I2
aI2
asg20
I2
sg21
g58
sg23
I00
sba(iMAG
Car
p270
(dp271
g10
(lp272
I4
aI4
asg12
g62
sg14
(lp273
sg16
g17
sg18
(lp274
I3
aI4
asg20
I2
sg21
g121
sg23
I00
sba(iMAG
Car
p275
(dp276
g10
(lp277
I5
aI5
asg12
g69
sg14
(lp278
sg16
g17
sg18
(lp279
I3
aI5
asg20
I3
sg21
g177
sg23
I00
sba(iMAG
Car
p280
(dp281
g10
(lp282
I5
aI3
asg12
g76
sg14
(lp283
sg16
g17
sg18
(lp284
I3
aI3
asg20
I3
sg21
g79
sg23
I00
sbasg80
Nsg81
V....07\u000a3...07\u000a3.RR.7>\u000a.22666\u000a..155.\u000a..1444\u000a
p285
sba(inode
Node
p286
(dp287
g3
Nsg4
(lp288
sg6
(lp289
(iMAG
Car
p290
(dp291
g10
(lp292
I2
aI5
asg12
g13
sg14
(lp293
sg16
g17
sg18
(lp294
I2
aI4
asg20
I2
sg21
g193
sg23
I00
sba(iMAG
Car
p295
(dp296
g10
(lp297
I4
aI1
asg12
g27
sg14
(lp298
sg16
g17
sg18
(lp299
I4
aI0
asg20
I2
sg21
g30
sg23
I00
sba(iMAG
Car
p300
(dp301
g10
(lp302
I0
aI1
asg12
g34
sg14
(lp303
sg16
g17
sg18
(lp304
I0
aI0
asg20
I2
sg21
S'3'
p305
sg23
I00
sba(iMAG
Car
p306
(dp307
g10
(lp308
I5
aI2
asg12
g41
sg14
(lp309
sg16
g17
sg18
(lp310
I5
aI0
asg20
I3
sg21
g44
sg23
I00
sba(iMAG
Car
p311
(dp312
g10
(lp313
I2
aI3
asg12
g48
sg14
(lp314
sg16
g17
sg18
(lp315
I1
aI3
asg20
I2
sg21
g264
sg23
I00
sba(iMAG
Car
p316
(dp317
g10
(lp318
I3
aI2
asg12
g55
sg14
(lp319
sg16
g17
sg18
(lp320
I2
aI2
asg20
I2
sg21
g58
sg23
I00
sba(iMAG
Car
p321
(dp322
g10
(lp323
I4
aI4
asg12
g62
sg14
(lp324
sg16
g17
sg18
(lp325
I3
aI4
asg20
I2
sg21
g121
sg23
I00
sba(iMAG
Car
p326
(dp327
g10
(lp328
I5
aI5
asg12
g69
sg14
(lp329
sg16
g17
sg18
(lp330
I3
aI5
asg20
I3
sg21
g177
sg23
I00
sba(iMAG
Car
p331
(dp332
g10
(lp333
I5
aI3
asg12
g76
sg14
(lp334
sg16
g17
sg18
(lp335
I3
aI3
asg20
I3
sg21
g79
sg23
I00
sbasg80
Nsg81
V3...07\u000a3...07\u000a..RR.7>\u000a.22666\u000a..155.\u000a..1444\u000a
p336
sba(inode
Node
p337
(dp338
g3
Nsg4
(lp339
sg6
(lp340
(iMAG
Car
p341
(dp342
g10
(lp343
I2
aI5
asg12
g13
sg14
(lp344
sg16
g17
sg18
(lp345
I2
aI4
asg20
I2
sg21
g193
sg23
I00
sba(iMAG
Car
p346
(dp347
g10
(lp348
I4
aI1
asg12
g27
sg14
(lp349
sg16
g17
sg18
(lp350
I4
aI0
asg20
I2
sg21
g30
sg23
I00
sba(iMAG
Car
p351
(dp352
g10
(lp353
I0
aI1
asg12
g34
sg14
(lp354
sg16
g17
sg18
(lp355
I0
aI0
asg20
I2
sg21
g305
sg23
I00
sba(iMAG
Car
p356
(dp357
g10
(lp358
I5
aI2
asg12
g41
sg14
(lp359
sg16
g17
sg18
(lp360
I5
aI0
asg20
I3
sg21
g44
sg23
I00
sba(iMAG
Car
p361
(dp362
g10
(lp363
I1
aI3
asg12
g48
sg14
(lp364
sg16
g17
sg18
(lp365
I0
aI3
asg20
I2
sg21
g264
sg23
I00
sba(iMAG
Car
p366
(dp367
g10
(lp368
I3
aI2
asg12
g55
sg14
(lp369
sg16
g17
sg18
(lp370
I2
aI2
asg20
I2
sg21
g58
sg23
I00
sba(iMAG
Car
p371
(dp372
g10
(lp373
I4
aI4
asg12
g62
sg14
(lp374
sg16
g17
sg18
(lp375
I3
aI4
asg20
I2
sg21
g121
sg23
I00
sba(iMAG
Car
p376
(dp377
g10
(lp378
I5
aI5
asg12
g69
sg14
(lp379
sg16
g17
sg18
(lp380
I3
aI5
asg20
I3
sg21
g177
sg23
I00
sba(iMAG
Car
p381
(dp382
g10
(lp383
I5
aI3
asg12
g76
sg14
(lp384
sg16
g17
sg18
(lp385
I3
aI3
asg20
I3
sg21
g79
sg23
I00
sbasg80
Nsg81
V3...07\u000a3...07\u000a..RR.7>\u000a22.666\u000a..155.\u000a..1444\u000a
p386
sba(inode
Node
p387
(dp388
g3
Nsg4
(lp389
sg6
(lp390
(iMAG
Car
p391
(dp392
g10
(lp393
I2
aI4
asg12
g13
sg14
(lp394
sg16
g17
sg18
(lp395
I2
aI3
asg20
I2
sg21
g193
sg23
I00
sba(iMAG
Car
p396
(dp397
g10
(lp398
I4
aI1
asg12
g27
sg14
(lp399
sg16
g17
sg18
(lp400
I4
aI0
asg20
I2
sg21
g30
sg23
I00
sba(iMAG
Car
p401
(dp402
g10
(lp403
I0
aI1
asg12
g34
sg14
(lp404
sg16
g17
sg18
(lp405
I0
aI0
asg20
I2
sg21
g305
sg23
I00
sba(iMAG
Car
p406
(dp407
g10
(lp408
I5
aI2
asg12
g41
sg14
(lp409
sg16
g17
sg18
(lp410
I5
aI0
asg20
I3
sg21
g44
sg23
I00
sba(iMAG
Car
p411
(dp412
g10
(lp413
I1
aI3
asg12
g48
sg14
(lp414
sg16
g17
sg18
(lp415
I0
aI3
asg20
I2
sg21
g264
sg23
I00
sba(iMAG
Car
p416
(dp417
g10
(lp418
I3
aI2
asg12
g55
sg14
(lp419
sg16
g17
sg18
(lp420
I2
aI2
asg20
I2
sg21
g58
sg23
I00
sba(iMAG
Car
p421
(dp422
g10
(lp423
I4
aI4
asg12
g62
sg14
(lp424
sg16
g17
sg18
(lp425
I3
aI4
asg20
I2
sg21
g121
sg23
I00
sba(iMAG
Car
p426
(dp427
g10
(lp428
I5
aI5
asg12
g69
sg14
(lp429
sg16
g17
sg18
(lp430
I3
aI5
asg20
I3
sg21
g177
sg23
I00
sba(iMAG
Car
p431
(dp432
g10
(lp433
I5
aI3
asg12
g76
sg14
(lp434
sg16
g17
sg18
(lp435
I3
aI3
asg20
I3
sg21
g79
sg23
I00
sbasg80
Nsg81
V3...07\u000a3...07\u000a..RR.7>\u000a221666\u000a..155.\u000a...444\u000a
p436
sba(inode
Node
p437
(dp438
g3
Nsg4
(lp439
sg6
(lp440
(iMAG
Car
p441
(dp442
g10
(lp443
I2
aI4
asg12
g13
sg14
(lp444
sg16
g17
sg18
(lp445
I2
aI3
asg20
I2
sg21
g193
sg23
I00
sba(iMAG
Car
p446
(dp447
g10
(lp448
I4
aI1
asg12
g27
sg14
(lp449
sg16
g17
sg18
(lp450
I4
aI0
asg20
I2
sg21
g30
sg23
I00
sba(iMAG
Car
p451
(dp452
g10
(lp453
I0
aI1
asg12
g34
sg14
(lp454
sg16
g17
sg18
(lp455
I0
aI0
asg20
I2
sg21
g305
sg23
I00
sba(iMAG
Car
p456
(dp457
g10
(lp458
I5
aI2
asg12
g41
sg14
(lp459
sg16
g17
sg18
(lp460
I5
aI0
asg20
I3
sg21
g44
sg23
I00
sba(iMAG
Car
p461
(dp462
g10
(lp463
I1
aI3
asg12
g48
sg14
(lp464
sg16
g17
sg18
(lp465
I0
aI3
asg20
I2
sg21
g264
sg23
I00
sba(iMAG
Car
p466
(dp467
g10
(lp468
I3
aI2
asg12
g55
sg14
(lp469
sg16
g17
sg18
(lp470
I2
aI2
asg20
I2
sg21
g58
sg23
I00
sba(iMAG
Car
p471
(dp472
g10
(lp473
I4
aI4
asg12
g62
sg14
(lp474
sg16
g17
sg18
(lp475
I3
aI4
asg20
I2
sg21
g121
sg23
I00
sba(iMAG
Car
p476
(dp477
g10
(lp478
I2
aI5
asg12
g69
sg14
(lp479
sg16
g17
sg18
(lp480
I0
aI5
asg20
I3
sg21
g177
sg23
I00
sba(iMAG
Car
p481
(dp482
g10
(lp483
I5
aI3
asg12
g76
sg14
(lp484
sg16
g17
sg18
(lp485
I3
aI3
asg20
I3
sg21
g79
sg23
I00
sbasg80
Nsg81
V3...07\u000a3...07\u000a..RR.7>\u000a221666\u000a..155.\u000a444...\u000a
p486
sba(inode
Node
p487
(dp488
g3
Nsg4
(lp489
sg6
(lp490
(iMAG
Car
p491
(dp492
g10
(lp493
I2
aI4
asg12
g13
sg14
(lp494
sg16
g17
sg18
(lp495
I2
aI3
asg20
I2
sg21
g193
sg23
I00
sba(iMAG
Car
p496
(dp497
g10
(lp498
I4
aI1
asg12
g27
sg14
(lp499
sg16
g17
sg18
(lp500
I4
aI0
asg20
I2
sg21
g30
sg23
I00
sba(iMAG
Car
p501
(dp502
g10
(lp503
I0
aI1
asg12
g34
sg14
(lp504
sg16
g17
sg18
(lp505
I0
aI0
asg20
I2
sg21
g305
sg23
I00
sba(iMAG
Car
p506
(dp507
g10
(lp508
I5
aI2
asg12
g41
sg14
(lp509
sg16
g17
sg18
(lp510
I5
aI0
asg20
I3
sg21
g44
sg23
I00
sba(iMAG
Car
p511
(dp512
g10
(lp513
I1
aI3
asg12
g48
sg14
(lp514
sg16
g17
sg18
(lp515
I0
aI3
asg20
I2
sg21
g264
sg23
I00
sba(iMAG
Car
p516
(dp517
g10
(lp518
I3
aI2
asg12
g55
sg14
(lp519
sg16
g17
sg18
(lp520
I2
aI2
asg20
I2
sg21
g58
sg23
I00
sba(iMAG
Car
p521
(dp522
g10
(lp523
I5
aI4
asg12
g62
sg14
(lp524
sg16
g17
sg18
(lp525
I4
aI4
asg20
I2
sg21
g121
sg23
I00
sba(iMAG
Car
p526
(dp527
g10
(lp528
I2
aI5
asg12
g69
sg14
(lp529
sg16
g17
sg18
(lp530
I0
aI5
asg20
I3
sg21
g177
sg23
I00
sba(iMAG
Car
p531
(dp532
g10
(lp533
I5
aI3
asg12
g76
sg14
(lp534
sg16
g17
sg18
(lp535
I3
aI3
asg20
I3
sg21
g79
sg23
I00
sbasg80
Nsg81
V3...07\u000a3...07\u000a..RR.7>\u000a221666\u000a..1.55\u000a444...\u000a
p536
sba(inode
Node
p537
(dp538
g3
Nsg4
(lp539
sg6
(lp540
(iMAG
Car
p541
(dp542
g10
(lp543
I2
aI4
asg12
g13
sg14
(lp544
sg16
g17
sg18
(lp545
I2
aI3
asg20
I2
sg21
g193
sg23
I00
sba(iMAG
Car
p546
(dp547
g10
(lp548
I4
aI1
asg12
g27
sg14
(lp549
sg16
g17
sg18
(lp550
I4
aI0
asg20
I2
sg21
g30
sg23
I00
sba(iMAG
Car
p551
(dp552
g10
(lp553
I0
aI1
asg12
g34
sg14
(lp554
sg16
g17
sg18
(lp555
I0
aI0
asg20
I2
sg21
g305
sg23
I00
sba(iMAG
Car
p556
(dp557
g10
(lp558
I5
aI2
asg12
g41
sg14
(lp559
sg16
g17
sg18
(lp560
I5
aI0
asg20
I3
sg21
g44
sg23
I00
sba(iMAG
Car
p561
(dp562
g10
(lp563
I1
aI3
asg12
g48
sg14
(lp564
sg16
g17
sg18
(lp565
I0
aI3
asg20
I2
sg21
g264
sg23
I00
sba(iMAG
Car
p566
(dp567
g10
(lp568
I1
aI2
asg12
g55
sg14
(lp569
sg16
g17
sg18
(lp570
I0
aI2
asg20
I2
sg21
S'r'
p571
sg23
I00
sba(iMAG
Car
p572
(dp573
g10
(lp574
I5
aI4
asg12
g62
sg14
(lp575
sg16
g17
sg18
(lp576
I4
aI4
asg20
I2
sg21
g121
sg23
I00
sba(iMAG
Car
p577
(dp578
g10
(lp579
I2
aI5
asg12
g69
sg14
(lp580
sg16
g17
sg18
(lp581
I0
aI5
asg20
I3
sg21
g177
sg23
I00
sba(iMAG
Car
p582
(dp583
g10
(lp584
I5
aI3
asg12
g76
sg14
(lp585
sg16
g17
sg18
(lp586
I3
aI3
asg20
I3
sg21
g79
sg23
I00
sbasg80
Nsg81
V3...07\u000a3...07\u000aRR...7>\u000a221666\u000a..1.55\u000a444...\u000a
p587
sba(inode
Node
p588
(dp589
g3
Nsg4
(lp590
sg6
(lp591
(iMAG
Car
p592
(dp593
g10
(lp594
I2
aI1
asg12
g13
sg14
(lp595
sg16
g17
sg18
(lp596
I2
aI0
asg20
I2
sg21
g193
sg23
I00
sba(iMAG
Car
p597
(dp598
g10
(lp599
I4
aI1
asg12
g27
sg14
(lp600
sg16
g17
sg18
(lp601
I4
aI0
asg20
I2
sg21
g30
sg23
I00
sba(iMAG
Car
p602
(dp603
g10
(lp604
I0
aI1
asg12
g34
sg14
(lp605
sg16
g17
sg18
(lp606
I0
aI0
asg20
I2
sg21
g305
sg23
I00
sba(iMAG
Car
p607
(dp608
g10
(lp609
I5
aI2
asg12
g41
sg14
(lp610
sg16
g17
sg18
(lp611
I5
aI0
asg20
I3
sg21
g44
sg23
I00
sba(iMAG
Car
p612
(dp613
g10
(lp614
I1
aI3
asg12
g48
sg14
(lp615
sg16
g17
sg18
(lp616
I0
aI3
asg20
I2
sg21
g264
sg23
I00
sba(iMAG
Car
p617
(dp618
g10
(lp619
I1
aI2
asg12
g55
sg14
(lp620
sg16
g17
sg18
(lp621
I0
aI2
asg20
I2
sg21
g571
sg23
I00
sba(iMAG
Car
p622
(dp623
g10
(lp624
I5
aI4
asg12
g62
sg14
(lp625
sg16
g17
sg18
(lp626
I4
aI4
asg20
I2
sg21
g121
sg23
I00
sba(iMAG
Car
p627
(dp628
g10
(lp629
I2
aI5
asg12
g69
sg14
(lp630
sg16
g17
sg18
(lp631
I0
aI5
asg20
I3
sg21
g177
sg23
I00
sba(iMAG
Car
p632
(dp633
g10
(lp634
I5
aI3
asg12
g76
sg14
(lp635
sg16
g17
sg18
(lp636
I3
aI3
asg20
I3
sg21
g79
sg23
I00
sbasg80
Nsg81
V3.1.07\u000a3.1.07\u000aRR...7>\u000a22.666\u000a....55\u000a444...\u000a
p637
sba(inode
Node
p638
(dp639
g3
Nsg4
(lp640
sg6
(lp641
(iMAG
Car
p642
(dp643
g10
(lp644
I2
aI1
asg12
g13
sg14
(lp645
sg16
g17
sg18
(lp646
I2
aI0
asg20
I2
sg21
g193
sg23
I00
sba(iMAG
Car
p647
(dp648
g10
(lp649
I4
aI1
asg12
g27
sg14
(lp650
sg16
g17
sg18
(lp651
I4
aI0
asg20
I2
sg21
g30
sg23
I00
sba(iMAG
Car
p652
(dp653
g10
(lp654
I0
aI1
asg12
g34
sg14
(lp655
sg16
g17
sg18
(lp656
I0
aI0
asg20
I2
sg21
g305
sg23
I00
sba(iMAG
Car
p657
(dp658
g10
(lp659
I5
aI2
asg12
g41
sg14
(lp660
sg16
g17
sg18
(lp661
I5
aI0
asg20
I3
sg21
g44
sg23
I00
sba(iMAG
Car
p662
(dp663
g10
(lp664
I1
aI3
asg12
g48
sg14
(lp665
sg16
g17
sg18
(lp666
I0
aI3
asg20
I2
sg21
g264
sg23
I00
sba(iMAG
Car
p667
(dp668
g10
(lp669
I1
aI2
asg12
g55
sg14
(lp670
sg16
g17
sg18
(lp671
I0
aI2
asg20
I2
sg21
g571
sg23
I00
sba(iMAG
Car
p672
(dp673
g10
(lp674
I5
aI4
asg12
g62
sg14
(lp675
sg16
g17
sg18
(lp676
I4
aI4
asg20
I2
sg21
g121
sg23
I00
sba(iMAG
Car
p677
(dp678
g10
(lp679
I2
aI5
asg12
g69
sg14
(lp680
sg16
g17
sg18
(lp681
I0
aI5
asg20
I3
sg21
g177
sg23
I00
sba(iMAG
Car
p682
(dp683
g10
(lp684
I4
aI3
asg12
g76
sg14
(lp685
sg16
g17
sg18
(lp686
I2
aI3
asg20
I3
sg21
S'6'
p687
sg23
I00
sbasg80
Nsg81
V3.1.07\u000a3.1.07\u000aRR...7>\u000a22666.\u000a....55\u000a444...\u000a
p688
sba(inode
Node
p689
(dp690
g3
Nsg4
(lp691
sg6
(lp692
(iMAG
Car
p693
(dp694
g10
(lp695
I2
aI1
asg12
g13
sg14
(lp696
sg16
g17
sg18
(lp697
I2
aI0
asg20
I2
sg21
g193
sg23
I00
sba(iMAG
Car
p698
(dp699
g10
(lp700
I4
aI1
asg12
g27
sg14
(lp701
sg16
g17
sg18
(lp702
I4
aI0
asg20
I2
sg21
g30
sg23
I00
sba(iMAG
Car
p703
(dp704
g10
(lp705
I0
aI1
asg12
g34
sg14
(lp706
sg16
g17
sg18
(lp707
I0
aI0
asg20
I2
sg21
g305
sg23
I00
sba(iMAG
Car
p708
(dp709
g10
(lp710
I5
aI2
asg12
g41
sg14
(lp711
sg16
g17
sg18
(lp712
I5
aI0
asg20
I3
sg21
g44
sg23
I00
sba(iMAG
Car
p713
(dp714
g10
(lp715
I1
aI3
asg12
g48
sg14
(lp716
sg16
g17
sg18
(lp717
I0
aI3
asg20
I2
sg21
g264
sg23
I00
sba(iMAG
Car
p718
(dp719
g10
(lp720
I1
aI2
asg12
g55
sg14
(lp721
sg16
g17
sg18
(lp722
I0
aI2
asg20
I2
sg21
g571
sg23
I00
sba(iMAG
Car
p723
(dp724
g10
(lp725
I1
aI4
asg12
g62
sg14
(lp726
sg16
g17
sg18
(lp727
I0
aI4
asg20
I2
sg21
g121
sg23
I00
sba(iMAG
Car
p728
(dp729
g10
(lp730
I2
aI5
asg12
g69
sg14
(lp731
sg16
g17
sg18
(lp732
I0
aI5
asg20
I3
sg21
g177
sg23
I00
sba(iMAG
Car
p733
(dp734
g10
(lp735
I4
aI3
asg12
g76
sg14
(lp736
sg16
g17
sg18
(lp737
I2
aI3
asg20
I3
sg21
g687
sg23
I00
sbasg80
Nsg81
V3.1.07\u000a3.1.07\u000aRR...7>\u000a22666.\u000a55....\u000a444...\u000a
p738
sba(inode
Node
p739
(dp740
g3
Nsg4
(lp741
sg6
(lp742
(iMAG
Car
p743
(dp744
g10
(lp745
I2
aI1
asg12
g13
sg14
(lp746
sg16
g17
sg18
(lp747
I2
aI0
asg20
I2
sg21
g193
sg23
I00
sba(iMAG
Car
p748
(dp749
g10
(lp750
I4
aI1
asg12
g27
sg14
(lp751
sg16
g17
sg18
(lp752
I4
aI0
asg20
I2
sg21
g30
sg23
I00
sba(iMAG
Car
p753
(dp754
g10
(lp755
I0
aI1
asg12
g34
sg14
(lp756
sg16
g17
sg18
(lp757
I0
aI0
asg20
I2
sg21
g305
sg23
I00
sba(iMAG
Car
p758
(dp759
g10
(lp760
I5
aI5
asg12
g41
sg14
(lp761
sg16
g17
sg18
(lp762
I5
aI3
asg20
I3
sg21
S'7'
p763
sg23
I00
sba(iMAG
Car
p764
(dp765
g10
(lp766
I1
aI3
asg12
g48
sg14
(lp767
sg16
g17
sg18
(lp768
I0
aI3
asg20
I2
sg21
g264
sg23
I00
sba(iMAG
Car
p769
(dp770
g10
(lp771
I1
aI2
asg12
g55
sg14
(lp772
sg16
g17
sg18
(lp773
I0
aI2
asg20
I2
sg21
g571
sg23
I00
sba(iMAG
Car
p774
(dp775
g10
(lp776
I1
aI4
asg12
g62
sg14
(lp777
sg16
g17
sg18
(lp778
I0
aI4
asg20
I2
sg21
g121
sg23
I00
sba(iMAG
Car
p779
(dp780
g10
(lp781
I2
aI5
asg12
g69
sg14
(lp782
sg16
g17
sg18
(lp783
I0
aI5
asg20
I3
sg21
g177
sg23
I00
sba(iMAG
Car
p784
(dp785
g10
(lp786
I4
aI3
asg12
g76
sg14
(lp787
sg16
g17
sg18
(lp788
I2
aI3
asg20
I3
sg21
g687
sg23
I00
sbasg80
Nsg81
V3.1.0.\u000a3.1.0.\u000aRR....>\u000a226667\u000a55...7\u000a444..7\u000a
p789
sba(inode
Node
p790
(dp791
g3
Nsg4
(lp792
sg6
(lp793
(iMAG
Car
p794
(dp795
g10
(lp796
I4
aI1
asg12
Vvertical
p797
sg14
(lp798
sg16
Vprb32795
p799
sg18
(lp800
I4
aI0
asg20
I2
sg21
V1
p801
sg23
I00
sba(iMAG
Car
p802
(dp803
g10
(lp804
I3
aI2
asg12
Vvertical
p805
sg14
(lp806
sg16
g799
sg18
(lp807
I3
aI0
asg20
I3
sg21
V3
p808
sg23
I00
sba(iMAG
Car
p809
(dp810
g10
(lp811
I5
aI5
asg12
Vvertical
p812
sg14
(lp813
sg16
g799
sg18
(lp814
I5
aI4
asg20
I2
sg21
V5
p815
sg23
I00
sba(iMAG
Car
p816
(dp817
g10
(lp818
I0
aI5
asg12
Vvertical
p819
sg14
(lp820
sg16
g799
sg18
(lp821
I0
aI3
asg20
I3
sg21
V7
p822
sg23
I00
sba(iMAG
Car
p823
(dp824
g10
(lp825
I4
aI5
asg12
Vhorizontal
p826
sg14
(lp827
sg16
g799
sg18
(lp828
I2
aI5
asg20
I3
sg21
V2
p829
sg23
I00
sba(iMAG
Car
p830
(dp831
g10
(lp832
I3
aI4
asg12
Vhorizontal
p833
sg14
(lp834
sg16
g799
sg18
(lp835
I2
aI4
asg20
I2
sg21
V0
p836
sg23
I00
sba(iMAG
Car
p837
(dp838
g10
(lp839
I1
aI2
asg12
Vhorizontal
p840
sg14
(lp841
sg16
g799
sg18
(lp842
I0
aI2
asg20
I2
sg21
Vr
p843
sg23
I00
sba(iMAG
Car
p844
(dp845
g10
(lp846
I1
aI1
asg12
Vhorizontal
p847
sg14
(lp848
sg16
g799
sg18
(lp849
I0
aI1
asg20
I2
sg21
V4
p850
sg23
I00
sba(iMAG
Car
p851
(dp852
g10
(lp853
I2
aI0
asg12
Vhorizontal
p854
sg14
(lp855
sg16
g799
sg18
(lp856
I1
aI0
asg20
I2
sg21
V6
p857
sg23
I00
sbasg80
Nsg81
Nsba(inode
Node
p858
(dp859
g3
Nsg4
(lp860
sg6
(lp861
(iMAG
Car
p862
(dp863
g10
(lp864
I4
aI1
asg12
g797
sg14
(lp865
sg16
g799
sg18
(lp866
I4
aI0
asg20
I2
sg21
g801
sg23
I00
sba(iMAG
Car
p867
(dp868
g10
(lp869
I3
aI2
asg12
g805
sg14
(lp870
sg16
g799
sg18
(lp871
I3
aI0
asg20
I3
sg21
g808
sg23
I00
sba(iMAG
Car
p872
(dp873
g10
(lp874
I5
aI5
asg12
g812
sg14
(lp875
sg16
g799
sg18
(lp876
I5
aI4
asg20
I2
sg21
g815
sg23
I00
sba(iMAG
Car
p877
(dp878
g10
(lp879
I0
aI5
asg12
g819
sg14
(lp880
sg16
g799
sg18
(lp881
I0
aI3
asg20
I3
sg21
g822
sg23
I00
sba(iMAG
Car
p882
(dp883
g10
(lp884
I4
aI5
asg12
g826
sg14
(lp885
sg16
g799
sg18
(lp886
I2
aI5
asg20
I3
sg21
g829
sg23
I00
sba(iMAG
Car
p887
(dp888
g10
(lp889
I2
aI4
asg12
g833
sg14
(lp890
sg16
g799
sg18
(lp891
I1
aI4
asg20
I2
sg21
S'0'
p892
sg23
I00
sba(iMAG
Car
p893
(dp894
g10
(lp895
I1
aI2
asg12
g840
sg14
(lp896
sg16
g799
sg18
(lp897
I0
aI2
asg20
I2
sg21
g843
sg23
I00
sba(iMAG
Car
p898
(dp899
g10
(lp900
I1
aI1
asg12
g847
sg14
(lp901
sg16
g799
sg18
(lp902
I0
aI1
asg20
I2
sg21
g850
sg23
I00
sba(iMAG
Car
p903
(dp904
g10
(lp905
I2
aI0
asg12
g854
sg14
(lp906
sg16
g799
sg18
(lp907
I1
aI0
asg20
I2
sg21
g857
sg23
I00
sbasg80
Nsg81
V.6631.\u000a44.31.\u000aRR.3..>\u000a7.....\u000a700..5\u000a7.2225\u000a
p908
sba(inode
Node
p909
(dp910
g3
Nsg4
(lp911
sg6
(lp912
(iMAG
Car
p913
(dp914
g10
(lp915
I4
aI1
asg12
g797
sg14
(lp916
sg16
g799
sg18
(lp917
I4
aI0
asg20
I2
sg21
g801
sg23
I00
sba(iMAG
Car
p918
(dp919
g10
(lp920
I3
aI2
asg12
g805
sg14
(lp921
sg16
g799
sg18
(lp922
I3
aI0
asg20
I3
sg21
g808
sg23
I00
sba(iMAG
Car
p923
(dp924
g10
(lp925
I5
aI5
asg12
g812
sg14
(lp926
sg16
g799
sg18
(lp927
I5
aI4
asg20
I2
sg21
g815
sg23
I00
sba(iMAG
Car
p928
(dp929
g10
(lp930
I0
aI5
asg12
g819
sg14
(lp931
sg16
g799
sg18
(lp932
I0
aI3
asg20
I3
sg21
g822
sg23
I00
sba(iMAG
Car
p933
(dp934
g10
(lp935
I3
aI5
asg12
g826
sg14
(lp936
sg16
g799
sg18
(lp937
I1
aI5
asg20
I3
sg21
g264
sg23
I00
sba(iMAG
Car
p938
(dp939
g10
(lp940
I2
aI4
asg12
g833
sg14
(lp941
sg16
g799
sg18
(lp942
I1
aI4
asg20
I2
sg21
g892
sg23
I00
sba(iMAG
Car
p943
(dp944
g10
(lp945
I1
aI2
asg12
g840
sg14
(lp946
sg16
g799
sg18
(lp947
I0
aI2
asg20
I2
sg21
g843
sg23
I00
sba(iMAG
Car
p948
(dp949
g10
(lp950
I1
aI1
asg12
g847
sg14
(lp951
sg16
g799
sg18
(lp952
I0
aI1
asg20
I2
sg21
g850
sg23
I00
sba(iMAG
Car
p953
(dp954
g10
(lp955
I2
aI0
asg12
g854
sg14
(lp956
sg16
g799
sg18
(lp957
I1
aI0
asg20
I2
sg21
g857
sg23
I00
sbasg80
Nsg81
V.6631.\u000a44.31.\u000aRR.3..>\u000a7.....\u000a700..5\u000a7222.5\u000a
p958
sba(inode
Node
p959
(dp960
g3
Nsg4
(lp961
sg6
(lp962
(iMAG
Car
p963
(dp964
g10
(lp965
I4
aI1
asg12
g797
sg14
(lp966
sg16
g799
sg18
(lp967
I4
aI0
asg20
I2
sg21
g801
sg23
I00
sba(iMAG
Car
p968
(dp969
g10
(lp970
I3
aI2
asg12
g805
sg14
(lp971
sg16
g799
sg18
(lp972
I3
aI0
asg20
I3
sg21
g808
sg23
I00
sba(iMAG
Car
p973
(dp974
g10
(lp975
I5
aI1
asg12
g812
sg14
(lp976
sg16
g799
sg18
(lp977
I5
aI0
asg20
I2
sg21
g121
sg23
I00
sba(iMAG
Car
p978
(dp979
g10
(lp980
I0
aI5
asg12
g819
sg14
(lp981
sg16
g799
sg18
(lp982
I0
aI3
asg20
I3
sg21
g822
sg23
I00
sba(iMAG
Car
p983
(dp984
g10
(lp985
I3
aI5
asg12
g826
sg14
(lp986
sg16
g799
sg18
(lp987
I1
aI5
asg20
I3
sg21
g264
sg23
I00
sba(iMAG
Car
p988
(dp989
g10
(lp990
I2
aI4
asg12
g833
sg14
(lp991
sg16
g799
sg18
(lp992
I1
aI4
asg20
I2
sg21
g892
sg23
I00
sba(iMAG
Car
p993
(dp994
g10
(lp995
I1
aI2
asg12
g840
sg14
(lp996
sg16
g799
sg18
(lp997
I0
aI2
asg20
I2
sg21
g843
sg23
I00
sba(iMAG
Car
p998
(dp999
g10
(lp1000
I1
aI1
asg12
g847
sg14
(lp1001
sg16
g799
sg18
(lp1002
I0
aI1
asg20
I2
sg21
g850
sg23
I00
sba(iMAG
Car
p1003
(dp1004
g10
(lp1005
I2
aI0
asg12
g854
sg14
(lp1006
sg16
g799
sg18
(lp1007
I1
aI0
asg20
I2
sg21
g857
sg23
I00
sbasg80
Nsg81
V.66315\u000a44.315\u000aRR.3..>\u000a7.....\u000a700...\u000a7222..\u000a
p1008
sba(inode
Node
p1009
(dp1010
g3
Nsg4
(lp1011
sg6
(lp1012
(iMAG
Car
p1013
(dp1014
g10
(lp1015
I4
aI1
asg12
g797
sg14
(lp1016
sg16
g799
sg18
(lp1017
I4
aI0
asg20
I2
sg21
g801
sg23
I00
sba(iMAG
Car
p1018
(dp1019
g10
(lp1020
I3
aI4
asg12
g805
sg14
(lp1021
sg16
g799
sg18
(lp1022
I3
aI2
asg20
I3
sg21
g305
sg23
I00
sba(iMAG
Car
p1023
(dp1024
g10
(lp1025
I5
aI1
asg12
g812
sg14
(lp1026
sg16
g799
sg18
(lp1027
I5
aI0
asg20
I2
sg21
g121
sg23
I00
sba(iMAG
Car
p1028
(dp1029
g10
(lp1030
I0
aI5
asg12
g819
sg14
(lp1031
sg16
g799
sg18
(lp1032
I0
aI3
asg20
I3
sg21
g822
sg23
I00
sba(iMAG
Car
p1033
(dp1034
g10
(lp1035
I3
aI5
asg12
g826
sg14
(lp1036
sg16
g799
sg18
(lp1037
I1
aI5
asg20
I3
sg21
g264
sg23
I00
sba(iMAG
Car
p1038
(dp1039
g10
(lp1040
I2
aI4
asg12
g833
sg14
(lp1041
sg16
g799
sg18
(lp1042
I1
aI4
asg20
I2
sg21
g892
sg23
I00
sba(iMAG
Car
p1043
(dp1044
g10
(lp1045
I1
aI2
asg12
g840
sg14
(lp1046
sg16
g799
sg18
(lp1047
I0
aI2
asg20
I2
sg21
g843
sg23
I00
sba(iMAG
Car
p1048
(dp1049
g10
(lp1050
I1
aI1
asg12
g847
sg14
(lp1051
sg16
g799
sg18
(lp1052
I0
aI1
asg20
I2
sg21
g850
sg23
I00
sba(iMAG
Car
p1053
(dp1054
g10
(lp1055
I2
aI0
asg12
g854
sg14
(lp1056
sg16
g799
sg18
(lp1057
I1
aI0
asg20
I2
sg21
g857
sg23
I00
sbasg80
Nsg81
V.66.15\u000a44..15\u000aRR.3..>\u000a7..3..\u000a7003..\u000a7222..\u000a
p1058
sba(inode
Node
p1059
(dp1060
g3
Nsg4
(lp1061
sg6
(lp1062
(iMAG
Car
p1063
(dp1064
g10
(lp1065
I4
aI5
asg12
g797
sg14
(lp1066
sg16
g799
sg18
(lp1067
I4
aI4
asg20
I2
sg21
g193
sg23
I00
sba(iMAG
Car
p1068
(dp1069
g10
(lp1070
I3
aI4
asg12
g805
sg14
(lp1071
sg16
g799
sg18
(lp1072
I3
aI2
asg20
I3
sg21
g305
sg23
I00
sba(iMAG
Car
p1073
(dp1074
g10
(lp1075
I5
aI1
asg12
g812
sg14
(lp1076
sg16
g799
sg18
(lp1077
I5
aI0
asg20
I2
sg21
g121
sg23
I00
sba(iMAG
Car
p1078
(dp1079
g10
(lp1080
I0
aI5
asg12
g819
sg14
(lp1081
sg16
g799
sg18
(lp1082
I0
aI3
asg20
I3
sg21
g822
sg23
I00
sba(iMAG
Car
p1083
(dp1084
g10
(lp1085
I3
aI5
asg12
g826
sg14
(lp1086
sg16
g799
sg18
(lp1087
I1
aI5
asg20
I3
sg21
g264
sg23
I00
sba(iMAG
Car
p1088
(dp1089
g10
(lp1090
I2
aI4
asg12
g833
sg14
(lp1091
sg16
g799
sg18
(lp1092
I1
aI4
asg20
I2
sg21
g892
sg23
I00
sba(iMAG
Car
p1093
(dp1094
g10
(lp1095
I1
aI2
asg12
g840
sg14
(lp1096
sg16
g799
sg18
(lp1097
I0
aI2
asg20
I2
sg21
g843
sg23
I00
sba(iMAG
Car
p1098
(dp1099
g10
(lp1100
I1
aI1
asg12
g847
sg14
(lp1101
sg16
g799
sg18
(lp1102
I0
aI1
asg20
I2
sg21
g850
sg23
I00
sba(iMAG
Car
p1103
(dp1104
g10
(lp1105
I2
aI0
asg12
g854
sg14
(lp1106
sg16
g799
sg18
(lp1107
I1
aI0
asg20
I2
sg21
g857
sg23
I00
sbasg80
Nsg81
V.66..5\u000a44...5\u000aRR.3..>\u000a7..3..\u000a70031.\u000a72221.\u000a
p1108
sba(inode
Node
p1109
(dp1110
g3
Nsg4
(lp1111
sg6
(lp1112
(iMAG
Car
p1113
(dp1114
g10
(lp1115
I4
aI5
asg12
g797
sg14
(lp1116
sg16
g799
sg18
(lp1117
I4
aI4
asg20
I2
sg21
g193
sg23
I00
sba(iMAG
Car
p1118
(dp1119
g10
(lp1120
I3
aI4
asg12
g805
sg14
(lp1121
sg16
g799
sg18
(lp1122
I3
aI2
asg20
I3
sg21
g305
sg23
I00
sba(iMAG
Car
p1123
(dp1124
g10
(lp1125
I5
aI5
asg12
g812
sg14
(lp1126
sg16
g799
sg18
(lp1127
I5
aI4
asg20
I2
sg21
g121
sg23
I00
sba(iMAG
Car
p1128
(dp1129
g10
(lp1130
I0
aI5
asg12
g819
sg14
(lp1131
sg16
g799
sg18
(lp1132
I0
aI3
asg20
I3
sg21
g822
sg23
I00
sba(iMAG
Car
p1133
(dp1134
g10
(lp1135
I3
aI5
asg12
g826
sg14
(lp1136
sg16
g799
sg18
(lp1137
I1
aI5
asg20
I3
sg21
g264
sg23
I00
sba(iMAG
Car
p1138
(dp1139
g10
(lp1140
I2
aI4
asg12
g833
sg14
(lp1141
sg16
g799
sg18
(lp1142
I1
aI4
asg20
I2
sg21
g892
sg23
I00
sba(iMAG
Car
p1143
(dp1144
g10
(lp1145
I1
aI2
asg12
g840
sg14
(lp1146
sg16
g799
sg18
(lp1147
I0
aI2
asg20
I2
sg21
g843
sg23
I00
sba(iMAG
Car
p1148
(dp1149
g10
(lp1150
I1
aI1
asg12
g847
sg14
(lp1151
sg16
g799
sg18
(lp1152
I0
aI1
asg20
I2
sg21
g850
sg23
I00
sba(iMAG
Car
p1153
(dp1154
g10
(lp1155
I2
aI0
asg12
g854
sg14
(lp1156
sg16
g799
sg18
(lp1157
I1
aI0
asg20
I2
sg21
g857
sg23
I00
sbasg80
Nsg81
V.66...\u000a44....\u000aRR.3..>\u000a7..3..\u000a700315\u000a722215\u000a
p1158
sba(inode
Node
p1159
(dp1160
g3
Nsg4
(lp1161
sg6
(lp1162
(iMAG
Car
p1163
(dp1164
g10
(lp1165
I4
aI5
asg12
g797
sg14
(lp1166
sg16
g799
sg18
(lp1167
I4
aI4
asg20
I2
sg21
g193
sg23
I00
sba(iMAG
Car
p1168
(dp1169
g10
(lp1170
I3
aI4
asg12
g805
sg14
(lp1171
sg16
g799
sg18
(lp1172
I3
aI2
asg20
I3
sg21
g305
sg23
I00
sba(iMAG
Car
p1173
(dp1174
g10
(lp1175
I5
aI5
asg12
g812
sg14
(lp1176
sg16
g799
sg18
(lp1177
I5
aI4
asg20
I2
sg21
g121
sg23
I00
sba(iMAG
Car
p1178
(dp1179
g10
(lp1180
I0
aI5
asg12
g819
sg14
(lp1181
sg16
g799
sg18
(lp1182
I0
aI3
asg20
I3
sg21
g822
sg23
I00
sba(iMAG
Car
p1183
(dp1184
g10
(lp1185
I3
aI5
asg12
g826
sg14
(lp1186
sg16
g799
sg18
(lp1187
I1
aI5
asg20
I3
sg21
g264
sg23
I00
sba(iMAG
Car
p1188
(dp1189
g10
(lp1190
I2
aI4
asg12
g833
sg14
(lp1191
sg16
g799
sg18
(lp1192
I1
aI4
asg20
I2
sg21
g892
sg23
I00
sba(iMAG
Car
p1193
(dp1194
g10
(lp1195
I1
aI2
asg12
g840
sg14
(lp1196
sg16
g799
sg18
(lp1197
I0
aI2
asg20
I2
sg21
g843
sg23
I00
sba(iMAG
Car
p1198
(dp1199
g10
(lp1200
I1
aI1
asg12
g847
sg14
(lp1201
sg16
g799
sg18
(lp1202
I0
aI1
asg20
I2
sg21
g850
sg23
I00
sba(iMAG
Car
p1203
(dp1204
g10
(lp1205
I5
aI0
asg12
g854
sg14
(lp1206
sg16
g799
sg18
(lp1207
I4
aI0
asg20
I2
sg21
g687
sg23
I00
sbasg80
Nsg81
V....66\u000a44....\u000aRR.3..>\u000a7..3..\u000a700315\u000a722215\u000a
p1208
sba(inode
Node
p1209
(dp1210
g3
Nsg4
(lp1211
sg6
(lp1212
(iMAG
Car
p1213
(dp1214
g10
(lp1215
I4
aI5
asg12
g797
sg14
(lp1216
sg16
g799
sg18
(lp1217
I4
aI4
asg20
I2
sg21
g193
sg23
I00
sba(iMAG
Car
p1218
(dp1219
g10
(lp1220
I3
aI4
asg12
g805
sg14
(lp1221
sg16
g799
sg18
(lp1222
I3
aI2
asg20
I3
sg21
g305
sg23
I00
sba(iMAG
Car
p1223
(dp1224
g10
(lp1225
I5
aI5
asg12
g812
sg14
(lp1226
sg16
g799
sg18
(lp1227
I5
aI4
asg20
I2
sg21
g121
sg23
I00
sba(iMAG
Car
p1228
(dp1229
g10
(lp1230
I0
aI5
asg12
g819
sg14
(lp1231
sg16
g799
sg18
(lp1232
I0
aI3
asg20
I3
sg21
g822
sg23
I00
sba(iMAG
Car
p1233
(dp1234
g10
(lp1235
I3
aI5
asg12
g826
sg14
(lp1236
sg16
g799
sg18
(lp1237
I1
aI5
asg20
I3
sg21
g264
sg23
I00
sba(iMAG
Car
p1238
(dp1239
g10
(lp1240
I2
aI4
asg12
g833
sg14
(lp1241
sg16
g799
sg18
(lp1242
I1
aI4
asg20
I2
sg21
g892
sg23
I00
sba(iMAG
Car
p1243
(dp1244
g10
(lp1245
I1
aI2
asg12
g840
sg14
(lp1246
sg16
g799
sg18
(lp1247
I0
aI2
asg20
I2
sg21
g843
sg23
I00
sba(iMAG
Car
p1248
(dp1249
g10
(lp1250
I5
aI1
asg12
g847
sg14
(lp1251
sg16
g799
sg18
(lp1252
I4
aI1
asg20
I2
sg21
g177
sg23
I00
sba(iMAG
Car
p1253
(dp1254
g10
(lp1255
I5
aI0
asg12
g854
sg14
(lp1256
sg16
g799
sg18
(lp1257
I4
aI0
asg20
I2
sg21
g687
sg23
I00
sbasg80
Nsg81
V....66\u000a....44\u000aRR.3..>\u000a7..3..\u000a700315\u000a722215\u000a
p1258
sba(inode
Node
p1259
(dp1260
g3
Nsg4
(lp1261
sg6
(lp1262
(iMAG
Car
p1263
(dp1264
g10
(lp1265
I4
aI5
asg12
g797
sg14
(lp1266
sg16
g799
sg18
(lp1267
I4
aI4
asg20
I2
sg21
g193
sg23
I00
sba(iMAG
Car
p1268
(dp1269
g10
(lp1270
I3
aI4
asg12
g805
sg14
(lp1271
sg16
g799
sg18
(lp1272
I3
aI2
asg20
I3
sg21
g305
sg23
I00
sba(iMAG
Car
p1273
(dp1274
g10
(lp1275
I5
aI5
asg12
g812
sg14
(lp1276
sg16
g799
sg18
(lp1277
I5
aI4
asg20
I2
sg21
g121
sg23
I00
sba(iMAG
Car
p1278
(dp1279
g10
(lp1280
I0
aI5
asg12
g819
sg14
(lp1281
sg16
g799
sg18
(lp1282
I0
aI3
asg20
I3
sg21
g822
sg23
I00
sba(iMAG
Car
p1283
(dp1284
g10
(lp1285
I3
aI5
asg12
g826
sg14
(lp1286
sg16
g799
sg18
(lp1287
I1
aI5
asg20
I3
sg21
g264
sg23
I00
sba(iMAG
Car
p1288
(dp1289
g10
(lp1290
I2
aI4
asg12
g833
sg14
(lp1291
sg16
g799
sg18
(lp1292
I1
aI4
asg20
I2
sg21
g892
sg23
I00
sba(iMAG
Car
p1293
(dp1294
g10
(lp1295
I2
aI2
asg12
g840
sg14
(lp1296
sg16
g799
sg18
(lp1297
I1
aI2
asg20
I2
sg21
g571
sg23
I00
sba(iMAG
Car
p1298
(dp1299
g10
(lp1300
I5
aI1
asg12
g847
sg14
(lp1301
sg16
g799
sg18
(lp1302
I4
aI1
asg20
I2
sg21
g177
sg23
I00
sba(iMAG
Car
p1303
(dp1304
g10
(lp1305
I5
aI0
asg12
g854
sg14
(lp1306
sg16
g799
sg18
(lp1307
I4
aI0
asg20
I2
sg21
g687
sg23
I00
sbasg80
Nsg81
V....66\u000a....44\u000a.RR3..>\u000a7..3..\u000a700315\u000a722215\u000a
p1308
sba(inode
Node
p1309
(dp1310
g3
Nsg4
(lp1311
sg6
(lp1312
(iMAG
Car
p1313
(dp1314
g10
(lp1315
I4
aI5
asg12
g797
sg14
(lp1316
sg16
g799
sg18
(lp1317
I4
aI4
asg20
I2
sg21
g193
sg23
I00
sba(iMAG
Car
p1318
(dp1319
g10
(lp1320
I3
aI4
asg12
g805
sg14
(lp1321
sg16
g799
sg18
(lp1322
I3
aI2
asg20
I3
sg21
g305
sg23
I00
sba(iMAG
Car
p1323
(dp1324
g10
(lp1325
I5
aI5
asg12
g812
sg14
(lp1326
sg16
g799
sg18
(lp1327
I5
aI4
asg20
I2
sg21
g121
sg23
I00
sba(iMAG
Car
p1328
(dp1329
g10
(lp1330
I0
aI2
asg12
g819
sg14
(lp1331
sg16
g799
sg18
(lp1332
I0
aI0
asg20
I3
sg21
g763
sg23
I00
sba(iMAG
Car
p1333
(dp1334
g10
(lp1335
I3
aI5
asg12
g826
sg14
(lp1336
sg16
g799
sg18
(lp1337
I1
aI5
asg20
I3
sg21
g264
sg23
I00
sba(iMAG
Car
p1338
(dp1339
g10
(lp1340
I2
aI4
asg12
g833
sg14
(lp1341
sg16
g799
sg18
(lp1342
I1
aI4
asg20
I2
sg21
g892
sg23
I00
sba(iMAG
Car
p1343
(dp1344
g10
(lp1345
I2
aI2
asg12
g840
sg14
(lp1346
sg16
g799
sg18
(lp1347
I1
aI2
asg20
I2
sg21
g571
sg23
I00
sba(iMAG
Car
p1348
(dp1349
g10
(lp1350
I5
aI1
asg12
g847
sg14
(lp1351
sg16
g799
sg18
(lp1352
I4
aI1
asg20
I2
sg21
g177
sg23
I00
sba(iMAG
Car
p1353
(dp1354
g10
(lp1355
I5
aI0
asg12
g854
sg14
(lp1356
sg16
g799
sg18
(lp1357
I4
aI0
asg20
I2
sg21
g687
sg23
I00
sbasg80
Nsg81
S'7...66\n7...44\n7RR3..>\n...3..\n.00315\n.22215\n'
p1358
sba(inode
Node
p1359
(dp1360
g3
Nsg4
(lp1361
sg6
(lp1362
(iMAG
Car
p1363
(dp1364
g10
(lp1365
I4
aI5
asg12
g797
sg14
(lp1366
sg16
g799
sg18
(lp1367
I4
aI4
asg20
I2
sg21
g193
sg23
I00
sba(iMAG
Car
p1368
(dp1369
g10
(lp1370
I3
aI4
asg12
g805
sg14
(lp1371
sg16
g799
sg18
(lp1372
I3
aI2
asg20
I3
sg21
g305
sg23
I00
sba(iMAG
Car
p1373
(dp1374
g10
(lp1375
I5
aI5
asg12
g812
sg14
(lp1376
sg16
g799
sg18
(lp1377
I5
aI4
asg20
I2
sg21
g121
sg23
I00
sba(iMAG
Car
p1378
(dp1379
g10
(lp1380
I0
aI2
asg12
g819
sg14
(lp1381
sg16
g799
sg18
(lp1382
I0
aI0
asg20
I3
sg21
g763
sg23
I00
sba(iMAG
Car
p1383
(dp1384
g10
(lp1385
I3
aI5
asg12
g826
sg14
(lp1386
sg16
g799
sg18
(lp1387
I1
aI5
asg20
I3
sg21
g264
sg23
I00
sba(iMAG
Car
p1388
(dp1389
g10
(lp1390
I1
aI4
asg12
g833
sg14
(lp1391
sg16
g799
sg18
(lp1392
I0
aI4
asg20
I2
sg21
g892
sg23
I00
sba(iMAG
Car
p1393
(dp1394
g10
(lp1395
I2
aI2
asg12
g840
sg14
(lp1396
sg16
g799
sg18
(lp1397
I1
aI2
asg20
I2
sg21
g571
sg23
I00
sba(iMAG
Car
p1398
(dp1399
g10
(lp1400
I5
aI1
asg12
g847
sg14
(lp1401
sg16
g799
sg18
(lp1402
I4
aI1
asg20
I2
sg21
g177
sg23
I00
sba(iMAG
Car
p1403
(dp1404
g10
(lp1405
I5
aI0
asg12
g854
sg14
(lp1406
sg16
g799
sg18
(lp1407
I4
aI0
asg20
I2
sg21
g687
sg23
I00
sbasg80
Nsg81
S'7...66\n7...44\n7RR3..>\n...3..\n00.315\n.22215\n'
p1408
sba(inode
Node
p1409
(dp1410
g3
Nsg4
(lp1411
sg6
(lp1412
(iMAG
Car
p1413
(dp1414
g10
(lp1415
I4
aI5
asg12
g797
sg14
(lp1416
sg16
g799
sg18
(lp1417
I4
aI4
asg20
I2
sg21
g193
sg23
I00
sba(iMAG
Car
p1418
(dp1419
g10
(lp1420
I3
aI4
asg12
g805
sg14
(lp1421
sg16
g799
sg18
(lp1422
I3
aI2
asg20
I3
sg21
g305
sg23
I00
sba(iMAG
Car
p1423
(dp1424
g10
(lp1425
I5
aI5
asg12
g812
sg14
(lp1426
sg16
g799
sg18
(lp1427
I5
aI4
asg20
I2
sg21
g121
sg23
I00
sba(iMAG
Car
p1428
(dp1429
g10
(lp1430
I0
aI2
asg12
g819
sg14
(lp1431
sg16
g799
sg18
(lp1432
I0
aI0
asg20
I3
sg21
g763
sg23
I00
sba(iMAG
Car
p1433
(dp1434
g10
(lp1435
I2
aI5
asg12
g826
sg14
(lp1436
sg16
g799
sg18
(lp1437
I0
aI5
asg20
I3
sg21
g264
sg23
I00
sba(iMAG
Car
p1438
(dp1439
g10
(lp1440
I1
aI4
asg12
g833
sg14
(lp1441
sg16
g799
sg18
(lp1442
I0
aI4
asg20
I2
sg21
g892
sg23
I00
sba(iMAG
Car
p1443
(dp1444
g10
(lp1445
I2
aI2
asg12
g840
sg14
(lp1446
sg16
g799
sg18
(lp1447
I1
aI2
asg20
I2
sg21
g571
sg23
I00
sba(iMAG
Car
p1448
(dp1449
g10
(lp1450
I5
aI1
asg12
g847
sg14
(lp1451
sg16
g799
sg18
(lp1452
I4
aI1
asg20
I2
sg21
g177
sg23
I00
sba(iMAG
Car
p1453
(dp1454
g10
(lp1455
I5
aI0
asg12
g854
sg14
(lp1456
sg16
g799
sg18
(lp1457
I4
aI0
asg20
I2
sg21
g687
sg23
I00
sbasg80
Nsg81
S'7...66\n7...44\n7RR3..>\n...3..\n00.315\n222.15\n'
p1458
sba(inode
Node
p1459
(dp1460
g3
Nsg4
(lp1461
sg6
(lp1462
(iMAG
Car
p1463
(dp1464
g10
(lp1465
I4
aI5
asg12
g797
sg14
(lp1466
sg16
g799
sg18
(lp1467
I4
aI4
asg20
I2
sg21
g193
sg23
I00
sba(iMAG
Car
p1468
(dp1469
g10
(lp1470
I3
aI5
asg12
g805
sg14
(lp1471
sg16
g799
sg18
(lp1472
I3
aI3
asg20
I3
sg21
g305
sg23
I00
sba(iMAG
Car
p1473
(dp1474
g10
(lp1475
I5
aI5
asg12
g812
sg14
(lp1476
sg16
g799
sg18
(lp1477
I5
aI4
asg20
I2
sg21
g121
sg23
I00
sba(iMAG
Car
p1478
(dp1479
g10
(lp1480
I0
aI2
asg12
g819
sg14
(lp1481
sg16
g799
sg18
(lp1482
I0
aI0
asg20
I3
sg21
g763
sg23
I00
sba(iMAG
Car
p1483
(dp1484
g10
(lp1485
I2
aI5
asg12
g826
sg14
(lp1486
sg16
g799
sg18
(lp1487
I0
aI5
asg20
I3
sg21
g264
sg23
I00
sba(iMAG
Car
p1488
(dp1489
g10
(lp1490
I1
aI4
asg12
g833
sg14
(lp1491
sg16
g799
sg18
(lp1492
I0
aI4
asg20
I2
sg21
g892
sg23
I00
sba(iMAG
Car
p1493
(dp1494
g10
(lp1495
I2
aI2
asg12
g840
sg14
(lp1496
sg16
g799
sg18
(lp1497
I1
aI2
asg20
I2
sg21
g571
sg23
I00
sba(iMAG
Car
p1498
(dp1499
g10
(lp1500
I5
aI1
asg12
g847
sg14
(lp1501
sg16
g799
sg18
(lp1502
I4
aI1
asg20
I2
sg21
g177
sg23
I00
sba(iMAG
Car
p1503
(dp1504
g10
(lp1505
I5
aI0
asg12
g854
sg14
(lp1506
sg16
g799
sg18
(lp1507
I4
aI0
asg20
I2
sg21
g687
sg23
I00
sbasg80
Nsg81
S'7...66\n7...44\n7RR...>\n...3..\n00.315\n222315\n'
p1508
sba(inode
Node
p1509
(dp1510
g3
Nsg4
(lp1511
sg6
(lp1512
(iMAG
Car
p1513
(dp1514
g10
(lp1515
I5
aI3
asg12
Vvertical
p1516
sg14
(lp1517
sg16
Vprb26567
p1518
sg18
(lp1519
I5
aI2
asg20
I2
sg21
V1
p1520
sg23
I00
sba(iMAG
Car
p1521
(dp1522
g10
(lp1523
I4
aI2
asg12
Vvertical
p1524
sg14
(lp1525
sg16
g1518
sg18
(lp1526
I4
aI0
asg20
I3
sg21
V3
p1527
sg23
I00
sba(iMAG
Car
p1528
(dp1529
g10
(lp1530
I0
aI5
asg12
Vvertical
p1531
sg14
(lp1532
sg16
g1518
sg18
(lp1533
I0
aI3
asg20
I3
sg21
V5
p1534
sg23
I00
sba(iMAG
Car
p1535
(dp1536
g10
(lp1537
I0
aI1
asg12
Vvertical
p1538
sg14
(lp1539
sg16
g1518
sg18
(lp1540
I0
aI0
asg20
I2
sg21
V4
p1541
sg23
I00
sba(iMAG
Car
p1542
(dp1543
g10
(lp1544
I1
aI5
asg12
Vvertical
p1545
sg14
(lp1546
sg16
g1518
sg18
(lp1547
I1
aI4
asg20
I2
sg21
V7
p1548
sg23
I00
sba(iMAG
Car
p1549
(dp1550
g10
(lp1551
I4
aI4
asg12
Vhorizontal
p1552
sg14
(lp1553
sg16
g1518
sg18
(lp1554
I2
aI4
asg20
I3
sg21
V2
p1555
sg23
I00
sba(iMAG
Car
p1556
(dp1557
g10
(lp1558
I3
aI3
asg12
Vhorizontal
p1559
sg14
(lp1560
sg16
g1518
sg18
(lp1561
I2
aI3
asg20
I2
sg21
V0
p1562
sg23
I00
sba(iMAG
Car
p1563
(dp1564
g10
(lp1565
I1
aI2
asg12
Vhorizontal
p1566
sg14
(lp1567
sg16
g1518
sg18
(lp1568
I0
aI2
asg20
I2
sg21
Vr
p1569
sg23
I00
sba(iMAG
Car
p1570
(dp1571
g10
(lp1572
I2
aI1
asg12
Vhorizontal
p1573
sg14
(lp1574
sg16
g1518
sg18
(lp1575
I1
aI1
asg20
I2
sg21
V6
p1576
sg23
I00
sbasg80
Nsg81
Nsba(inode
Node
p1577
(dp1578
g3
Nsg4
(lp1579
sg6
(lp1580
(iMAG
Car
p1581
(dp1582
g10
(lp1583
I5
aI5
asg12
g1516
sg14
(lp1584
sg16
g1518
sg18
(lp1585
I5
aI4
asg20
I2
sg21
g193
sg23
I00
sba(iMAG
Car
p1586
(dp1587
g10
(lp1588
I4
aI2
asg12
g1524
sg14
(lp1589
sg16
g1518
sg18
(lp1590
I4
aI0
asg20
I3
sg21
g1527
sg23
I00
sba(iMAG
Car
p1591
(dp1592
g10
(lp1593
I0
aI5
asg12
g1531
sg14
(lp1594
sg16
g1518
sg18
(lp1595
I0
aI3
asg20
I3
sg21
g1534
sg23
I00
sba(iMAG
Car
p1596
(dp1597
g10
(lp1598
I0
aI1
asg12
g1538
sg14
(lp1599
sg16
g1518
sg18
(lp1600
I0
aI0
asg20
I2
sg21
g1541
sg23
I00
sba(iMAG
Car
p1601
(dp1602
g10
(lp1603
I1
aI5
asg12
g1545
sg14
(lp1604
sg16
g1518
sg18
(lp1605
I1
aI4
asg20
I2
sg21
g1548
sg23
I00
sba(iMAG
Car
p1606
(dp1607
g10
(lp1608
I4
aI4
asg12
g1552
sg14
(lp1609
sg16
g1518
sg18
(lp1610
I2
aI4
asg20
I3
sg21
g1555
sg23
I00
sba(iMAG
Car
p1611
(dp1612
g10
(lp1613
I3
aI3
asg12
g1559
sg14
(lp1614
sg16
g1518
sg18
(lp1615
I2
aI3
asg20
I2
sg21
g1562
sg23
I00
sba(iMAG
Car
p1616
(dp1617
g10
(lp1618
I1
aI2
asg12
g1566
sg14
(lp1619
sg16
g1518
sg18
(lp1620
I0
aI2
asg20
I2
sg21
g1569
sg23
I00
sba(iMAG
Car
p1621
(dp1622
g10
(lp1623
I2
aI1
asg12
g1573
sg14
(lp1624
sg16
g1518
sg18
(lp1625
I1
aI1
asg20
I2
sg21
g1576
sg23
I00
sbasg80
Nsg81
V4...3.\u000a466.3.\u000aRR..3.>\u000a5.00..\u000a572221\u000a57...1\u000a
p1626
sba(inode
Node
p1627
(dp1628
g3
Nsg4
(lp1629
sg6
(lp1630
(iMAG
Car
p1631
(dp1632
g10
(lp1633
I5
aI5
asg12
g1516
sg14
(lp1634
sg16
g1518
sg18
(lp1635
I5
aI4
asg20
I2
sg21
g193
sg23
I00
sba(iMAG
Car
p1636
(dp1637
g10
(lp1638
I4
aI2
asg12
g1524
sg14
(lp1639
sg16
g1518
sg18
(lp1640
I4
aI0
asg20
I3
sg21
g1527
sg23
I00
sba(iMAG
Car
p1641
(dp1642
g10
(lp1643
I0
aI5
asg12
g1531
sg14
(lp1644
sg16
g1518
sg18
(lp1645
I0
aI3
asg20
I3
sg21
g1534
sg23
I00
sba(iMAG
Car
p1646
(dp1647
g10
(lp1648
I0
aI1
asg12
g1538
sg14
(lp1649
sg16
g1518
sg18
(lp1650
I0
aI0
asg20
I2
sg21
g1541
sg23
I00
sba(iMAG
Car
p1651
(dp1652
g10
(lp1653
I1
aI5
asg12
g1545
sg14
(lp1654
sg16
g1518
sg18
(lp1655
I1
aI4
asg20
I2
sg21
g1548
sg23
I00
sba(iMAG
Car
p1656
(dp1657
g10
(lp1658
I4
aI4
asg12
g1552
sg14
(lp1659
sg16
g1518
sg18
(lp1660
I2
aI4
asg20
I3
sg21
g1555
sg23
I00
sba(iMAG
Car
p1661
(dp1662
g10
(lp1663
I5
aI3
asg12
g1559
sg14
(lp1664
sg16
g1518
sg18
(lp1665
I4
aI3
asg20
I2
sg21
g892
sg23
I00
sba(iMAG
Car
p1666
(dp1667
g10
(lp1668
I1
aI2
asg12
g1566
sg14
(lp1669
sg16
g1518
sg18
(lp1670
I0
aI2
asg20
I2
sg21
g1569
sg23
I00
sba(iMAG
Car
p1671
(dp1672
g10
(lp1673
I2
aI1
asg12
g1573
sg14
(lp1674
sg16
g1518
sg18
(lp1675
I1
aI1
asg20
I2
sg21
g1576
sg23
I00
sbasg80
Nsg81
V4...3.\u000a466.3.\u000aRR..3.>\u000a5...00\u000a572221\u000a57...1\u000a
p1676
sba(inode
Node
p1677
(dp1678
g3
Nsg4
(lp1679
sg6
(lp1680
(iMAG
Car
p1681
(dp1682
g10
(lp1683
I5
aI5
asg12
g1516
sg14
(lp1684
sg16
g1518
sg18
(lp1685
I5
aI4
asg20
I2
sg21
g193
sg23
I00
sba(iMAG
Car
p1686
(dp1687
g10
(lp1688
I4
aI2
asg12
g1524
sg14
(lp1689
sg16
g1518
sg18
(lp1690
I4
aI0
asg20
I3
sg21
g1527
sg23
I00
sba(iMAG
Car
p1691
(dp1692
g10
(lp1693
I0
aI5
asg12
g1531
sg14
(lp1694
sg16
g1518
sg18
(lp1695
I0
aI3
asg20
I3
sg21
g1534
sg23
I00
sba(iMAG
Car
p1696
(dp1697
g10
(lp1698
I0
aI1
asg12
g1538
sg14
(lp1699
sg16
g1518
sg18
(lp1700
I0
aI0
asg20
I2
sg21
g1541
sg23
I00
sba(iMAG
Car
p1701
(dp1702
g10
(lp1703
I1
aI4
asg12
g1545
sg14
(lp1704
sg16
g1518
sg18
(lp1705
I1
aI3
asg20
I2
sg21
g763
sg23
I00
sba(iMAG
Car
p1706
(dp1707
g10
(lp1708
I4
aI4
asg12
g1552
sg14
(lp1709
sg16
g1518
sg18
(lp1710
I2
aI4
asg20
I3
sg21
g1555
sg23
I00
sba(iMAG
Car
p1711
(dp1712
g10
(lp1713
I5
aI3
asg12
g1559
sg14
(lp1714
sg16
g1518
sg18
(lp1715
I4
aI3
asg20
I2
sg21
g892
sg23
I00
sba(iMAG
Car
p1716
(dp1717
g10
(lp1718
I1
aI2
asg12
g1566
sg14
(lp1719
sg16
g1518
sg18
(lp1720
I0
aI2
asg20
I2
sg21
g1569
sg23
I00
sba(iMAG
Car
p1721
(dp1722
g10
(lp1723
I2
aI1
asg12
g1573
sg14
(lp1724
sg16
g1518
sg18
(lp1725
I1
aI1
asg20
I2
sg21
g1576
sg23
I00
sbasg80
Nsg81
V4...3.\u000a466.3.\u000aRR..3.>\u000a57..00\u000a572221\u000a5....1\u000a
p1726
sba(inode
Node
p1727
(dp1728
g3
Nsg4
(lp1729
sg6
(lp1730
(iMAG
Car
p1731
(dp1732
g10
(lp1733
I5
aI5
asg12
g1516
sg14
(lp1734
sg16
g1518
sg18
(lp1735
I5
aI4
asg20
I2
sg21
g193
sg23
I00
sba(iMAG
Car
p1736
(dp1737
g10
(lp1738
I4
aI2
asg12
g1524
sg14
(lp1739
sg16
g1518
sg18
(lp1740
I4
aI0
asg20
I3
sg21
g1527
sg23
I00
sba(iMAG
Car
p1741
(dp1742
g10
(lp1743
I0
aI5
asg12
g1531
sg14
(lp1744
sg16
g1518
sg18
(lp1745
I0
aI3
asg20
I3
sg21
g1534
sg23
I00
sba(iMAG
Car
p1746
(dp1747
g10
(lp1748
I0
aI1
asg12
g1538
sg14
(lp1749
sg16
g1518
sg18
(lp1750
I0
aI0
asg20
I2
sg21
g1541
sg23
I00
sba(iMAG
Car
p1751
(dp1752
g10
(lp1753
I1
aI4
asg12
g1545
sg14
(lp1754
sg16
g1518
sg18
(lp1755
I1
aI3
asg20
I2
sg21
g763
sg23
I00
sba(iMAG
Car
p1756
(dp1757
g10
(lp1758
I4
aI4
asg12
g1552
sg14
(lp1759
sg16
g1518
sg18
(lp1760
I2
aI4
asg20
I3
sg21
g1555
sg23
I00
sba(iMAG
Car
p1761
(dp1762
g10
(lp1763
I5
aI3
asg12
g1559
sg14
(lp1764
sg16
g1518
sg18
(lp1765
I4
aI3
asg20
I2
sg21
g892
sg23
I00
sba(iMAG
Car
p1766
(dp1767
g10
(lp1768
I1
aI2
asg12
g1566
sg14
(lp1769
sg16
g1518
sg18
(lp1770
I0
aI2
asg20
I2
sg21
g1569
sg23
I00
sba(iMAG
Car
p1771
(dp1772
g10
(lp1773
I3
aI1
asg12
g1573
sg14
(lp1774
sg16
g1518
sg18
(lp1775
I2
aI1
asg20
I2
sg21
g687
sg23
I00
sbasg80
Nsg81
V4...3.\u000a4.663.\u000aRR..3.>\u000a57..00\u000a572221\u000a5....1\u000a
p1776
sba(inode
Node
p1777
(dp1778
g3
Nsg4
(lp1779
sg6
(lp1780
(iMAG
Car
p1781
(dp1782
g10
(lp1783
I5
aI5
asg12
g1516
sg14
(lp1784
sg16
g1518
sg18
(lp1785
I5
aI4
asg20
I2
sg21
g193
sg23
I00
sba(iMAG
Car
p1786
(dp1787
g10
(lp1788
I4
aI2
asg12
g1524
sg14
(lp1789
sg16
g1518
sg18
(lp1790
I4
aI0
asg20
I3
sg21
g1527
sg23
I00
sba(iMAG
Car
p1791
(dp1792
g10
(lp1793
I0
aI5
asg12
g1531
sg14
(lp1794
sg16
g1518
sg18
(lp1795
I0
aI3
asg20
I3
sg21
g1534
sg23
I00
sba(iMAG
Car
p1796
(dp1797
g10
(lp1798
I0
aI1
asg12
g1538
sg14
(lp1799
sg16
g1518
sg18
(lp1800
I0
aI0
asg20
I2
sg21
g1541
sg23
I00
sba(iMAG
Car
p1801
(dp1802
g10
(lp1803
I1
aI4
asg12
g1545
sg14
(lp1804
sg16
g1518
sg18
(lp1805
I1
aI3
asg20
I2
sg21
g763
sg23
I00
sba(iMAG
Car
p1806
(dp1807
g10
(lp1808
I4
aI4
asg12
g1552
sg14
(lp1809
sg16
g1518
sg18
(lp1810
I2
aI4
asg20
I3
sg21
g1555
sg23
I00
sba(iMAG
Car
p1811
(dp1812
g10
(lp1813
I5
aI3
asg12
g1559
sg14
(lp1814
sg16
g1518
sg18
(lp1815
I4
aI3
asg20
I2
sg21
g892
sg23
I00
sba(iMAG
Car
p1816
(dp1817
g10
(lp1818
I3
aI2
asg12
g1566
sg14
(lp1819
sg16
g1518
sg18
(lp1820
I2
aI2
asg20
I2
sg21
g571
sg23
I00
sba(iMAG
Car
p1821
(dp1822
g10
(lp1823
I3
aI1
asg12
g1573
sg14
(lp1824
sg16
g1518
sg18
(lp1825
I2
aI1
asg20
I2
sg21
g687
sg23
I00
sbasg80
Nsg81
V4...3.\u000a4.663.\u000a..RR3.>\u000a57..00\u000a572221\u000a5....1\u000a
p1826
sba(inode
Node
p1827
(dp1828
g3
Nsg4
(lp1829
sg6
(lp1830
(iMAG
Car
p1831
(dp1832
g10
(lp1833
I5
aI5
asg12
g1516
sg14
(lp1834
sg16
g1518
sg18
(lp1835
I5
aI4
asg20
I2
sg21
g193
sg23
I00
sba(iMAG
Car
p1836
(dp1837
g10
(lp1838
I4
aI2
asg12
g1524
sg14
(lp1839
sg16
g1518
sg18
(lp1840
I4
aI0
asg20
I3
sg21
g1527
sg23
I00
sba(iMAG
Car
p1841
(dp1842
g10
(lp1843
I0
aI4
asg12
g1531
sg14
(lp1844
sg16
g1518
sg18
(lp1845
I0
aI2
asg20
I3
sg21
g121
sg23
I00
sba(iMAG
Car
p1846
(dp1847
g10
(lp1848
I0
aI1
asg12
g1538
sg14
(lp1849
sg16
g1518
sg18
(lp1850
I0
aI0
asg20
I2
sg21
g1541
sg23
I00
sba(iMAG
Car
p1851
(dp1852
g10
(lp1853
I1
aI4
asg12
g1545
sg14
(lp1854
sg16
g1518
sg18
(lp1855
I1
aI3
asg20
I2
sg21
g763
sg23
I00
sba(iMAG
Car
p1856
(dp1857
g10
(lp1858
I4
aI4
asg12
g1552
sg14
(lp1859
sg16
g1518
sg18
(lp1860
I2
aI4
asg20
I3
sg21
g1555
sg23
I00
sba(iMAG
Car
p1861
(dp1862
g10
(lp1863
I5
aI3
asg12
g1559
sg14
(lp1864
sg16
g1518
sg18
(lp1865
I4
aI3
asg20
I2
sg21
g892
sg23
I00
sba(iMAG
Car
p1866
(dp1867
g10
(lp1868
I3
aI2
asg12
g1566
sg14
(lp1869
sg16
g1518
sg18
(lp1870
I2
aI2
asg20
I2
sg21
g571
sg23
I00
sba(iMAG
Car
p1871
(dp1872
g10
(lp1873
I3
aI1
asg12
g1573
sg14
(lp1874
sg16
g1518
sg18
(lp1875
I2
aI1
asg20
I2
sg21
g687
sg23
I00
sbasg80
Nsg81
V4...3.\u000a4.663.\u000a5.RR3.>\u000a57..00\u000a572221\u000a.....1\u000a
p1876
sba(inode
Node
p1877
(dp1878
g3
Nsg4
(lp1879
sg6
(lp1880
(iMAG
Car
p1881
(dp1882
g10
(lp1883
I5
aI5
asg12
g1516
sg14
(lp1884
sg16
g1518
sg18
(lp1885
I5
aI4
asg20
I2
sg21
g193
sg23
I00
sba(iMAG
Car
p1886
(dp1887
g10
(lp1888
I4
aI2
asg12
g1524
sg14
(lp1889
sg16
g1518
sg18
(lp1890
I4
aI0
asg20
I3
sg21
g1527
sg23
I00
sba(iMAG
Car
p1891
(dp1892
g10
(lp1893
I0
aI4
asg12
g1531
sg14
(lp1894
sg16
g1518
sg18
(lp1895
I0
aI2
asg20
I3
sg21
g121
sg23
I00
sba(iMAG
Car
p1896
(dp1897
g10
(lp1898
I0
aI1
asg12
g1538
sg14
(lp1899
sg16
g1518
sg18
(lp1900
I0
aI0
asg20
I2
sg21
g1541
sg23
I00
sba(iMAG
Car
p1901
(dp1902
g10
(lp1903
I1
aI1
asg12
g1545
sg14
(lp1904
sg16
g1518
sg18
(lp1905
I1
aI0
asg20
I2
sg21
g763
sg23
I00
sba(iMAG
Car
p1906
(dp1907
g10
(lp1908
I4
aI4
asg12
g1552
sg14
(lp1909
sg16
g1518
sg18
(lp1910
I2
aI4
asg20
I3
sg21
g1555
sg23
I00
sba(iMAG
Car
p1911
(dp1912
g10
(lp1913
I5
aI3
asg12
g1559
sg14
(lp1914
sg16
g1518
sg18
(lp1915
I4
aI3
asg20
I2
sg21
g892
sg23
I00
sba(iMAG
Car
p1916
(dp1917
g10
(lp1918
I3
aI2
asg12
g1566
sg14
(lp1919
sg16
g1518
sg18
(lp1920
I2
aI2
asg20
I2
sg21
g571
sg23
I00
sba(iMAG
Car
p1921
(dp1922
g10
(lp1923
I3
aI1
asg12
g1573
sg14
(lp1924
sg16
g1518
sg18
(lp1925
I2
aI1
asg20
I2
sg21
g687
sg23
I00
sbasg80
Nsg81
V47..3.\u000a47663.\u000a5.RR3.>\u000a5...00\u000a5.2221\u000a.....1\u000a
p1926
sba(inode
Node
p1927
(dp1928
g3
Nsg4
(lp1929
sg6
(lp1930
(iMAG
Car
p1931
(dp1932
g10
(lp1933
I5
aI5
asg12
g1516
sg14
(lp1934
sg16
g1518
sg18
(lp1935
I5
aI4
asg20
I2
sg21
g193
sg23
I00
sba(iMAG
Car
p1936
(dp1937
g10
(lp1938
I4
aI2
asg12
g1524
sg14
(lp1939
sg16
g1518
sg18
(lp1940
I4
aI0
asg20
I3
sg21
g1527
sg23
I00
sba(iMAG
Car
p1941
(dp1942
g10
(lp1943
I0
aI4
asg12
g1531
sg14
(lp1944
sg16
g1518
sg18
(lp1945
I0
aI2
asg20
I3
sg21
g121
sg23
I00
sba(iMAG
Car
p1946
(dp1947
g10
(lp1948
I0
aI1
asg12
g1538
sg14
(lp1949
sg16
g1518
sg18
(lp1950
I0
aI0
asg20
I2
sg21
g1541
sg23
I00
sba(iMAG
Car
p1951
(dp1952
g10
(lp1953
I1
aI1
asg12
g1545
sg14
(lp1954
sg16
g1518
sg18
(lp1955
I1
aI0
asg20
I2
sg21
g763
sg23
I00
sba(iMAG
Car
p1956
(dp1957
g10
(lp1958
I3
aI4
asg12
g1552
sg14
(lp1959
sg16
g1518
sg18
(lp1960
I1
aI4
asg20
I3
sg21
g264
sg23
I00
sba(iMAG
Car
p1961
(dp1962
g10
(lp1963
I5
aI3
asg12
g1559
sg14
(lp1964
sg16
g1518
sg18
(lp1965
I4
aI3
asg20
I2
sg21
g892
sg23
I00
sba(iMAG
Car
p1966
(dp1967
g10
(lp1968
I3
aI2
asg12
g1566
sg14
(lp1969
sg16
g1518
sg18
(lp1970
I2
aI2
asg20
I2
sg21
g571
sg23
I00
sba(iMAG
Car
p1971
(dp1972
g10
(lp1973
I3
aI1
asg12
g1573
sg14
(lp1974
sg16
g1518
sg18
(lp1975
I2
aI1
asg20
I2
sg21
g687
sg23
I00
sbasg80
Nsg81
V47..3.\u000a47663.\u000a5.RR3.>\u000a5...00\u000a5222.1\u000a.....1\u000a
p1976
sba(inode
Node
p1977
(dp1978
g3
Nsg4
(lp1979
sg6
(lp1980
(iMAG
Car
p1981
(dp1982
g10
(lp1983
I5
aI5
asg12
g1516
sg14
(lp1984
sg16
g1518
sg18
(lp1985
I5
aI4
asg20
I2
sg21
g193
sg23
I00
sba(iMAG
Car
p1986
(dp1987
g10
(lp1988
I4
aI2
asg12
g1524
sg14
(lp1989
sg16
g1518
sg18
(lp1990
I4
aI0
asg20
I3
sg21
g1527
sg23
I00
sba(iMAG
Car
p1991
(dp1992
g10
(lp1993
I0
aI4
asg12
g1531
sg14
(lp1994
sg16
g1518
sg18
(lp1995
I0
aI2
asg20
I3
sg21
g121
sg23
I00
sba(iMAG
Car
p1996
(dp1997
g10
(lp1998
I0
aI1
asg12
g1538
sg14
(lp1999
sg16
g1518
sg18
(lp2000
I0
aI0
asg20
I2
sg21
g1541
sg23
I00
sba(iMAG
Car
p2001
(dp2002
g10
(lp2003
I1
aI1
asg12
g1545
sg14
(lp2004
sg16
g1518
sg18
(lp2005
I1
aI0
asg20
I2
sg21
g763
sg23
I00
sba(iMAG
Car
p2006
(dp2007
g10
(lp2008
I3
aI4
asg12
g1552
sg14
(lp2009
sg16
g1518
sg18
(lp2010
I1
aI4
asg20
I3
sg21
g264
sg23
I00
sba(iMAG
Car
p2011
(dp2012
g10
(lp2013
I2
aI3
asg12
g1559
sg14
(lp2014
sg16
g1518
sg18
(lp2015
I1
aI3
asg20
I2
sg21
g892
sg23
I00
sba(iMAG
Car
p2016
(dp2017
g10
(lp2018
I3
aI2
asg12
g1566
sg14
(lp2019
sg16
g1518
sg18
(lp2020
I2
aI2
asg20
I2
sg21
g571
sg23
I00
sba(iMAG
Car
p2021
(dp2022
g10
(lp2023
I3
aI1
asg12
g1573
sg14
(lp2024
sg16
g1518
sg18
(lp2025
I2
aI1
asg20
I2
sg21
g687
sg23
I00
sbasg80
Nsg81
V47..3.\u000a47663.\u000a5.RR3.>\u000a500...\u000a5222.1\u000a.....1\u000a
p2026
sba(inode
Node
p2027
(dp2028
g3
Nsg4
(lp2029
sg6
(lp2030
(iMAG
Car
p2031
(dp2032
g10
(lp2033
I5
aI5
asg12
g1516
sg14
(lp2034
sg16
g1518
sg18
(lp2035
I5
aI4
asg20
I2
sg21
g193
sg23
I00
sba(iMAG
Car
p2036
(dp2037
g10
(lp2038
I4
aI5
asg12
g1524
sg14
(lp2039
sg16
g1518
sg18
(lp2040
I4
aI3
asg20
I3
sg21
g305
sg23
I00
sba(iMAG
Car
p2041
(dp2042
g10
(lp2043
I0
aI4
asg12
g1531
sg14
(lp2044
sg16
g1518
sg18
(lp2045
I0
aI2
asg20
I3
sg21
g121
sg23
I00
sba(iMAG
Car
p2046
(dp2047
g10
(lp2048
I0
aI1
asg12
g1538
sg14
(lp2049
sg16
g1518
sg18
(lp2050
I0
aI0
asg20
I2
sg21
g1541
sg23
I00
sba(iMAG
Car
p2051
(dp2052
g10
(lp2053
I1
aI1
asg12
g1545
sg14
(lp2054
sg16
g1518
sg18
(lp2055
I1
aI0
asg20
I2
sg21
g763
sg23
I00
sba(iMAG
Car
p2056
(dp2057
g10
(lp2058
I3
aI4
asg12
g1552
sg14
(lp2059
sg16
g1518
sg18
(lp2060
I1
aI4
asg20
I3
sg21
g264
sg23
I00
sba(iMAG
Car
p2061
(dp2062
g10
(lp2063
I2
aI3
asg12
g1559
sg14
(lp2064
sg16
g1518
sg18
(lp2065
I1
aI3
asg20
I2
sg21
g892
sg23
I00
sba(iMAG
Car
p2066
(dp2067
g10
(lp2068
I3
aI2
asg12
g1566
sg14
(lp2069
sg16
g1518
sg18
(lp2070
I2
aI2
asg20
I2
sg21
g571
sg23
I00
sba(iMAG
Car
p2071
(dp2072
g10
(lp2073
I3
aI1
asg12
g1573
sg14
(lp2074
sg16
g1518
sg18
(lp2075
I2
aI1
asg20
I2
sg21
g687
sg23
I00
sbasg80
Nsg81
V47....\u000a4766..\u000a5.RR..>\u000a500.3.\u000a522231\u000a....31\u000a
p2076
sba.