(lp0
(lp1
(i__main__
Car
p2
(dp3
S'end'
p4
(lp5
I0
aI2
asS'orientation'
p6
Vvertical
p7
sS'edge_to'
p8
(lp9
sS'puzzle_tag'
p10
Vprb11647
p11
sS'level'
p12
(lp13
sS'start'
p14
(lp15
I0
aI1
asS'length'
p16
I2
sS'tag'
p17
S'1'
p18
sS'visited'
p19
I00
sba(i__main__
Car
p20
(dp21
g4
(lp22
I3
aI2
asg6
Vvertical
p23
sg8
(lp24
sg10
g11
sg12
(lp25
sg14
(lp26
I3
aI0
asg16
I3
sg17
S'3'
p27
sg19
I00
sba(i__main__
Car
p28
(dp29
g4
(lp30
I4
aI2
asg6
Vvertical
p31
sg8
(lp32
sg10
g11
sg12
(lp33
sg14
(lp34
I4
aI1
asg16
I2
sg17
S'2'
p35
sg19
I00
sba(i__main__
Car
p36
(dp37
g4
(lp38
I2
aI1
asg6
Vvertical
p39
sg8
(lp40
sg10
g11
sg12
(lp41
sg14
(lp42
I2
aI0
asg16
I2
sg17
S'4'
p43
sg19
I00
sba(i__main__
Car
p44
(dp45
g4
(lp46
I2
aI4
asg6
Vhorizontal
p47
sg8
(lp48
sg10
g11
sg12
(lp49
sg14
(lp50
I1
aI4
asg16
I2
sg17
S'0'
p51
sg19
I00
sba(i__main__
Car
p52
(dp53
g4
(lp54
I2
aI2
asg6
Vhorizontal
p55
sg8
(lp56
sg10
g11
sg12
(lp57
sg14
(lp58
I1
aI2
asg16
I2
sg17
S'r'
p59
sg19
I00
sba(i__main__
Car
p60
(dp61
g4
(lp62
I4
aI4
asg6
Vhorizontal
p63
sg8
(lp64
sg10
g11
sg12
(lp65
sg14
(lp66
I3
aI4
asg16
I2
sg17
S'5'
p67
sg19
I00
sba(i__main__
Car
p68
(dp69
g4
(lp70
I2
aI3
asg6
Vhorizontal
p71
sg8
(lp72
sg10
g11
sg12
(lp73
sg14
(lp74
I0
aI3
asg16
I3
sg17
cnumpy.core.multiarray
scalar
p75
(cnumpy
dtype
p76
(S'S1'
p77
I0
I1
tp78
Rp79
(I3
S'|'
p80
NNNI1
I1
I0
tp81
bS'7'
p82
tp83
Rp84
sg19
I00
sba(i__main__
Car
p85
(dp86
g4
(lp87
I3
aI5
asg6
Vhorizontal
p88
sg8
(lp89
sg10
g11
sg12
(lp90
sg14
(lp91
I1
aI5
asg16
I3
sg17
S'6'
p92
sg19
I00
sbaa(lp93
(i__main__
Car
p94
(dp95
g4
(lp96
I0
aI2
asg6
g7
sg8
(lp97
sg10
g11
sg12
(lp98
sg14
(lp99
I0
aI1
asg16
I2
sg17
g18
sg19
I00
sba(i__main__
Car
p100
(dp101
g4
(lp102
I3
aI2
asg6
g23
sg8
(lp103
sg10
g11
sg12
(lp104
sg14
(lp105
I3
aI0
asg16
I3
sg17
g27
sg19
I00
sba(i__main__
Car
p106
(dp107
g4
(lp108
I4
aI2
asg6
g31
sg8
(lp109
sg10
g11
sg12
(lp110
sg14
(lp111
I4
aI1
asg16
I2
sg17
g35
sg19
I00
sba(i__main__
Car
p112
(dp113
g4
(lp114
I2
aI1
asg6
g39
sg8
(lp115
sg10
g11
sg12
(lp116
sg14
(lp117
I2
aI0
asg16
I2
sg17
g43
sg19
I00
sba(i__main__
Car
p118
(dp119
g4
(lp120
I1
aI4
asg6
g47
sg8
(lp121
sg10
g11
sg12
(lp122
sg14
(lp123
I0
aI4
asg16
I2
sg17
g75
(g76
(S'S1'
p124
I0
I1
tp125
Rp126
(I3
S'|'
p127
NNNI1
I1
I0
tp128
bS'0'
p129
tp130
Rp131
sg19
I00
sba(i__main__
Car
p132
(dp133
g4
(lp134
I2
aI2
asg6
g55
sg8
(lp135
sg10
g11
sg12
(lp136
sg14
(lp137
I1
aI2
asg16
I2
sg17
g59
sg19
I00
sba(i__main__
Car
p138
(dp139
g4
(lp140
I4
aI4
asg6
g63
sg8
(lp141
sg10
g11
sg12
(lp142
sg14
(lp143
I3
aI4
asg16
I2
sg17
g67
sg19
I00
sba(i__main__
Car
p144
(dp145
g4
(lp146
I2
aI3
asg6
g71
sg8
(lp147
sg10
g11
sg12
(lp148
sg14
(lp149
I0
aI3
asg16
I3
sg17
g84
sg19
I00
sba(i__main__
Car
p150
(dp151
g4
(lp152
I3
aI5
asg6
g88
sg8
(lp153
sg10
g11
sg12
(lp154
sg14
(lp155
I1
aI5
asg16
I3
sg17
g92
sg19
I00
sbaa(lp156
(i__main__
Car
p157
(dp158
g4
(lp159
I0
aI2
asg6
g7
sg8
(lp160
sg10
g11
sg12
(lp161
sg14
(lp162
I0
aI1
asg16
I2
sg17
g18
sg19
I00
sba(i__main__
Car
p163
(dp164
g4
(lp165
I3
aI2
asg6
g23
sg8
(lp166
sg10
g11
sg12
(lp167
sg14
(lp168
I3
aI0
asg16
I3
sg17
g27
sg19
I00
sba(i__main__
Car
p169
(dp170
g4
(lp171
I4
aI2
asg6
g31
sg8
(lp172
sg10
g11
sg12
(lp173
sg14
(lp174
I4
aI1
asg16
I2
sg17
g35
sg19
I00
sba(i__main__
Car
p175
(dp176
g4
(lp177
I2
aI1
asg6
g39
sg8
(lp178
sg10
g11
sg12
(lp179
sg14
(lp180
I2
aI0
asg16
I2
sg17
g43
sg19
I00
sba(i__main__
Car
p181
(dp182
g4
(lp183
I1
aI4
asg6
g47
sg8
(lp184
sg10
g11
sg12
(lp185
sg14
(lp186
I0
aI4
asg16
I2
sg17
g131
sg19
I00
sba(i__main__
Car
p187
(dp188
g4
(lp189
I2
aI2
asg6
g55
sg8
(lp190
sg10
g11
sg12
(lp191
sg14
(lp192
I1
aI2
asg16
I2
sg17
g59
sg19
I00
sba(i__main__
Car
p193
(dp194
g4
(lp195
I3
aI4
asg6
g63
sg8
(lp196
sg10
g11
sg12
(lp197
sg14
(lp198
I2
aI4
asg16
I2
sg17
g75
(g76
(S'S1'
p199
I0
I1
tp200
Rp201
(I3
S'|'
p202
NNNI1
I1
I0
tp203
bS'5'
p204
tp205
Rp206
sg19
I00
sba(i__main__
Car
p207
(dp208
g4
(lp209
I2
aI3
asg6
g71
sg8
(lp210
sg10
g11
sg12
(lp211
sg14
(lp212
I0
aI3
asg16
I3
sg17
g84
sg19
I00
sba(i__main__
Car
p213
(dp214
g4
(lp215
I3
aI5
asg6
g88
sg8
(lp216
sg10
g11
sg12
(lp217
sg14
(lp218
I1
aI5
asg16
I3
sg17
g92
sg19
I00
sbaa(lp219
(i__main__
Car
p220
(dp221
g4
(lp222
I0
aI2
asg6
g7
sg8
(lp223
sg10
g11
sg12
(lp224
sg14
(lp225
I0
aI1
asg16
I2
sg17
g18
sg19
I00
sba(i__main__
Car
p226
(dp227
g4
(lp228
I3
aI2
asg6
g23
sg8
(lp229
sg10
g11
sg12
(lp230
sg14
(lp231
I3
aI0
asg16
I3
sg17
g27
sg19
I00
sba(i__main__
Car
p232
(dp233
g4
(lp234
I4
aI2
asg6
g31
sg8
(lp235
sg10
g11
sg12
(lp236
sg14
(lp237
I4
aI1
asg16
I2
sg17
g35
sg19
I00
sba(i__main__
Car
p238
(dp239
g4
(lp240
I2
aI1
asg6
g39
sg8
(lp241
sg10
g11
sg12
(lp242
sg14
(lp243
I2
aI0
asg16
I2
sg17
g43
sg19
I00
sba(i__main__
Car
p244
(dp245
g4
(lp246
I1
aI4
asg6
g47
sg8
(lp247
sg10
g11
sg12
(lp248
sg14
(lp249
I0
aI4
asg16
I2
sg17
g131
sg19
I00
sba(i__main__
Car
p250
(dp251
g4
(lp252
I2
aI2
asg6
g55
sg8
(lp253
sg10
g11
sg12
(lp254
sg14
(lp255
I1
aI2
asg16
I2
sg17
g59
sg19
I00
sba(i__main__
Car
p256
(dp257
g4
(lp258
I3
aI4
asg6
g63
sg8
(lp259
sg10
g11
sg12
(lp260
sg14
(lp261
I2
aI4
asg16
I2
sg17
g206
sg19
I00
sba(i__main__
Car
p262
(dp263
g4
(lp264
I2
aI3
asg6
g71
sg8
(lp265
sg10
g11
sg12
(lp266
sg14
(lp267
I0
aI3
asg16
I3
sg17
g84
sg19
I00
sba(i__main__
Car
p268
(dp269
g4
(lp270
I2
aI5
asg6
g88
sg8
(lp271
sg10
g11
sg12
(lp272
sg14
(lp273
I0
aI5
asg16
I3
sg17
g75
(g76
(S'S1'
p274
I0
I1
tp275
Rp276
(I3
S'|'
p277
NNNI1
I1
I0
tp278
bS'6'
p279
tp280
Rp281
sg19
I00
sbaa(lp282
(i__main__
Car
p283
(dp284
g4
(lp285
I0
aI2
asg6
g7
sg8
(lp286
sg10
g11
sg12
(lp287
sg14
(lp288
I0
aI1
asg16
I2
sg17
g18
sg19
I00
sba(i__main__
Car
p289
(dp290
g4
(lp291
I3
aI2
asg6
g23
sg8
(lp292
sg10
g11
sg12
(lp293
sg14
(lp294
I3
aI0
asg16
I3
sg17
g27
sg19
I00
sba(i__main__
Car
p295
(dp296
g4
(lp297
I4
aI5
asg6
g31
sg8
(lp298
sg10
g11
sg12
(lp299
sg14
(lp300
I4
aI4
asg16
I2
sg17
g75
(g76
(S'S1'
p301
I0
I1
tp302
Rp303
(I3
S'|'
p304
NNNI1
I1
I0
tp305
bS'2'
p306
tp307
Rp308
sg19
I00
sba(i__main__
Car
p309
(dp310
g4
(lp311
I2
aI1
asg6
g39
sg8
(lp312
sg10
g11
sg12
(lp313
sg14
(lp314
I2
aI0
asg16
I2
sg17
g43
sg19
I00
sba(i__main__
Car
p315
(dp316
g4
(lp317
I1
aI4
asg6
g47
sg8
(lp318
sg10
g11
sg12
(lp319
sg14
(lp320
I0
aI4
asg16
I2
sg17
g131
sg19
I00
sba(i__main__
Car
p321
(dp322
g4
(lp323
I2
aI2
asg6
g55
sg8
(lp324
sg10
g11
sg12
(lp325
sg14
(lp326
I1
aI2
asg16
I2
sg17
g59
sg19
I00
sba(i__main__
Car
p327
(dp328
g4
(lp329
I3
aI4
asg6
g63
sg8
(lp330
sg10
g11
sg12
(lp331
sg14
(lp332
I2
aI4
asg16
I2
sg17
g206
sg19
I00
sba(i__main__
Car
p333
(dp334
g4
(lp335
I2
aI3
asg6
g71
sg8
(lp336
sg10
g11
sg12
(lp337
sg14
(lp338
I0
aI3
asg16
I3
sg17
g84
sg19
I00
sba(i__main__
Car
p339
(dp340
g4
(lp341
I2
aI5
asg6
g88
sg8
(lp342
sg10
g11
sg12
(lp343
sg14
(lp344
I0
aI5
asg16
I3
sg17
g281
sg19
I00
sbaa(lp345
(i__main__
Car
p346
(dp347
g4
(lp348
I0
aI2
asg6
g7
sg8
(lp349
sg10
g11
sg12
(lp350
sg14
(lp351
I0
aI1
asg16
I2
sg17
g18
sg19
I00
sba(i__main__
Car
p352
(dp353
g4
(lp354
I3
aI2
asg6
g23
sg8
(lp355
sg10
g11
sg12
(lp356
sg14
(lp357
I3
aI0
asg16
I3
sg17
g27
sg19
I00
sba(i__main__
Car
p358
(dp359
g4
(lp360
I4
aI5
asg6
g31
sg8
(lp361
sg10
g11
sg12
(lp362
sg14
(lp363
I4
aI4
asg16
I2
sg17
g308
sg19
I00
sba(i__main__
Car
p364
(dp365
g4
(lp366
I2
aI1
asg6
g39
sg8
(lp367
sg10
g11
sg12
(lp368
sg14
(lp369
I2
aI0
asg16
I2
sg17
g43
sg19
I00
sba(i__main__
Car
p370
(dp371
g4
(lp372
I1
aI4
asg6
g47
sg8
(lp373
sg10
g11
sg12
(lp374
sg14
(lp375
I0
aI4
asg16
I2
sg17
g131
sg19
I00
sba(i__main__
Car
p376
(dp377
g4
(lp378
I2
aI2
asg6
g55
sg8
(lp379
sg10
g11
sg12
(lp380
sg14
(lp381
I1
aI2
asg16
I2
sg17
g59
sg19
I00
sba(i__main__
Car
p382
(dp383
g4
(lp384
I3
aI4
asg6
g63
sg8
(lp385
sg10
g11
sg12
(lp386
sg14
(lp387
I2
aI4
asg16
I2
sg17
g206
sg19
I00
sba(i__main__
Car
p388
(dp389
g4
(lp390
I5
aI3
asg6
g71
sg8
(lp391
sg10
g11
sg12
(lp392
sg14
(lp393
I3
aI3
asg16
I3
sg17
g75
(g76
(S'S1'
p394
I0
I1
tp395
Rp396
(I3
S'|'
p397
NNNI1
I1
I0
tp398
bg82
tp399
Rp400
sg19
I00
sba(i__main__
Car
p401
(dp402
g4
(lp403
I2
aI5
asg6
g88
sg8
(lp404
sg10
g11
sg12
(lp405
sg14
(lp406
I0
aI5
asg16
I3
sg17
g281
sg19
I00
sbaa(lp407
(i__main__
Car
p408
(dp409
g4
(lp410
I0
aI2
asg6
g7
sg8
(lp411
sg10
g11
sg12
(lp412
sg14
(lp413
I0
aI1
asg16
I2
sg17
g18
sg19
I00
sba(i__main__
Car
p414
(dp415
g4
(lp416
I3
aI2
asg6
g23
sg8
(lp417
sg10
g11
sg12
(lp418
sg14
(lp419
I3
aI0
asg16
I3
sg17
g27
sg19
I00
sba(i__main__
Car
p420
(dp421
g4
(lp422
I4
aI5
asg6
g31
sg8
(lp423
sg10
g11
sg12
(lp424
sg14
(lp425
I4
aI4
asg16
I2
sg17
g308
sg19
I00
sba(i__main__
Car
p426
(dp427
g4
(lp428
I2
aI1
asg6
g39
sg8
(lp429
sg10
g11
sg12
(lp430
sg14
(lp431
I2
aI0
asg16
I2
sg17
g43
sg19
I00
sba(i__main__
Car
p432
(dp433
g4
(lp434
I1
aI4
asg6
g47
sg8
(lp435
sg10
g11
sg12
(lp436
sg14
(lp437
I0
aI4
asg16
I2
sg17
g131
sg19
I00
sba(i__main__
Car
p438
(dp439
g4
(lp440
I2
aI2
asg6
g55
sg8
(lp441
sg10
g11
sg12
(lp442
sg14
(lp443
I1
aI2
asg16
I2
sg17
g59
sg19
I00
sba(i__main__
Car
p444
(dp445
g4
(lp446
I3
aI4
asg6
g63
sg8
(lp447
sg10
g11
sg12
(lp448
sg14
(lp449
I2
aI4
asg16
I2
sg17
g206
sg19
I00
sba(i__main__
Car
p450
(dp451
g4
(lp452
I5
aI3
asg6
g71
sg8
(lp453
sg10
g11
sg12
(lp454
sg14
(lp455
I3
aI3
asg16
I3
sg17
g400
sg19
I00
sba(i__main__
Car
p456
(dp457
g4
(lp458
I3
aI5
asg6
g88
sg8
(lp459
sg10
g11
sg12
(lp460
sg14
(lp461
I1
aI5
asg16
I3
sg17
g75
(g76
(S'S1'
p462
I0
I1
tp463
Rp464
(I3
S'|'
p465
NNNI1
I1
I0
tp466
bg279
tp467
Rp468
sg19
I00
sbaa(lp469
(i__main__
Car
p470
(dp471
g4
(lp472
I0
aI3
asg6
g7
sg8
(lp473
sg10
g11
sg12
(lp474
sg14
(lp475
I0
aI2
asg16
I2
sg17
g75
(g76
(S'S1'
p476
I0
I1
tp477
Rp478
(I3
S'|'
p479
NNNI1
I1
I0
tp480
bS'1'
p481
tp482
Rp483
sg19
I00
sba(i__main__
Car
p484
(dp485
g4
(lp486
I3
aI2
asg6
g23
sg8
(lp487
sg10
g11
sg12
(lp488
sg14
(lp489
I3
aI0
asg16
I3
sg17
g27
sg19
I00
sba(i__main__
Car
p490
(dp491
g4
(lp492
I4
aI5
asg6
g31
sg8
(lp493
sg10
g11
sg12
(lp494
sg14
(lp495
I4
aI4
asg16
I2
sg17
g308
sg19
I00
sba(i__main__
Car
p496
(dp497
g4
(lp498
I2
aI1
asg6
g39
sg8
(lp499
sg10
g11
sg12
(lp500
sg14
(lp501
I2
aI0
asg16
I2
sg17
g43
sg19
I00
sba(i__main__
Car
p502
(dp503
g4
(lp504
I1
aI4
asg6
g47
sg8
(lp505
sg10
g11
sg12
(lp506
sg14
(lp507
I0
aI4
asg16
I2
sg17
g131
sg19
I00
sba(i__main__
Car
p508
(dp509
g4
(lp510
I2
aI2
asg6
g55
sg8
(lp511
sg10
g11
sg12
(lp512
sg14
(lp513
I1
aI2
asg16
I2
sg17
g59
sg19
I00
sba(i__main__
Car
p514
(dp515
g4
(lp516
I3
aI4
asg6
g63
sg8
(lp517
sg10
g11
sg12
(lp518
sg14
(lp519
I2
aI4
asg16
I2
sg17
g206
sg19
I00
sba(i__main__
Car
p520
(dp521
g4
(lp522
I5
aI3
asg6
g71
sg8
(lp523
sg10
g11
sg12
(lp524
sg14
(lp525
I3
aI3
asg16
I3
sg17
g400
sg19
I00
sba(i__main__
Car
p526
(dp527
g4
(lp528
I3
aI5
asg6
g88
sg8
(lp529
sg10
g11
sg12
(lp530
sg14
(lp531
I1
aI5
asg16
I3
sg17
g468
sg19
I00
sbaa(lp532
(i__main__
Car
p533
(dp534
g4
(lp535
I0
aI3
asg6
g7
sg8
(lp536
sg10
g11
sg12
(lp537
sg14
(lp538
I0
aI2
asg16
I2
sg17
g483
sg19
I00
sba(i__main__
Car
p539
(dp540
g4
(lp541
I3
aI2
asg6
g23
sg8
(lp542
sg10
g11
sg12
(lp543
sg14
(lp544
I3
aI0
asg16
I3
sg17
g27
sg19
I00
sba(i__main__
Car
p545
(dp546
g4
(lp547
I4
aI5
asg6
g31
sg8
(lp548
sg10
g11
sg12
(lp549
sg14
(lp550
I4
aI4
asg16
I2
sg17
g308
sg19
I00
sba(i__main__
Car
p551
(dp552
g4
(lp553
I2
aI1
asg6
g39
sg8
(lp554
sg10
g11
sg12
(lp555
sg14
(lp556
I2
aI0
asg16
I2
sg17
g43
sg19
I00
sba(i__main__
Car
p557
(dp558
g4
(lp559
I1
aI4
asg6
g47
sg8
(lp560
sg10
g11
sg12
(lp561
sg14
(lp562
I0
aI4
asg16
I2
sg17
g131
sg19
I00
sba(i__main__
Car
p563
(dp564
g4
(lp565
I2
aI2
asg6
g55
sg8
(lp566
sg10
g11
sg12
(lp567
sg14
(lp568
I1
aI2
asg16
I2
sg17
g59
sg19
I00
sba(i__main__
Car
p569
(dp570
g4
(lp571
I3
aI4
asg6
g63
sg8
(lp572
sg10
g11
sg12
(lp573
sg14
(lp574
I2
aI4
asg16
I2
sg17
g206
sg19
I00
sba(i__main__
Car
p575
(dp576
g4
(lp577
I3
aI3
asg6
g71
sg8
(lp578
sg10
g11
sg12
(lp579
sg14
(lp580
I1
aI3
asg16
I3
sg17
g75
(g76
(S'S1'
p581
I0
I1
tp582
Rp583
(I3
S'|'
p584
NNNI1
I1
I0
tp585
bg82
tp586
Rp587
sg19
I00
sba(i__main__
Car
p588
(dp589
g4
(lp590
I3
aI5
asg6
g88
sg8
(lp591
sg10
g11
sg12
(lp592
sg14
(lp593
I1
aI5
asg16
I3
sg17
g468
sg19
I00
sbaa(lp594
(i__main__
Car
p595
(dp596
g4
(lp597
I0
aI3
asg6
g7
sg8
(lp598
sg10
g11
sg12
(lp599
sg14
(lp600
I0
aI2
asg16
I2
sg17
g483
sg19
I00
sba(i__main__
Car
p601
(dp602
g4
(lp603
I3
aI2
asg6
g23
sg8
(lp604
sg10
g11
sg12
(lp605
sg14
(lp606
I3
aI0
asg16
I3
sg17
g27
sg19
I00
sba(i__main__
Car
p607
(dp608
g4
(lp609
I4
aI1
asg6
g31
sg8
(lp610
sg10
g11
sg12
(lp611
sg14
(lp612
I4
aI0
asg16
I2
sg17
g75
(g76
(S'S1'
p613
I0
I1
tp614
Rp615
(I3
S'|'
p616
NNNI1
I1
I0
tp617
bg306
tp618
Rp619
sg19
I00
sba(i__main__
Car
p620
(dp621
g4
(lp622
I2
aI1
asg6
g39
sg8
(lp623
sg10
g11
sg12
(lp624
sg14
(lp625
I2
aI0
asg16
I2
sg17
g43
sg19
I00
sba(i__main__
Car
p626
(dp627
g4
(lp628
I1
aI4
asg6
g47
sg8
(lp629
sg10
g11
sg12
(lp630
sg14
(lp631
I0
aI4
asg16
I2
sg17
g131
sg19
I00
sba(i__main__
Car
p632
(dp633
g4
(lp634
I2
aI2
asg6
g55
sg8
(lp635
sg10
g11
sg12
(lp636
sg14
(lp637
I1
aI2
asg16
I2
sg17
g59
sg19
I00
sba(i__main__
Car
p638
(dp639
g4
(lp640
I3
aI4
asg6
g63
sg8
(lp641
sg10
g11
sg12
(lp642
sg14
(lp643
I2
aI4
asg16
I2
sg17
g206
sg19
I00
sba(i__main__
Car
p644
(dp645
g4
(lp646
I3
aI3
asg6
g71
sg8
(lp647
sg10
g11
sg12
(lp648
sg14
(lp649
I1
aI3
asg16
I3
sg17
g587
sg19
I00
sba(i__main__
Car
p650
(dp651
g4
(lp652
I3
aI5
asg6
g88
sg8
(lp653
sg10
g11
sg12
(lp654
sg14
(lp655
I1
aI5
asg16
I3
sg17
g468
sg19
I00
sbaa(lp656
(i__main__
Car
p657
(dp658
g4
(lp659
I0
aI3
asg6
g7
sg8
(lp660
sg10
g11
sg12
(lp661
sg14
(lp662
I0
aI2
asg16
I2
sg17
g483
sg19
I00
sba(i__main__
Car
p663
(dp664
g4
(lp665
I3
aI2
asg6
g23
sg8
(lp666
sg10
g11
sg12
(lp667
sg14
(lp668
I3
aI0
asg16
I3
sg17
g27
sg19
I00
sba(i__main__
Car
p669
(dp670
g4
(lp671
I4
aI1
asg6
g31
sg8
(lp672
sg10
g11
sg12
(lp673
sg14
(lp674
I4
aI0
asg16
I2
sg17
g619
sg19
I00
sba(i__main__
Car
p675
(dp676
g4
(lp677
I2
aI1
asg6
g39
sg8
(lp678
sg10
g11
sg12
(lp679
sg14
(lp680
I2
aI0
asg16
I2
sg17
g43
sg19
I00
sba(i__main__
Car
p681
(dp682
g4
(lp683
I1
aI4
asg6
g47
sg8
(lp684
sg10
g11
sg12
(lp685
sg14
(lp686
I0
aI4
asg16
I2
sg17
g131
sg19
I00
sba(i__main__
Car
p687
(dp688
g4
(lp689
I2
aI2
asg6
g55
sg8
(lp690
sg10
g11
sg12
(lp691
sg14
(lp692
I1
aI2
asg16
I2
sg17
g59
sg19
I00
sba(i__main__
Car
p693
(dp694
g4
(lp695
I3
aI4
asg6
g63
sg8
(lp696
sg10
g11
sg12
(lp697
sg14
(lp698
I2
aI4
asg16
I2
sg17
g206
sg19
I00
sba(i__main__
Car
p699
(dp700
g4
(lp701
I3
aI3
asg6
g71
sg8
(lp702
sg10
g11
sg12
(lp703
sg14
(lp704
I1
aI3
asg16
I3
sg17
g587
sg19
I00
sba(i__main__
Car
p705
(dp706
g4
(lp707
I5
aI5
asg6
g88
sg8
(lp708
sg10
g11
sg12
(lp709
sg14
(lp710
I3
aI5
asg16
I3
sg17
g75
(g76
(S'S1'
p711
I0
I1
tp712
Rp713
(I3
S'|'
p714
NNNI1
I1
I0
tp715
bg279
tp716
Rp717
sg19
I00
sbaa(lp718
(i__main__
Car
p719
(dp720
g4
(lp721
I0
aI3
asg6
g7
sg8
(lp722
sg10
g11
sg12
(lp723
sg14
(lp724
I0
aI2
asg16
I2
sg17
g483
sg19
I00
sba(i__main__
Car
p725
(dp726
g4
(lp727
I3
aI2
asg6
g23
sg8
(lp728
sg10
g11
sg12
(lp729
sg14
(lp730
I3
aI0
asg16
I3
sg17
g27
sg19
I00
sba(i__main__
Car
p731
(dp732
g4
(lp733
I4
aI1
asg6
g31
sg8
(lp734
sg10
g11
sg12
(lp735
sg14
(lp736
I4
aI0
asg16
I2
sg17
g619
sg19
I00
sba(i__main__
Car
p737
(dp738
g4
(lp739
I2
aI1
asg6
g39
sg8
(lp740
sg10
g11
sg12
(lp741
sg14
(lp742
I2
aI0
asg16
I2
sg17
g43
sg19
I00
sba(i__main__
Car
p743
(dp744
g4
(lp745
I1
aI4
asg6
g47
sg8
(lp746
sg10
g11
sg12
(lp747
sg14
(lp748
I0
aI4
asg16
I2
sg17
g131
sg19
I00
sba(i__main__
Car
p749
(dp750
g4
(lp751
I2
aI2
asg6
g55
sg8
(lp752
sg10
g11
sg12
(lp753
sg14
(lp754
I1
aI2
asg16
I2
sg17
g59
sg19
I00
sba(i__main__
Car
p755
(dp756
g4
(lp757
I5
aI4
asg6
g63
sg8
(lp758
sg10
g11
sg12
(lp759
sg14
(lp760
I4
aI4
asg16
I2
sg17
g75
(g76
(S'S1'
p761
I0
I1
tp762
Rp763
(I3
S'|'
p764
NNNI1
I1
I0
tp765
bg204
tp766
Rp767
sg19
I00
sba(i__main__
Car
p768
(dp769
g4
(lp770
I3
aI3
asg6
g71
sg8
(lp771
sg10
g11
sg12
(lp772
sg14
(lp773
I1
aI3
asg16
I3
sg17
g587
sg19
I00
sba(i__main__
Car
p774
(dp775
g4
(lp776
I5
aI5
asg6
g88
sg8
(lp777
sg10
g11
sg12
(lp778
sg14
(lp779
I3
aI5
asg16
I3
sg17
g717
sg19
I00
sbaa(lp780
(i__main__
Car
p781
(dp782
g4
(lp783
I0
aI1
asg6
g7
sg8
(lp784
sg10
g11
sg12
(lp785
sg14
(lp786
I0
aI0
asg16
I2
sg17
g75
(g76
(S'S1'
p787
I0
I1
tp788
Rp789
(I3
S'|'
p790
NNNI1
I1
I0
tp791
bg481
tp792
Rp793
sg19
I00
sba(i__main__
Car
p794
(dp795
g4
(lp796
I3
aI2
asg6
g23
sg8
(lp797
sg10
g11
sg12
(lp798
sg14
(lp799
I3
aI0
asg16
I3
sg17
g27
sg19
I00
sba(i__main__
Car
p800
(dp801
g4
(lp802
I4
aI1
asg6
g31
sg8
(lp803
sg10
g11
sg12
(lp804
sg14
(lp805
I4
aI0
asg16
I2
sg17
g619
sg19
I00
sba(i__main__
Car
p806
(dp807
g4
(lp808
I2
aI1
asg6
g39
sg8
(lp809
sg10
g11
sg12
(lp810
sg14
(lp811
I2
aI0
asg16
I2
sg17
g43
sg19
I00
sba(i__main__
Car
p812
(dp813
g4
(lp814
I1
aI4
asg6
g47
sg8
(lp815
sg10
g11
sg12
(lp816
sg14
(lp817
I0
aI4
asg16
I2
sg17
g131
sg19
I00
sba(i__main__
Car
p818
(dp819
g4
(lp820
I2
aI2
asg6
g55
sg8
(lp821
sg10
g11
sg12
(lp822
sg14
(lp823
I1
aI2
asg16
I2
sg17
g59
sg19
I00
sba(i__main__
Car
p824
(dp825
g4
(lp826
I5
aI4
asg6
g63
sg8
(lp827
sg10
g11
sg12
(lp828
sg14
(lp829
I4
aI4
asg16
I2
sg17
g767
sg19
I00
sba(i__main__
Car
p830
(dp831
g4
(lp832
I3
aI3
asg6
g71
sg8
(lp833
sg10
g11
sg12
(lp834
sg14
(lp835
I1
aI3
asg16
I3
sg17
g587
sg19
I00
sba(i__main__
Car
p836
(dp837
g4
(lp838
I5
aI5
asg6
g88
sg8
(lp839
sg10
g11
sg12
(lp840
sg14
(lp841
I3
aI5
asg16
I3
sg17
g717
sg19
I00
sbaa(lp842
(i__main__
Car
p843
(dp844
g4
(lp845
I0
aI1
asg6
g7
sg8
(lp846
sg10
g11
sg12
(lp847
sg14
(lp848
I0
aI0
asg16
I2
sg17
g793
sg19
I00
sba(i__main__
Car
p849
(dp850
g4
(lp851
I3
aI2
asg6
g23
sg8
(lp852
sg10
g11
sg12
(lp853
sg14
(lp854
I3
aI0
asg16
I3
sg17
g27
sg19
I00
sba(i__main__
Car
p855
(dp856
g4
(lp857
I4
aI1
asg6
g31
sg8
(lp858
sg10
g11
sg12
(lp859
sg14
(lp860
I4
aI0
asg16
I2
sg17
g619
sg19
I00
sba(i__main__
Car
p861
(dp862
g4
(lp863
I2
aI1
asg6
g39
sg8
(lp864
sg10
g11
sg12
(lp865
sg14
(lp866
I2
aI0
asg16
I2
sg17
g43
sg19
I00
sba(i__main__
Car
p867
(dp868
g4
(lp869
I1
aI4
asg6
g47
sg8
(lp870
sg10
g11
sg12
(lp871
sg14
(lp872
I0
aI4
asg16
I2
sg17
g131
sg19
I00
sba(i__main__
Car
p873
(dp874
g4
(lp875
I2
aI2
asg6
g55
sg8
(lp876
sg10
g11
sg12
(lp877
sg14
(lp878
I1
aI2
asg16
I2
sg17
g59
sg19
I00
sba(i__main__
Car
p879
(dp880
g4
(lp881
I5
aI4
asg6
g63
sg8
(lp882
sg10
g11
sg12
(lp883
sg14
(lp884
I4
aI4
asg16
I2
sg17
g767
sg19
I00
sba(i__main__
Car
p885
(dp886
g4
(lp887
I2
aI3
asg6
g71
sg8
(lp888
sg10
g11
sg12
(lp889
sg14
(lp890
I0
aI3
asg16
I3
sg17
g75
(g76
(S'S1'
p891
I0
I1
tp892
Rp893
(I3
S'|'
p894
NNNI1
I1
I0
tp895
bg82
tp896
Rp897
sg19
I00
sba(i__main__
Car
p898
(dp899
g4
(lp900
I5
aI5
asg6
g88
sg8
(lp901
sg10
g11
sg12
(lp902
sg14
(lp903
I3
aI5
asg16
I3
sg17
g717
sg19
I00
sbaa(lp904
(i__main__
Car
p905
(dp906
g4
(lp907
I0
aI1
asg6
g7
sg8
(lp908
sg10
g11
sg12
(lp909
sg14
(lp910
I0
aI0
asg16
I2
sg17
g793
sg19
I00
sba(i__main__
Car
p911
(dp912
g4
(lp913
I3
aI4
asg6
g23
sg8
(lp914
sg10
g11
sg12
(lp915
sg14
(lp916
I3
aI2
asg16
I3
sg17
g75
(g76
(S'S1'
p917
I0
I1
tp918
Rp919
(I3
S'|'
p920
NNNI1
I1
I0
tp921
bS'3'
p922
tp923
Rp924
sg19
I00
sba(i__main__
Car
p925
(dp926
g4
(lp927
I4
aI1
asg6
g31
sg8
(lp928
sg10
g11
sg12
(lp929
sg14
(lp930
I4
aI0
asg16
I2
sg17
g619
sg19
I00
sba(i__main__
Car
p931
(dp932
g4
(lp933
I2
aI1
asg6
g39
sg8
(lp934
sg10
g11
sg12
(lp935
sg14
(lp936
I2
aI0
asg16
I2
sg17
g43
sg19
I00
sba(i__main__
Car
p937
(dp938
g4
(lp939
I1
aI4
asg6
g47
sg8
(lp940
sg10
g11
sg12
(lp941
sg14
(lp942
I0
aI4
asg16
I2
sg17
g131
sg19
I00
sba(i__main__
Car
p943
(dp944
g4
(lp945
I2
aI2
asg6
g55
sg8
(lp946
sg10
g11
sg12
(lp947
sg14
(lp948
I1
aI2
asg16
I2
sg17
g59
sg19
I00
sba(i__main__
Car
p949
(dp950
g4
(lp951
I5
aI4
asg6
g63
sg8
(lp952
sg10
g11
sg12
(lp953
sg14
(lp954
I4
aI4
asg16
I2
sg17
g767
sg19
I00
sba(i__main__
Car
p955
(dp956
g4
(lp957
I2
aI3
asg6
g71
sg8
(lp958
sg10
g11
sg12
(lp959
sg14
(lp960
I0
aI3
asg16
I3
sg17
g897
sg19
I00
sba(i__main__
Car
p961
(dp962
g4
(lp963
I5
aI5
asg6
g88
sg8
(lp964
sg10
g11
sg12
(lp965
sg14
(lp966
I3
aI5
asg16
I3
sg17
g717
sg19
I00
sbaa(lp967
(i__main__
Car
p968
(dp969
g4
(lp970
I0
aI1
asg6
g7
sg8
(lp971
sg10
g11
sg12
(lp972
sg14
(lp973
I0
aI0
asg16
I2
sg17
g793
sg19
I00
sba(i__main__
Car
p974
(dp975
g4
(lp976
I3
aI4
asg6
g23
sg8
(lp977
sg10
g11
sg12
(lp978
sg14
(lp979
I3
aI2
asg16
I3
sg17
g924
sg19
I00
sba(i__main__
Car
p980
(dp981
g4
(lp982
I4
aI1
asg6
g31
sg8
(lp983
sg10
g11
sg12
(lp984
sg14
(lp985
I4
aI0
asg16
I2
sg17
g619
sg19
I00
sba(i__main__
Car
p986
(dp987
g4
(lp988
I2
aI1
asg6
g39
sg8
(lp989
sg10
g11
sg12
(lp990
sg14
(lp991
I2
aI0
asg16
I2
sg17
g43
sg19
I00
sba(i__main__
Car
p992
(dp993
g4
(lp994
I1
aI4
asg6
g47
sg8
(lp995
sg10
g11
sg12
(lp996
sg14
(lp997
I0
aI4
asg16
I2
sg17
g131
sg19
I00
sba(i__main__
Car
p998
(dp999
g4
(lp1000
I2
aI2
asg6
g55
sg8
(lp1001
sg10
g11
sg12
(lp1002
sg14
(lp1003
I1
aI2
asg16
I2
sg17
g59
sg19
I00
sba(i__main__
Car
p1004
(dp1005
g4
(lp1006
I5
aI4
asg6
g63
sg8
(lp1007
sg10
g11
sg12
(lp1008
sg14
(lp1009
I4
aI4
asg16
I2
sg17
g767
sg19
I00
sba(i__main__
Car
p1010
(dp1011
g4
(lp1012
I2
aI3
asg6
g71
sg8
(lp1013
sg10
g11
sg12
(lp1014
sg14
(lp1015
I0
aI3
asg16
I3
sg17
g897
sg19
I00
sba(i__main__
Car
p1016
(dp1017
g4
(lp1018
I2
aI5
asg6
g88
sg8
(lp1019
sg10
g11
sg12
(lp1020
sg14
(lp1021
I0
aI5
asg16
I3
sg17
g75
(g76
(S'S1'
p1022
I0
I1
tp1023
Rp1024
(I3
S'|'
p1025
NNNI1
I1
I0
tp1026
bg279
tp1027
Rp1028
sg19
I00
sbaag1
ag93
ag156
ag219
ag282
ag345
ag407
ag469
ag532
ag594
ag656
ag718
ag780
ag842
ag904
ag967
ag1
ag93
ag156
ag219
ag282
ag345
ag407
ag469
ag532
ag594
ag656
ag718
ag780
ag842
ag904
ag967
ag1
ag93
ag156
ag219
ag282
ag345
ag407
ag469
ag532
ag594
ag656
ag718
ag780
ag842
ag904
ag967
ag1
ag93
ag156
ag219
ag282
ag345
ag407
ag469
ag532
ag594
ag656
ag718
ag780
ag842
ag904
ag967
ag1
ag93
ag156
ag219
ag282
ag345
ag407
ag469
ag532
ag594
ag656
ag718
ag780
ag842
ag904
ag967
ag1
ag93
ag156
ag219
ag282
ag345
ag407
ag469
ag532
ag594
ag656
ag718
ag780
ag842
ag904
ag967
ag1
ag93
ag156
ag219
ag282
ag345
ag407
ag469
ag532
ag594
ag656
ag718
ag780
ag842
ag904
ag967
ag1
ag93
ag156
ag219
ag282
ag345
ag407
ag469
ag532
ag594
ag656
ag718
ag780
ag842
ag904
ag967
ag1
ag93
ag156
ag219
ag282
ag345
ag407
ag469
ag532
ag594
ag656
ag718
ag780
ag842
ag904
ag967
ag1
ag93
ag156
ag219
ag282
ag345
ag407
ag469
ag532
ag594
ag656
ag718
ag780
ag842
ag904
ag967
ag1
ag93
ag156
ag219
ag282
ag345
ag407
ag469
ag532
ag594
ag656
ag718
ag780
ag842
ag904
ag967
ag1
ag93
ag156
ag219
ag282
ag345
ag407
ag469
ag532
ag594
ag656
ag718
ag780
ag842
ag904
ag967
ag1
ag93
ag156
ag219
ag282
ag345
ag407
ag469
ag532
ag594
ag656
ag718
ag780
ag842
ag904
ag967
ag1
ag93
ag156
ag219
ag282
ag345
ag407
ag469
ag532
ag594
ag656
ag718
ag780
ag842
ag904
ag967
ag1
ag93
ag156
ag219
ag282
ag345
ag407
ag469
ag532
ag594
ag656
ag718
ag780
ag842
ag904
ag967
ag1
ag93
ag156
ag219
ag282
ag345
ag407
ag469
ag532
ag594
ag656
ag718
ag780
ag842
ag904
ag967
ag1
ag93
ag156
ag219
ag282
ag345
ag407
ag469
ag532
ag594
ag656
ag718
ag780
ag842
ag904
ag967
ag1
ag93
ag156
ag219
ag282
ag345
ag407
ag469
ag532
ag594
ag656
ag718
ag780
ag842
ag904
ag967
ag1
ag93
ag156
ag219
ag282
ag345
ag407
ag469
ag532
ag594
ag656
ag718
ag780
ag842
ag904
ag967
ag1
ag93
ag156
ag219
ag282
ag345
ag407
ag469
ag532
ag594
ag656
ag718
ag780
ag842
ag904
ag967
ag1
ag93
ag156
ag219
ag282
ag345
ag407
ag469
ag532
ag594
ag656
ag718
ag780
ag842
ag904
ag967
ag1
ag93
ag156
ag219
ag282
ag345
ag407
ag469
ag532
ag594
ag656
ag718
ag780
ag842
ag904
ag967
ag1
ag93
ag156
ag219
ag282
ag345
ag407
ag469
ag532
ag594
ag656
ag718
ag780
ag842
ag904
ag967
ag1
ag93
ag156
ag219
ag282
ag345
ag407
ag469
ag532
ag594
ag656
ag718
ag780
ag842
ag904
ag967
ag1
ag93
ag156
ag219
ag282
ag345
ag407
ag469
ag532
ag594
ag656
ag718
ag780
ag842
ag904
ag967
ag1
ag93
ag156
ag219
ag282
ag345
ag407
ag469
ag532
ag594
ag656
ag718
ag780
ag842
ag904
ag967
ag1
ag93
ag156
ag219
ag282
ag345
ag407
ag469
ag532
ag594
ag656
ag718
ag780
ag842
ag904
ag967
ag1
ag93
ag156
ag219
ag282
ag345
ag407
ag469
ag532
ag594
ag656
ag718
ag780
ag842
ag904
ag967
ag1
ag93
ag156
ag219
ag282
ag345
ag407
ag469
ag532
ag594
ag656
ag718
ag780
ag842
ag904
ag967
ag1
ag93
ag156
ag219
ag282
ag345
ag407
ag469
ag532
ag594
ag656
ag718
ag780
ag842
ag904
ag967
ag1
ag93
ag156
ag219
ag282
ag345
ag407
ag469
ag532
ag594
ag656
ag718
ag780
ag842
ag904
ag967
ag1
ag93
ag156
ag219
ag282
ag345
ag407
ag469
ag532
ag594
ag656
ag718
ag780
ag842
ag904
ag967
ag1
ag93
ag156
ag219
ag282
ag345
ag407
ag469
ag532
ag594
ag656
ag718
ag780
ag842
ag904
ag967
ag1
ag93
ag156
ag219
ag282
ag345
ag407
ag469
ag532
ag594
ag656
ag718
ag780
ag842
ag904
ag967
ag1
ag93
ag156
ag219
ag282
ag345
ag407
ag469
ag532
ag594
ag656
ag718
ag780
ag842
ag904
ag967
ag1
ag93
ag156
ag219
ag282
ag345
ag407
ag469
ag532
ag594
ag656
ag718
ag780
ag842
ag904
ag967
ag1
ag93
ag156
ag219
ag282
ag345
ag407
ag469
ag532
ag594
ag656
ag718
ag780
ag842
ag904
ag967
ag1
ag93
ag156
ag219
ag282
ag345
ag407
ag469
ag532
ag594
ag656
ag718
ag780
ag842
ag904
ag967
ag1
ag93
ag156
ag219
ag282
ag345
ag407
ag469
ag532
ag594
ag656
ag718
ag780
ag842
ag904
ag967
ag1
ag93
ag156
ag219
ag282
ag345
ag407
ag469
ag532
ag594
ag656
ag718
ag780
ag842
ag904
ag967
ag1
ag93
ag156
ag219
ag282
ag345
ag407
ag469
ag532
ag594
ag656
ag718
ag780
ag842
ag904
ag967
ag1
ag93
ag156
ag219
ag282
ag345
ag407
ag469
ag532
ag594
ag656
ag718
ag780
ag842
ag904
ag967
ag1
ag93
ag156
ag219
ag282
ag345
ag407
ag469
ag532
ag594
ag656
ag718
ag780
ag842
ag904
ag967
ag1
ag93
ag156
ag219
ag282
ag345
ag407
ag469
ag532
ag594
ag656
ag718
ag780
ag842
ag904
ag967
ag1
ag93
ag156
ag219
ag282
ag345
ag407
ag469
ag532
ag594
ag656
ag718
ag780
ag842
ag904
ag967
ag1
ag93
ag156
ag219
ag282
ag345
ag407
ag469
ag532
ag594
ag656
ag718
ag780
ag842
ag904
ag967
ag1
ag93
ag156
ag219
ag282
ag345
ag407
ag469
ag532
ag594
ag656
ag718
ag780
ag842
ag904
ag967
ag1
ag93
ag156
ag219
ag282
ag345
ag407
ag469
ag532
ag594
ag656
ag718
ag780
ag842
ag904
ag967
ag1
ag93
ag156
ag219
ag282
ag345
ag407
ag469
ag532
ag594
ag656
ag718
ag780
ag842
ag904
ag967
ag1
ag93
ag156
ag219
ag282
ag345
ag407
ag469
ag532
ag594
ag656
ag718
ag780
ag842
ag904
ag967
ag1
ag93
ag156
ag219
ag282
ag345
ag407
ag469
ag532
ag594
ag656
ag718
ag780
ag842
ag904
ag967
ag1
ag93
ag156
ag219
ag282
ag345
ag407
ag469
ag532
ag594
ag656
ag718
ag780
ag842
ag904
ag967
ag1
ag93
ag156
ag219
ag282
ag345
ag407
ag469
ag532
ag594
ag656
ag718
ag780
ag842
ag904
ag967
ag1
ag93
ag156
ag219
ag282
ag345
ag407
ag469
ag532
ag594
ag656
ag718
ag780
ag842
ag904
ag967
ag1
ag93
ag156
ag219
ag282
ag345
ag407
ag469
ag532
ag594
ag656
ag718
ag780
ag842
ag904
ag967
ag1
ag93
ag156
ag219
ag282
ag345
ag407
ag469
ag532
ag594
ag656
ag718
ag780
ag842
ag904
ag967
ag1
ag93
ag156
ag219
ag282
ag345
ag407
ag469
ag532
ag594
ag656
ag718
ag780
ag842
ag904
ag967
ag1
ag93
ag156
ag219
ag282
ag345
ag407
ag469
ag532
ag594
ag656
ag718
ag780
ag842
ag904
ag967
ag1
ag93
ag156
ag219
ag282
ag345
ag407
ag469
ag532
ag594
ag656
ag718
ag780
ag842
ag904
ag967
ag1
ag93
ag156
ag219
ag282
ag345
ag407
ag469
ag532
ag594
ag656
ag718
ag780
ag842
ag904
ag967
ag1
ag93
ag156
ag219
ag282
ag345
ag407
ag469
ag532
ag594
ag656
ag718
ag780
ag842
ag904
ag967
ag1
ag93
ag156
ag219
ag282
ag345
ag407
ag469
ag532
ag594
ag656
ag718
ag780
ag842
ag904
ag967
ag1
ag93
ag156
ag219
ag282
ag345
ag407
ag469
ag532
ag594
ag656
ag718
ag780
ag842
ag904
ag967
a.